

Microchip MPLAB XC8 Assembler V2.31 build 20201012212115 
                                                                                               Thu Jun 03 20:46:23 2021

Microchip MPLAB XC8 C Compiler v2.31 (Free license) build 20201012212115 Og1 
     1                           	processor	16F887
     2                           	pagewidth 120
     3                           	opt	flic
     4                           	psect	idataCOMMON,global,class=CODE,delta=2,noexec
     5                           	psect	idataBANK0,global,class=CODE,delta=2,noexec
     6                           	psect	stringtext,global,reloc=256,class=STRCODE,delta=2,noexec
     7                           	psect	cinit,global,class=CODE,merge=1,delta=2
     8                           	psect	dataCOMMON,global,class=COMMON,space=1,delta=1,noexec
     9                           	psect	bssBANK0,global,class=BANK0,space=1,delta=1,noexec
    10                           	psect	dataBANK0,global,class=BANK0,space=1,delta=1,noexec
    11                           	psect	clrtext,global,class=CODE,delta=2
    12                           	psect	cstackCOMMON,global,class=COMMON,space=1,delta=1,noexec
    13                           	psect	cstackBANK0,global,class=BANK0,space=1,delta=1,noexec
    14                           	psect	maintext,global,class=CODE,split=1,delta=2
    15                           	psect	text1,local,class=CODE,merge=1,delta=2
    16                           	psect	text2,local,class=CODE,merge=1,delta=2
    17                           	psect	text3,local,class=CODE,merge=1,delta=2,group=2
    18                           	psect	text4,local,class=CODE,merge=1,delta=2
    19                           	psect	text5,local,class=CODE,merge=1,delta=2
    20                           	psect	text6,local,class=CODE,merge=1,delta=2
    21                           	psect	text7,local,class=CODE,merge=1,delta=2
    22                           	psect	text8,local,class=CODE,merge=1,delta=2
    23                           	psect	text9,local,class=CODE,merge=1,delta=2
    24                           	psect	text10,local,class=CODE,merge=1,delta=2,group=1
    25                           	psect	text11,local,class=CODE,merge=1,delta=2,group=1
    26                           	psect	text12,local,class=CODE,merge=1,delta=2
    27                           	psect	intentry,global,class=CODE,delta=2
    28                           	psect	text13,local,class=CODE,merge=1,delta=2
    29                           	psect	text14,local,class=CODE,merge=1,delta=2
    30                           	psect	config,global,abs,ovrld,class=CONFIG,space=4,delta=2,noexec
    31                           	dabs	1,0x7E,2
    32  0000                     
    33                           ; Version 2.20
    34                           ; Generated 12/02/2020 GMT
    35                           ; 
    36                           ; Copyright © 2020, Microchip Technology Inc. and its subsidiaries ("Microchip")
    37                           ; All rights reserved.
    38                           ; 
    39                           ; This software is developed by Microchip Technology Inc. and its subsidiaries ("Microch
      +                          ip").
    40                           ; 
    41                           ; Redistribution and use in source and binary forms, with or without modification, are
    42                           ; permitted provided that the following conditions are met:
    43                           ; 
    44                           ;     1. Redistributions of source code must retain the above copyright notice, this lis
      +                          t of
    45                           ;        conditions and the following disclaimer.
    46                           ; 
    47                           ;     2. Redistributions in binary form must reproduce the above copyright notice, this 
      +                          list
    48                           ;        of conditions and the following disclaimer in the documentation and/or other
    49                           ;        materials provided with the distribution.
    50                           ; 
    51                           ;     3. Microchip's name may not be used to endorse or promote products derived from th
      +                          is
    52                           ;        software without specific prior written permission.
    53                           ; 
    54                           ; THIS SOFTWARE IS PROVIDED BY MICROCHIP "AS IS" AND ANY EXPRESS OR IMPLIED WARRANTIES,
    55                           ; INCLUDING, BUT NOT LIMITED TO, THE IMPLIED WARRANTIES OF MERCHANTABILITY AND FITNESS F
      +                          OR
    56                           ; PURPOSE ARE DISCLAIMED.  IN NO EVENT SHALL MICROCHIP BE LIABLE FOR ANY DIRECT, INDIREC
      +                          T,
    57                           ; INCIDENTAL, SPECIAL, EXEMPLARY, OR CONSEQUENTIAL DAMAGES (INCLUDING BUT NOT LIMITED TO
    58                           ; PROCUREMENT OF SUBSTITUTE GOODS OR SERVICES; LOSS OF USE, DATA OR PROFITS; OR BUSINESS
    59                           ; INTERRUPTION) HOWSOEVER CAUSED AND ON ANY THEORY OF LIABILITY, WHETHER IN CONTRACT, ST
      +                          RICT
    60                           ; LIABILITY, OR TORT (INCLUDING NEGLIGENCE OR OTHERWISE) ARISING IN ANY WAY OUT OF THE U
      +                          SE OF
    61                           ; THIS SOFTWARE, EVEN IF ADVISED OF THE POSSIBILITY OF SUCH DAMAGE.
    62                           ; 
    63                           ; 
    64                           ; Code-generator required, PIC16F887 Definitions
    65                           ; 
    66                           ; SFR Addresses
    67  0000                     	;# 
    68  0001                     	;# 
    69  0002                     	;# 
    70  0003                     	;# 
    71  0004                     	;# 
    72  0005                     	;# 
    73  0006                     	;# 
    74  0007                     	;# 
    75  0008                     	;# 
    76  0009                     	;# 
    77  000A                     	;# 
    78  000B                     	;# 
    79  000C                     	;# 
    80  000D                     	;# 
    81  000E                     	;# 
    82  000E                     	;# 
    83  000F                     	;# 
    84  0010                     	;# 
    85  0011                     	;# 
    86  0012                     	;# 
    87  0013                     	;# 
    88  0014                     	;# 
    89  0015                     	;# 
    90  0015                     	;# 
    91  0016                     	;# 
    92  0017                     	;# 
    93  0018                     	;# 
    94  0019                     	;# 
    95  001A                     	;# 
    96  001B                     	;# 
    97  001B                     	;# 
    98  001C                     	;# 
    99  001D                     	;# 
   100  001E                     	;# 
   101  001F                     	;# 
   102  0081                     	;# 
   103  0085                     	;# 
   104  0086                     	;# 
   105  0087                     	;# 
   106  0088                     	;# 
   107  0089                     	;# 
   108  008C                     	;# 
   109  008D                     	;# 
   110  008E                     	;# 
   111  008F                     	;# 
   112  0090                     	;# 
   113  0091                     	;# 
   114  0092                     	;# 
   115  0093                     	;# 
   116  0093                     	;# 
   117  0093                     	;# 
   118  0094                     	;# 
   119  0095                     	;# 
   120  0096                     	;# 
   121  0097                     	;# 
   122  0098                     	;# 
   123  0099                     	;# 
   124  009A                     	;# 
   125  009B                     	;# 
   126  009C                     	;# 
   127  009D                     	;# 
   128  009E                     	;# 
   129  009F                     	;# 
   130  0105                     	;# 
   131  0107                     	;# 
   132  0108                     	;# 
   133  0109                     	;# 
   134  010C                     	;# 
   135  010C                     	;# 
   136  010D                     	;# 
   137  010E                     	;# 
   138  010F                     	;# 
   139  0185                     	;# 
   140  0187                     	;# 
   141  0188                     	;# 
   142  0189                     	;# 
   143  018C                     	;# 
   144  018D                     	;# 
   145  0000                     	;# 
   146  0001                     	;# 
   147  0002                     	;# 
   148  0003                     	;# 
   149  0004                     	;# 
   150  0005                     	;# 
   151  0006                     	;# 
   152  0007                     	;# 
   153  0008                     	;# 
   154  0009                     	;# 
   155  000A                     	;# 
   156  000B                     	;# 
   157  000C                     	;# 
   158  000D                     	;# 
   159  000E                     	;# 
   160  000E                     	;# 
   161  000F                     	;# 
   162  0010                     	;# 
   163  0011                     	;# 
   164  0012                     	;# 
   165  0013                     	;# 
   166  0014                     	;# 
   167  0015                     	;# 
   168  0015                     	;# 
   169  0016                     	;# 
   170  0017                     	;# 
   171  0018                     	;# 
   172  0019                     	;# 
   173  001A                     	;# 
   174  001B                     	;# 
   175  001B                     	;# 
   176  001C                     	;# 
   177  001D                     	;# 
   178  001E                     	;# 
   179  001F                     	;# 
   180  0081                     	;# 
   181  0085                     	;# 
   182  0086                     	;# 
   183  0087                     	;# 
   184  0088                     	;# 
   185  0089                     	;# 
   186  008C                     	;# 
   187  008D                     	;# 
   188  008E                     	;# 
   189  008F                     	;# 
   190  0090                     	;# 
   191  0091                     	;# 
   192  0092                     	;# 
   193  0093                     	;# 
   194  0093                     	;# 
   195  0093                     	;# 
   196  0094                     	;# 
   197  0095                     	;# 
   198  0096                     	;# 
   199  0097                     	;# 
   200  0098                     	;# 
   201  0099                     	;# 
   202  009A                     	;# 
   203  009B                     	;# 
   204  009C                     	;# 
   205  009D                     	;# 
   206  009E                     	;# 
   207  009F                     	;# 
   208  0105                     	;# 
   209  0107                     	;# 
   210  0108                     	;# 
   211  0109                     	;# 
   212  010C                     	;# 
   213  010C                     	;# 
   214  010D                     	;# 
   215  010E                     	;# 
   216  010F                     	;# 
   217  0185                     	;# 
   218  0187                     	;# 
   219  0188                     	;# 
   220  0189                     	;# 
   221  018C                     	;# 
   222  018D                     	;# 
   223                           
   224                           	psect	idataCOMMON
   225  07FF                     __pidataCOMMON:
   226                           
   227                           ;initializer for _leer
   228  07FF  3410               	retlw	16
   229                           
   230                           	psect	idataBANK0
   231  0CA4                     __pidataBANK0:
   232                           
   233                           ;initializer for _addressEEPROM
   234  0CA4  3410               	retlw	16
   235  0CA5  3400               	retlw	0
   236                           
   237                           ;initializer for _flag
   238  0CA6  3401               	retlw	1
   239  0CA7  3400               	retlw	0
   240                           
   241                           	psect	stringtext
   242  0500                     __pstringtext:
   243  0500                     stringtab:
   244  0500                     __stringtab:
   245                           
   246                           ;	String table - string pointers are 2 bytes each
   247  0500  1BFF               	btfsc	btemp+1,7
   248  0501  2D0A               	ljmp	stringcode
   249  0502  1383               	bcf	3,7
   250  0503  187F               	btfsc	btemp+1,0
   251  0504  1783               	bsf	3,7
   252  0505  0800               	movf	0,w
   253  0506  0A84               	incf	4,f
   254  0507  1903               	skipnz
   255  0508  0AFF               	incf	btemp+1,f
   256  0509  0008               	return
   257  050A                     stringcode:
   258  050A  087F               	movf	btemp+1,w
   259  050B  397F               	andlw	127
   260  050C  008A               	movwf	10
   261  050D  0804               	movf	4,w
   262  050E  0A84               	incf	4,f
   263  050F  1903               	skipnz
   264  0510  0AFF               	incf	btemp+1,f
   265  0511  0082               	movwf	2
   266  0512                     __stringbase:
   267  0512                     __end_of__stringtab:
   268  0512                     _data:
   269  0512  3461               	retlw	97
   270  0513                     __end_of_data:
   271  0018                     _RCSTAbits	set	24
   272  0012                     _T2CONbits	set	18
   273  0007                     _PORTC	set	7
   274  0009                     _PORTE	set	9
   275  0006                     _PORTB	set	6
   276  001A                     _RCREG	set	26
   277  000B                     _INTCONbits	set	11
   278  0006                     _PORTBbits	set	6
   279  0019                     _TXREG	set	25
   280  001E                     _ADRESH	set	30
   281  0005                     _PORTAbits	set	5
   282  0005                     _PORTA	set	5
   283  001D                     _CCP2CONbits	set	29
   284  001B                     _CCPR2L	set	27
   285  0008                     _PORTDbits	set	8
   286  0017                     _CCP1CONbits	set	23
   287  0015                     _CCPR1L	set	21
   288  0008                     _PORTD	set	8
   289  000C                     _PIR1bits	set	12
   290  001F                     _ADCON0bits	set	31
   291  0096                     _IOCB	set	150
   292  008C                     _PIE1bits	set	140
   293  009A                     _SPBRGH	set	154
   294  0099                     _SPBRG	set	153
   295  0098                     _TXSTAbits	set	152
   296  0092                     _PR2	set	146
   297  009F                     _ADCON1bits	set	159
   298  0095                     _WPUB	set	149
   299  0081                     _OPTION_REGbits	set	129
   300  0087                     _TRISC	set	135
   301  0088                     _TRISD	set	136
   302  0089                     _TRISE	set	137
   303  0085                     _TRISA	set	133
   304  0086                     _TRISB	set	134
   305  008F                     _OSCCONbits	set	143
   306  009E                     _ADRESL	set	158
   307  010C                     _EEDATA	set	268
   308  010C                     _EEDAT	set	268
   309  010D                     _EEADR	set	269
   310  0187                     _BAUDCTLbits	set	391
   311  0188                     _ANSEL	set	392
   312  0189                     _ANSELH	set	393
   313  018D                     _EECON2	set	397
   314  018C                     _EECON1bits	set	396
   315  0513                     STR_16:
   316  0513  3431               	retlw	49	;'1'
   317  0514  342E               	retlw	46	;'.'
   318  0515  3445               	retlw	69	;'E'
   319  0516  346E               	retlw	110	;'n'
   320  0517  3463               	retlw	99	;'c'
   321  0518  3465               	retlw	101	;'e'
   322  0519  346E               	retlw	110	;'n'
   323  051A  3464               	retlw	100	;'d'
   324  051B  3465               	retlw	101	;'e'
   325  051C  3472               	retlw	114	;'r'
   326  051D  3420               	retlw	32	;' '
   327  051E  346C               	retlw	108	;'l'
   328  051F  3465               	retlw	101	;'e'
   329  0520  3464               	retlw	100	;'d'
   330  0521  3473               	retlw	115	;'s'
   331  0522  3420               	retlw	32	;' '
   332  0523  3464               	retlw	100	;'d'
   333  0524  3465               	retlw	101	;'e'
   334  0525  346C               	retlw	108	;'l'
   335  0526  3461               	retlw	97	;'a'
   336  0527  346E               	retlw	110	;'n'
   337  0528  3474               	retlw	116	;'t'
   338  0529  3465               	retlw	101	;'e'
   339  052A  3472               	retlw	114	;'r'
   340  052B  3461               	retlw	97	;'a'
   341  052C  3473               	retlw	115	;'s'
   342  052D  3420               	retlw	32	;' '
   343  052E  3432               	retlw	50	;'2'
   344  052F  342E               	retlw	46	;'.'
   345  0530  3445               	retlw	69	;'E'
   346  0531  346E               	retlw	110	;'n'
   347  0532  3463               	retlw	99	;'c'
   348  0533  3465               	retlw	101	;'e'
   349  0534  346E               	retlw	110	;'n'
   350  0535  3464               	retlw	100	;'d'
   351  0536  3465               	retlw	101	;'e'
   352  0537  3472               	retlw	114	;'r'
   353  0538  3420               	retlw	32	;' '
   354  0539  346C               	retlw	108	;'l'
   355  053A  3465               	retlw	101	;'e'
   356  053B  3464               	retlw	100	;'d'
   357  053C  3473               	retlw	115	;'s'
   358  053D  3420               	retlw	32	;' '
   359  053E  3474               	retlw	116	;'t'
   360  053F  3472               	retlw	114	;'r'
   361  0540  3461               	retlw	97	;'a'
   362  0541  3473               	retlw	115	;'s'
   363  0542  3465               	retlw	101	;'e'
   364  0543  3472               	retlw	114	;'r'
   365  0544  3461               	retlw	97	;'a'
   366  0545  3473               	retlw	115	;'s'
   367  0546  3420               	retlw	32	;' '
   368  0547  3433               	retlw	51	;'3'
   369  0548  342E               	retlw	46	;'.'
   370  0549  3450               	retlw	80	;'P'
   371  054A  3461               	retlw	97	;'a'
   372  054B  3472               	retlw	114	;'r'
   373  054C  3470               	retlw	112	;'p'
   374  054D  3461               	retlw	97	;'a'
   375  054E  3464               	retlw	100	;'d'
   376  054F  3465               	retlw	101	;'e'
   377  0550  3461               	retlw	97	;'a'
   378  0551  3472               	retlw	114	;'r'
   379  0552  3420               	retlw	32	;' '
   380  0553  346C               	retlw	108	;'l'
   381  0554  3465               	retlw	101	;'e'
   382  0555  3464               	retlw	100	;'d'
   383  0556  3473               	retlw	115	;'s'
   384  0557  3400               	retlw	0
   385  0558                     STR_13:
   386  0558  3445               	retlw	69	;'E'
   387  0559  346C               	retlw	108	;'l'
   388  055A  3469               	retlw	105	;'i'
   389  055B  346A               	retlw	106	;'j'
   390  055C  3461               	retlw	97	;'a'
   391  055D  3420               	retlw	32	;' '
   392  055E  346C               	retlw	108	;'l'
   393  055F  3461               	retlw	97	;'a'
   394  0560  3420               	retlw	32	;' '
   395  0561  3461               	retlw	97	;'a'
   396  0562  3463               	retlw	99	;'c'
   397  0563  3463               	retlw	99	;'c'
   398  0564  3469               	retlw	105	;'i'
   399  0565  346F               	retlw	111	;'o'
   400  0566  346E               	retlw	110	;'n'
   401  0567  3420               	retlw	32	;' '
   402  0568  3471               	retlw	113	;'q'
   403  0569  3475               	retlw	117	;'u'
   404  056A  3465               	retlw	101	;'e'
   405  056B  3420               	retlw	32	;' '
   406  056C  3464               	retlw	100	;'d'
   407  056D  3465               	retlw	101	;'e'
   408  056E  3473               	retlw	115	;'s'
   409  056F  3465               	retlw	101	;'e'
   410  0570  3461               	retlw	97	;'a'
   411  0571  3420               	retlw	32	;' '
   412  0572  3472               	retlw	114	;'r'
   413  0573  3465               	retlw	101	;'e'
   414  0574  3461               	retlw	97	;'a'
   415  0575  346C               	retlw	108	;'l'
   416  0576  3469               	retlw	105	;'i'
   417  0577  347A               	retlw	122	;'z'
   418  0578  3461               	retlw	97	;'a'
   419  0579  3472               	retlw	114	;'r'
   420  057A  3420               	retlw	32	;' '
   421  057B  3470               	retlw	112	;'p'
   422  057C  3461               	retlw	97	;'a'
   423  057D  3472               	retlw	114	;'r'
   424  057E  3461               	retlw	97	;'a'
   425  057F  3420               	retlw	32	;' '
   426  0580  346D               	retlw	109	;'m'
   427  0581  346F               	retlw	111	;'o'
   428  0582  3476               	retlw	118	;'v'
   429  0583  3465               	retlw	101	;'e'
   430  0584  3472               	retlw	114	;'r'
   431  0585  3420               	retlw	32	;' '
   432  0586  3465               	retlw	101	;'e'
   433  0587  346C               	retlw	108	;'l'
   434  0588  3420               	retlw	32	;' '
   435  0589  3463               	retlw	99	;'c'
   436  058A  3461               	retlw	97	;'a'
   437  058B  3472               	retlw	114	;'r'
   438  058C  3472               	retlw	114	;'r'
   439  058D  346F               	retlw	111	;'o'
   440  058E  3400               	retlw	0
   441  058F                     STR_14:
   442  058F  3431               	retlw	49	;'1'
   443  0590  342E               	retlw	46	;'.'
   444  0591  3446               	retlw	70	;'F'
   445  0592  346F               	retlw	111	;'o'
   446  0593  3472               	retlw	114	;'r'
   447  0594  3477               	retlw	119	;'w'
   448  0595  3461               	retlw	97	;'a'
   449  0596  3472               	retlw	114	;'r'
   450  0597  3464               	retlw	100	;'d'
   451  0598  3420               	retlw	32	;' '
   452  0599  3432               	retlw	50	;'2'
   453  059A  342E               	retlw	46	;'.'
   454  059B  3446               	retlw	70	;'F'
   455  059C  346F               	retlw	111	;'o'
   456  059D  3472               	retlw	114	;'r'
   457  059E  3462               	retlw	98	;'b'
   458  059F  3461               	retlw	97	;'a'
   459  05A0  3463               	retlw	99	;'c'
   460  05A1  346B               	retlw	107	;'k'
   461  05A2  3420               	retlw	32	;' '
   462  05A3  3433               	retlw	51	;'3'
   463  05A4  342E               	retlw	46	;'.'
   464  05A5  3454               	retlw	84	;'T'
   465  05A6  3475               	retlw	117	;'u'
   466  05A7  3472               	retlw	114	;'r'
   467  05A8  346E               	retlw	110	;'n'
   468  05A9  3420               	retlw	32	;' '
   469  05AA  3472               	retlw	114	;'r'
   470  05AB  3469               	retlw	105	;'i'
   471  05AC  3467               	retlw	103	;'g'
   472  05AD  3474               	retlw	116	;'t'
   473  05AE  3468               	retlw	104	;'h'
   474  05AF  3420               	retlw	32	;' '
   475  05B0  3434               	retlw	52	;'4'
   476  05B1  342E               	retlw	46	;'.'
   477  05B2  3454               	retlw	84	;'T'
   478  05B3  3475               	retlw	117	;'u'
   479  05B4  3472               	retlw	114	;'r'
   480  05B5  346E               	retlw	110	;'n'
   481  05B6  3420               	retlw	32	;' '
   482  05B7  346C               	retlw	108	;'l'
   483  05B8  3465               	retlw	101	;'e'
   484  05B9  3466               	retlw	102	;'f'
   485  05BA  3474               	retlw	116	;'t'
   486  05BB  3420               	retlw	32	;' '
   487  05BC  3435               	retlw	53	;'5'
   488  05BD  342E               	retlw	46	;'.'
   489  05BE  3453               	retlw	83	;'S'
   490  05BF  3474               	retlw	116	;'t'
   491  05C0  346F               	retlw	111	;'o'
   492  05C1  3470               	retlw	112	;'p'
   493  05C2  3400               	retlw	0
   494  05C3                     STR_1:
   495  05C3  3449               	retlw	73	;'I'
   496  05C4  346E               	retlw	110	;'n'
   497  05C5  3467               	retlw	103	;'g'
   498  05C6  3472               	retlw	114	;'r'
   499  05C7  3465               	retlw	101	;'e'
   500  05C8  3473               	retlw	115	;'s'
   501  05C9  3465               	retlw	101	;'e'
   502  05CA  3420               	retlw	32	;' '
   503  05CB  3431               	retlw	49	;'1'
   504  05CC  3420               	retlw	32	;' '
   505  05CD  3473               	retlw	115	;'s'
   506  05CE  3469               	retlw	105	;'i'
   507  05CF  3420               	retlw	32	;' '
   508  05D0  3464               	retlw	100	;'d'
   509  05D1  3465               	retlw	101	;'e'
   510  05D2  3473               	retlw	115	;'s'
   511  05D3  3465               	retlw	101	;'e'
   512  05D4  3461               	retlw	97	;'a'
   513  05D5  3420               	retlw	32	;' '
   514  05D6  3469               	retlw	105	;'i'
   515  05D7  346E               	retlw	110	;'n'
   516  05D8  3467               	retlw	103	;'g'
   517  05D9  3472               	retlw	114	;'r'
   518  05DA  3465               	retlw	101	;'e'
   519  05DB  3473               	retlw	115	;'s'
   520  05DC  3461               	retlw	97	;'a'
   521  05DD  3472               	retlw	114	;'r'
   522  05DE  3420               	retlw	32	;' '
   523  05DF  3461               	retlw	97	;'a'
   524  05E0  3420               	retlw	32	;' '
   525  05E1  346D               	retlw	109	;'m'
   526  05E2  346F               	retlw	111	;'o'
   527  05E3  3464               	retlw	100	;'d'
   528  05E4  346F               	retlw	111	;'o'
   529  05E5  3420               	retlw	32	;' '
   530  05E6  3463               	retlw	99	;'c'
   531  05E7  346F               	retlw	111	;'o'
   532  05E8  346E               	retlw	110	;'n'
   533  05E9  3474               	retlw	116	;'t'
   534  05EA  3472               	retlw	114	;'r'
   535  05EB  346F               	retlw	111	;'o'
   536  05EC  346C               	retlw	108	;'l'
   537  05ED  3420               	retlw	32	;' '
   538  05EE  3455               	retlw	85	;'U'
   539  05EF  3453               	retlw	83	;'S'
   540  05F0  3441               	retlw	65	;'A'
   541  05F1  3452               	retlw	82	;'R'
   542  05F2  3454               	retlw	84	;'T'
   543  05F3  3400               	retlw	0
   544  05F4                     STR_10:
   545  05F4  3449               	retlw	73	;'I'
   546  05F5  346E               	retlw	110	;'n'
   547  05F6  3467               	retlw	103	;'g'
   548  05F7  3472               	retlw	114	;'r'
   549  05F8  3465               	retlw	101	;'e'
   550  05F9  3473               	retlw	115	;'s'
   551  05FA  3465               	retlw	101	;'e'
   552  05FB  343A               	retlw	58	;':'
   553  05FC  3420               	retlw	32	;' '
   554  05FD  3431               	retlw	49	;'1'
   555  05FE  342D               	retlw	45	;'-'
   556  05FF  342E               	retlw	46	;'.'
   557  0600  3430               	retlw	48	;'0'
   558  0601  3467               	retlw	103	;'g'
   559  0602  3472               	retlw	114	;'r'
   560  0603  3461               	retlw	97	;'a'
   561  0604  3464               	retlw	100	;'d'
   562  0605  346F               	retlw	111	;'o'
   563  0606  3473               	retlw	115	;'s'
   564  0607  3420               	retlw	32	;' '
   565  0608  3432               	retlw	50	;'2'
   566  0609  342D               	retlw	45	;'-'
   567  060A  342E               	retlw	46	;'.'
   568  060B  3439               	retlw	57	;'9'
   569  060C  3430               	retlw	48	;'0'
   570  060D  3467               	retlw	103	;'g'
   571  060E  3472               	retlw	114	;'r'
   572  060F  3461               	retlw	97	;'a'
   573  0610  3464               	retlw	100	;'d'
   574  0611  346F               	retlw	111	;'o'
   575  0612  3473               	retlw	115	;'s'
   576  0613  3420               	retlw	32	;' '
   577  0614  3433               	retlw	51	;'3'
   578  0615  342D               	retlw	45	;'-'
   579  0616  342E               	retlw	46	;'.'
   580  0617  3431               	retlw	49	;'1'
   581  0618  3438               	retlw	56	;'8'
   582  0619  3430               	retlw	48	;'0'
   583  061A  3467               	retlw	103	;'g'
   584  061B  3472               	retlw	114	;'r'
   585  061C  3461               	retlw	97	;'a'
   586  061D  3464               	retlw	100	;'d'
   587  061E  346F               	retlw	111	;'o'
   588  061F  3473               	retlw	115	;'s'
   589  0620  3400               	retlw	0
   590  0621                     STR_15:
   591  0621  3449               	retlw	73	;'I'
   592  0622  346E               	retlw	110	;'n'
   593  0623  3467               	retlw	103	;'g'
   594  0624  3472               	retlw	114	;'r'
   595  0625  3465               	retlw	101	;'e'
   596  0626  3473               	retlw	115	;'s'
   597  0627  3465               	retlw	101	;'e'
   598  0628  3420               	retlw	32	;' '
   599  0629  346C               	retlw	108	;'l'
   600  062A  3461               	retlw	97	;'a'
   601  062B  3420               	retlw	32	;' '
   602  062C  3461               	retlw	97	;'a'
   603  062D  3463               	retlw	99	;'c'
   604  062E  3463               	retlw	99	;'c'
   605  062F  3469               	retlw	105	;'i'
   606  0630  346F               	retlw	111	;'o'
   607  0631  346E               	retlw	110	;'n'
   608  0632  3420               	retlw	32	;' '
   609  0633  3461               	retlw	97	;'a'
   610  0634  3420               	retlw	32	;' '
   611  0635  3472               	retlw	114	;'r'
   612  0636  3465               	retlw	101	;'e'
   613  0637  3461               	retlw	97	;'a'
   614  0638  346C               	retlw	108	;'l'
   615  0639  3469               	retlw	105	;'i'
   616  063A  347A               	retlw	122	;'z'
   617  063B  3461               	retlw	97	;'a'
   618  063C  3472               	retlw	114	;'r'
   619  063D  3420               	retlw	32	;' '
   620  063E  3463               	retlw	99	;'c'
   621  063F  346F               	retlw	111	;'o'
   622  0640  346E               	retlw	110	;'n'
   623  0641  3420               	retlw	32	;' '
   624  0642  346C               	retlw	108	;'l'
   625  0643  346F               	retlw	111	;'o'
   626  0644  3473               	retlw	115	;'s'
   627  0645  3420               	retlw	32	;' '
   628  0646  346C               	retlw	108	;'l'
   629  0647  3465               	retlw	101	;'e'
   630  0648  3464               	retlw	100	;'d'
   631  0649  3473               	retlw	115	;'s'
   632  064A  3400               	retlw	0
   633  064B                     STR_11:
   634  064B  3445               	retlw	69	;'E'
   635  064C  346C               	retlw	108	;'l'
   636  064D  3469               	retlw	105	;'i'
   637  064E  346A               	retlw	106	;'j'
   638  064F  3461               	retlw	97	;'a'
   639  0650  3420               	retlw	32	;' '
   640  0651  346C               	retlw	108	;'l'
   641  0652  3461               	retlw	97	;'a'
   642  0653  3420               	retlw	32	;' '
   643  0654  3470               	retlw	112	;'p'
   644  0655  346F               	retlw	111	;'o'
   645  0656  3473               	retlw	115	;'s'
   646  0657  3469               	retlw	105	;'i'
   647  0658  3463               	retlw	99	;'c'
   648  0659  3469               	retlw	105	;'i'
   649  065A  346F               	retlw	111	;'o'
   650  065B  346E               	retlw	110	;'n'
   651  065C  3420               	retlw	32	;' '
   652  065D  3464               	retlw	100	;'d'
   653  065E  3465               	retlw	101	;'e'
   654  065F  346C               	retlw	108	;'l'
   655  0660  3420               	retlw	32	;' '
   656  0661  3473               	retlw	115	;'s'
   657  0662  3465               	retlw	101	;'e'
   658  0663  3472               	retlw	114	;'r'
   659  0664  3476               	retlw	118	;'v'
   660  0665  346F               	retlw	111	;'o'
   661  0666  3420               	retlw	32	;' '
   662  0667  3432               	retlw	50	;'2'
   663  0668  3420               	retlw	32	;' '
   664  0669  3428               	retlw	40	;'('
   665  066A  3461               	retlw	97	;'a'
   666  066B  3472               	retlw	114	;'r'
   667  066C  3472               	retlw	114	;'r'
   668  066D  3469               	retlw	105	;'i'
   669  066E  3462               	retlw	98	;'b'
   670  066F  3461               	retlw	97	;'a'
   671  0670  3429               	retlw	41	;')'
   672  0671  3400               	retlw	0
   673  0672                     STR_9:
   674  0672  3445               	retlw	69	;'E'
   675  0673  346C               	retlw	108	;'l'
   676  0674  3469               	retlw	105	;'i'
   677  0675  346A               	retlw	106	;'j'
   678  0676  3461               	retlw	97	;'a'
   679  0677  3420               	retlw	32	;' '
   680  0678  346C               	retlw	108	;'l'
   681  0679  3461               	retlw	97	;'a'
   682  067A  3420               	retlw	32	;' '
   683  067B  3470               	retlw	112	;'p'
   684  067C  346F               	retlw	111	;'o'
   685  067D  3473               	retlw	115	;'s'
   686  067E  3469               	retlw	105	;'i'
   687  067F  3463               	retlw	99	;'c'
   688  0680  3469               	retlw	105	;'i'
   689  0681  346F               	retlw	111	;'o'
   690  0682  346E               	retlw	110	;'n'
   691  0683  3420               	retlw	32	;' '
   692  0684  3464               	retlw	100	;'d'
   693  0685  3465               	retlw	101	;'e'
   694  0686  346C               	retlw	108	;'l'
   695  0687  3420               	retlw	32	;' '
   696  0688  3473               	retlw	115	;'s'
   697  0689  3465               	retlw	101	;'e'
   698  068A  3472               	retlw	114	;'r'
   699  068B  3476               	retlw	118	;'v'
   700  068C  346F               	retlw	111	;'o'
   701  068D  3420               	retlw	32	;' '
   702  068E  3431               	retlw	49	;'1'
   703  068F  3420               	retlw	32	;' '
   704  0690  3428               	retlw	40	;'('
   705  0691  3461               	retlw	97	;'a'
   706  0692  3462               	retlw	98	;'b'
   707  0693  3461               	retlw	97	;'a'
   708  0694  346A               	retlw	106	;'j'
   709  0695  346F               	retlw	111	;'o'
   710  0696  3429               	retlw	41	;')'
   711  0697  3400               	retlw	0
   712  0698                     STR_17:
   713  0698  3445               	retlw	69	;'E'
   714  0699  346C               	retlw	108	;'l'
   715  069A  3420               	retlw	32	;' '
   716  069B  3476               	retlw	118	;'v'
   717  069C  3461               	retlw	97	;'a'
   718  069D  346C               	retlw	108	;'l'
   719  069E  346F               	retlw	111	;'o'
   720  069F  3472               	retlw	114	;'r'
   721  06A0  3420               	retlw	32	;' '
   722  06A1  3465               	retlw	101	;'e'
   723  06A2  346E               	retlw	110	;'n'
   724  06A3  3420               	retlw	32	;' '
   725  06A4  3464               	retlw	100	;'d'
   726  06A5  3465               	retlw	101	;'e'
   727  06A6  3463               	retlw	99	;'c'
   728  06A7  3469               	retlw	105	;'i'
   729  06A8  346D               	retlw	109	;'m'
   730  06A9  3461               	retlw	97	;'a'
   731  06AA  346C               	retlw	108	;'l'
   732  06AB  3420               	retlw	32	;' '
   733  06AC  3464               	retlw	100	;'d'
   734  06AD  3465               	retlw	101	;'e'
   735  06AE  346C               	retlw	108	;'l'
   736  06AF  3420               	retlw	32	;' '
   737  06B0  3470               	retlw	112	;'p'
   738  06B1  346F               	retlw	111	;'o'
   739  06B2  3474               	retlw	116	;'t'
   740  06B3  3420               	retlw	32	;' '
   741  06B4  3465               	retlw	101	;'e'
   742  06B5  3473               	retlw	115	;'s'
   743  06B6  343A               	retlw	58	;':'
   744  06B7  3400               	retlw	0
   745  06B8                     STR_8:
   746  06B8  3428               	retlw	40	;'('
   747  06B9  3435               	retlw	53	;'5'
   748  06BA  3429               	retlw	41	;')'
   749  06BB  3453               	retlw	83	;'S'
   750  06BC  3461               	retlw	97	;'a'
   751  06BD  346C               	retlw	108	;'l'
   752  06BE  3469               	retlw	105	;'i'
   753  06BF  3472               	retlw	114	;'r'
   754  06C0  3420               	retlw	32	;' '
   755  06C1  3464               	retlw	100	;'d'
   756  06C2  3465               	retlw	101	;'e'
   757  06C3  3420               	retlw	32	;' '
   758  06C4  3463               	retlw	99	;'c'
   759  06C5  346F               	retlw	111	;'o'
   760  06C6  346E               	retlw	110	;'n'
   761  06C7  3474               	retlw	116	;'t'
   762  06C8  3472               	retlw	114	;'r'
   763  06C9  346F               	retlw	111	;'o'
   764  06CA  346C               	retlw	108	;'l'
   765  06CB  3420               	retlw	32	;' '
   766  06CC  3470               	retlw	112	;'p'
   767  06CD  346F               	retlw	111	;'o'
   768  06CE  3472               	retlw	114	;'r'
   769  06CF  3420               	retlw	32	;' '
   770  06D0  3455               	retlw	85	;'U'
   771  06D1  3453               	retlw	83	;'S'
   772  06D2  3441               	retlw	65	;'A'
   773  06D3  3452               	retlw	82	;'R'
   774  06D4  3454               	retlw	84	;'T'
   775  06D5  3400               	retlw	0
   776  06D6                     STR_2:
   777  06D6  3442               	retlw	66	;'B'
   778  06D7  3469               	retlw	105	;'i'
   779  06D8  3465               	retlw	101	;'e'
   780  06D9  346E               	retlw	110	;'n'
   781  06DA  3476               	retlw	118	;'v'
   782  06DB  3465               	retlw	101	;'e'
   783  06DC  346E               	retlw	110	;'n'
   784  06DD  3469               	retlw	105	;'i'
   785  06DE  3464               	retlw	100	;'d'
   786  06DF  346F               	retlw	111	;'o'
   787  06E0  3420               	retlw	32	;' '
   788  06E1  3461               	retlw	97	;'a'
   789  06E2  3420               	retlw	32	;' '
   790  06E3  346E               	retlw	110	;'n'
   791  06E4  3475               	retlw	117	;'u'
   792  06E5  3465               	retlw	101	;'e'
   793  06E6  3473               	retlw	115	;'s'
   794  06E7  3474               	retlw	116	;'t'
   795  06E8  3472               	retlw	114	;'r'
   796  06E9  346F               	retlw	111	;'o'
   797  06EA  3420               	retlw	32	;' '
   798  06EB  3470               	retlw	112	;'p'
   799  06EC  3472               	retlw	114	;'r'
   800  06ED  346F               	retlw	111	;'o'
   801  06EE  3467               	retlw	103	;'g'
   802  06EF  3472               	retlw	114	;'r'
   803  06F0  3461               	retlw	97	;'a'
   804  06F1  346D               	retlw	109	;'m'
   805  06F2  3461               	retlw	97	;'a'
   806  06F3  3400               	retlw	0
   807  06F4                     STR_3:
   808  06F4  3451               	retlw	81	;'Q'
   809  06F5  3475               	retlw	117	;'u'
   810  06F6  3465               	retlw	101	;'e'
   811  06F7  3420               	retlw	32	;' '
   812  06F8  3461               	retlw	97	;'a'
   813  06F9  3463               	retlw	99	;'c'
   814  06FA  3463               	retlw	99	;'c'
   815  06FB  3469               	retlw	105	;'i'
   816  06FC  346F               	retlw	111	;'o'
   817  06FD  346E               	retlw	110	;'n'
   818  06FE  3420               	retlw	32	;' '
   819  06FF  3464               	retlw	100	;'d'
   820  0700  3465               	retlw	101	;'e'
   821  0701  3473               	retlw	115	;'s'
   822  0702  3465               	retlw	101	;'e'
   823  0703  3461               	retlw	97	;'a'
   824  0704  3420               	retlw	32	;' '
   825  0705  3465               	retlw	101	;'e'
   826  0706  346A               	retlw	106	;'j'
   827  0707  3465               	retlw	101	;'e'
   828  0708  3463               	retlw	99	;'c'
   829  0709  3475               	retlw	117	;'u'
   830  070A  3474               	retlw	116	;'t'
   831  070B  3461               	retlw	97	;'a'
   832  070C  3472               	retlw	114	;'r'
   833  070D  343F               	retlw	63	;'?'
   834  070E  3400               	retlw	0
   835  070F                     STR_7:
   836  070F  3428               	retlw	40	;'('
   837  0710  3434               	retlw	52	;'4'
   838  0711  3429               	retlw	41	;')'
   839  0712  344D               	retlw	77	;'M'
   840  0713  346F               	retlw	111	;'o'
   841  0714  3473               	retlw	115	;'s'
   842  0715  3474               	retlw	116	;'t'
   843  0716  3472               	retlw	114	;'r'
   844  0717  3461               	retlw	97	;'a'
   845  0718  3472               	retlw	114	;'r'
   846  0719  3420               	retlw	32	;' '
   847  071A  3470               	retlw	112	;'p'
   848  071B  346F               	retlw	111	;'o'
   849  071C  3474               	retlw	116	;'t'
   850  071D  3465               	retlw	101	;'e'
   851  071E  346E               	retlw	110	;'n'
   852  071F  3463               	retlw	99	;'c'
   853  0720  3469               	retlw	105	;'i'
   854  0721  346F               	retlw	111	;'o'
   855  0722  346D               	retlw	109	;'m'
   856  0723  3465               	retlw	101	;'e'
   857  0724  3474               	retlw	116	;'t'
   858  0725  3472               	retlw	114	;'r'
   859  0726  346F               	retlw	111	;'o'
   860  0727  3400               	retlw	0
   861  0728                     STR_5:
   862  0728  3428               	retlw	40	;'('
   863  0729  3432               	retlw	50	;'2'
   864  072A  3429               	retlw	41	;')'
   865  072B  3443               	retlw	67	;'C'
   866  072C  346F               	retlw	111	;'o'
   867  072D  346E               	retlw	110	;'n'
   868  072E  3474               	retlw	116	;'t'
   869  072F  3472               	retlw	114	;'r'
   870  0730  346F               	retlw	111	;'o'
   871  0731  346C               	retlw	108	;'l'
   872  0732  3461               	retlw	97	;'a'
   873  0733  3472               	retlw	114	;'r'
   874  0734  3420               	retlw	32	;' '
   875  0735  3443               	retlw	67	;'C'
   876  0736  3461               	retlw	97	;'a'
   877  0737  3472               	retlw	114	;'r'
   878  0738  3472               	retlw	114	;'r'
   879  0739  346F               	retlw	111	;'o'
   880  073A  3400               	retlw	0
   881  073B                     STR_4:
   882  073B  3428               	retlw	40	;'('
   883  073C  3431               	retlw	49	;'1'
   884  073D  3429               	retlw	41	;')'
   885  073E  3443               	retlw	67	;'C'
   886  073F  346F               	retlw	111	;'o'
   887  0740  346E               	retlw	110	;'n'
   888  0741  3474               	retlw	116	;'t'
   889  0742  3472               	retlw	114	;'r'
   890  0743  346F               	retlw	111	;'o'
   891  0744  346C               	retlw	108	;'l'
   892  0745  3461               	retlw	97	;'a'
   893  0746  3472               	retlw	114	;'r'
   894  0747  3420               	retlw	32	;' '
   895  0748  3442               	retlw	66	;'B'
   896  0749  3472               	retlw	114	;'r'
   897  074A  3461               	retlw	97	;'a'
   898  074B  347A               	retlw	122	;'z'
   899  074C  346F               	retlw	111	;'o'
   900  074D  3400               	retlw	0
   901  074E                     STR_6:
   902  074E  3428               	retlw	40	;'('
   903  074F  3433               	retlw	51	;'3'
   904  0750  3429               	retlw	41	;')'
   905  0751  3443               	retlw	67	;'C'
   906  0752  346F               	retlw	111	;'o'
   907  0753  346E               	retlw	110	;'n'
   908  0754  3474               	retlw	116	;'t'
   909  0755  3472               	retlw	114	;'r'
   910  0756  346F               	retlw	111	;'o'
   911  0757  346C               	retlw	108	;'l'
   912  0758  3461               	retlw	97	;'a'
   913  0759  3472               	retlw	114	;'r'
   914  075A  3420               	retlw	32	;' '
   915  075B  344C               	retlw	76	;'L'
   916  075C  3445               	retlw	69	;'E'
   917  075D  3444               	retlw	68	;'D'
   918  075E  3473               	retlw	115	;'s'
   919  075F  3400               	retlw	0
   920  05C3                     
   921                           	psect	cinit
   922  000F                     start_initialization:	
   923                           ; #config settings
   924                           
   925  000F                     __initialization:
   926                           
   927                           ; Initialize objects allocated to BANK0
   928  000F  120A  158A  24A4  120A  118A  	fcall	__pidataBANK0	;fetch initializer
   929  0014  00D0               	movwf	__pdataBANK0& (0+127)
   930  0015  120A  158A  24A5  120A  118A  	fcall	__pidataBANK0+1	;fetch initializer
   931  001A  00D1               	movwf	(__pdataBANK0+1)& (0+127)
   932  001B  120A  158A  24A6  120A  118A  	fcall	__pidataBANK0+2	;fetch initializer
   933  0020  00D2               	movwf	(__pdataBANK0+2)& (0+127)
   934  0021  120A  158A  24A7  120A  118A  	fcall	__pidataBANK0+3	;fetch initializer
   935  0026  00D3               	movwf	(__pdataBANK0+3)& (0+127)
   936                           
   937                           ; Initialize objects allocated to COMMON
   938  0027  120A  118A  27FF  120A  118A  	fcall	__pidataCOMMON	;fetch initializer
   939  002C  00FD               	movwf	__pdataCOMMON& (0+127)
   940                           
   941                           ; Clear objects allocated to BANK0
   942  002D  1383               	bcf	3,7	;select IRP bank0
   943  002E  3020               	movlw	low __pbssBANK0
   944  002F  0084               	movwf	4
   945  0030  3040               	movlw	low (__pbssBANK0+32)
   946  0031  120A  118A  27F7  120A  118A  	fcall	clear_ram0
   947  0036                     end_of_initialization:	
   948                           ;End of C runtime variable initialization code
   949                           
   950  0036                     __end_of__initialization:
   951  0036  0183               	clrf	3
   952  0037  120A  118A  283A   	ljmp	_main	;jump to C main() function
   953                           
   954                           	psect	dataCOMMON
   955  007D                     __pdataCOMMON:
   956  007D                     _leer:
   957  007D                     	ds	1
   958                           
   959                           	psect	bssBANK0
   960  0020                     __pbssBANK0:
   961  0020                     _texto:
   962  0020                     	ds	11
   963  002B                     _parpadear:
   964  002B                     	ds	2
   965  002D                     _eepromVal:
   966  002D                     	ds	2
   967  002F                     _RB3_old:
   968  002F                     	ds	2
   969  0031                     _valor_unidades:
   970  0031                     	ds	2
   971  0033                     _valor_decenas:
   972  0033                     	ds	2
   973  0035                     _valor_centenas:
   974  0035                     	ds	2
   975  0037                     _var_temp:
   976  0037                     	ds	2
   977  0039                     _valor_pot:
   978  0039                     	ds	2
   979  003B                     _flag2:
   980  003B                     	ds	2
   981  003D                     _temporal_posicion2:
   982  003D                     	ds	1
   983  003E                     _temporal_posicion1:
   984  003E                     	ds	1
   985  003F                     _opcion:
   986  003F                     	ds	1
   987                           
   988                           	psect	dataBANK0
   989  0050                     __pdataBANK0:
   990  0050                     _addressEEPROM:
   991  0050                     	ds	2
   992  0052                     _flag:
   993  0052                     	ds	2
   994                           
   995                           	psect	clrtext
   996  07F7                     clear_ram0:	
   997                           ;	Called with FSR containing the base address, and
   998                           ;	W with the last address+1
   999                           
  1000  07F7  0064               	clrwdt	;clear the watchdog before getting into this loop
  1001  07F8                     clrloop0:
  1002  07F8  0180               	clrf	0	;clear RAM location pointed to by FSR
  1003  07F9  0A84               	incf	4,f	;increment pointer
  1004  07FA  0604               	xorwf	4,w	;XOR with final address
  1005  07FB  1903               	btfsc	3,2	;have we reached the end yet?
  1006  07FC  3400               	retlw	0	;all done for this memory range, return
  1007  07FD  0604               	xorwf	4,w	;XOR again to restore value
  1008  07FE  2FF8               	goto	clrloop0	;do the next byte
  1009                           
  1010                           	psect	cstackCOMMON
  1011  0070                     __pcstackCOMMON:
  1012  0070                     ?_setup:
  1013  0070                     ?_config_reloj:	
  1014                           ; 1 bytes @ 0x0
  1015                           
  1016  0070                     ?_config_io:	
  1017                           ; 1 bytes @ 0x0
  1018                           
  1019  0070                     ?_config_int_enable:	
  1020                           ; 1 bytes @ 0x0
  1021                           
  1022  0070                     ?_config_iocb:	
  1023                           ; 1 bytes @ 0x0
  1024                           
  1025  0070                     ?_IOCB_interrupt:	
  1026                           ; 1 bytes @ 0x0
  1027                           
  1028  0070                     ?_main:	
  1029                           ; 1 bytes @ 0x0
  1030                           
  1031  0070                     ?_isr:	
  1032                           ; 1 bytes @ 0x0
  1033                           
  1034  0070                     ?_readFromEEPROM:	
  1035                           ; 1 bytes @ 0x0
  1036                           
  1037  0070                     readFromEEPROM@address:	
  1038                           ; 2 bytes @ 0x0
  1039                           
  1040                           
  1041                           ; 2 bytes @ 0x0
  1042  0070                     	ds	2
  1043  0072                     ??_readFromEEPROM:
  1044                           
  1045                           ; 1 bytes @ 0x2
  1046  0072                     	ds	2
  1047  0074                     readFromEEPROM@data:
  1048                           
  1049                           ; 2 bytes @ 0x4
  1050  0074                     	ds	2
  1051  0076                     ??_IOCB_interrupt:
  1052                           
  1053                           ; 1 bytes @ 0x6
  1054  0076                     	ds	3
  1055  0079                     ??_isr:
  1056                           
  1057                           ; 1 bytes @ 0x9
  1058  0079                     	ds	4
  1059                           
  1060                           	psect	cstackBANK0
  1061  0040                     __pcstackBANK0:
  1062  0040                     ?_writeToEEPROM:
  1063  0040                     ??_config_reloj:	
  1064                           ; 1 bytes @ 0x0
  1065                           
  1066  0040                     ??_config_io:	
  1067                           ; 1 bytes @ 0x0
  1068                           
  1069  0040                     ??_config_int_enable:	
  1070                           ; 1 bytes @ 0x0
  1071                           
  1072  0040                     ??_config_iocb:	
  1073                           ; 1 bytes @ 0x0
  1074                           
  1075  0040                     ?_dec_to_ascii:	
  1076                           ; 1 bytes @ 0x0
  1077                           
  1078  0040                     ?_strlen:	
  1079                           ; 2 bytes @ 0x0
  1080                           
  1081  0040                     ?___wmul:	
  1082                           ; 2 bytes @ 0x0
  1083                           
  1084  0040                     ?___awdiv:	
  1085                           ; 2 bytes @ 0x0
  1086                           
  1087  0040                     dec_to_ascii@val:	
  1088                           ; 2 bytes @ 0x0
  1089                           
  1090  0040                     writeToEEPROM@data:	
  1091                           ; 2 bytes @ 0x0
  1092                           
  1093  0040                     ___wmul@multiplier:	
  1094                           ; 2 bytes @ 0x0
  1095                           
  1096  0040                     ___awdiv@divisor:	
  1097                           ; 2 bytes @ 0x0
  1098                           
  1099  0040                     strlen@s:	
  1100                           ; 2 bytes @ 0x0
  1101                           
  1102                           
  1103                           ; 2 bytes @ 0x0
  1104  0040                     	ds	1
  1105  0041                     ??_setup:
  1106                           
  1107                           ; 1 bytes @ 0x1
  1108  0041                     	ds	1
  1109  0042                     ??_dec_to_ascii:
  1110  0042                     ??_strlen:	
  1111                           ; 1 bytes @ 0x2
  1112                           
  1113  0042                     writeToEEPROM@address:	
  1114                           ; 1 bytes @ 0x2
  1115                           
  1116  0042                     ___wmul@multiplicand:	
  1117                           ; 2 bytes @ 0x2
  1118                           
  1119  0042                     ___awdiv@dividend:	
  1120                           ; 2 bytes @ 0x2
  1121                           
  1122  0042                     strlen@cp:	
  1123                           ; 2 bytes @ 0x2
  1124                           
  1125                           
  1126                           ; 2 bytes @ 0x2
  1127  0042                     	ds	2
  1128  0044                     ?_showString:
  1129  0044                     ??_writeToEEPROM:	
  1130                           ; 1 bytes @ 0x4
  1131                           
  1132  0044                     ??___wmul:	
  1133                           ; 1 bytes @ 0x4
  1134                           
  1135  0044                     ??___awdiv:	
  1136                           ; 1 bytes @ 0x4
  1137                           
  1138  0044                     showString@var:	
  1139                           ; 1 bytes @ 0x4
  1140                           
  1141  0044                     ___wmul@product:	
  1142                           ; 2 bytes @ 0x4
  1143                           
  1144                           
  1145                           ; 2 bytes @ 0x4
  1146  0044                     	ds	1
  1147  0045                     ___awdiv@counter:
  1148                           
  1149                           ; 1 bytes @ 0x5
  1150  0045                     	ds	1
  1151  0046                     ??_showString:
  1152  0046                     ___awdiv@sign:	
  1153                           ; 1 bytes @ 0x6
  1154                           
  1155                           
  1156                           ; 1 bytes @ 0x6
  1157  0046                     	ds	1
  1158  0047                     ___awdiv@quotient:
  1159                           
  1160                           ; 2 bytes @ 0x7
  1161  0047                     	ds	2
  1162  0049                     showString@i:
  1163                           
  1164                           ; 2 bytes @ 0x9
  1165  0049                     	ds	2
  1166  004B                     ??_main:
  1167                           
  1168                           ; 1 bytes @ 0xB
  1169  004B                     	ds	3
  1170  004E                     main@i:
  1171                           
  1172                           ; 2 bytes @ 0xE
  1173  004E                     	ds	2
  1174                           
  1175                           	psect	maintext
  1176  003A                     __pmaintext:	
  1177 ;;
  1178 ;;Main: autosize = 0, tempsize = 3, incstack = 0, save=0
  1179 ;;
  1180 ;; *************** function _main *****************
  1181 ;; Defined at:
  1182 ;;		line 99 in file "proyecto_final.c"
  1183 ;; Parameters:    Size  Location     Type
  1184 ;;		None
  1185 ;; Auto vars:     Size  Location     Type
  1186 ;;  i               2   14[BANK0 ] int 
  1187 ;; Return value:  Size  Location     Type
  1188 ;;                  1    wreg      void 
  1189 ;; Registers used:
  1190 ;;		wreg, fsr0l, fsr0h, status,2, status,0, btemp+1, pclath, cstack
  1191 ;; Tracked objects:
  1192 ;;		On entry : B00/0
  1193 ;;		On exit  : 0/0
  1194 ;;		Unchanged: 0/0
  1195 ;; Data sizes:     COMMON   BANK0   BANK1   BANK3   BANK2
  1196 ;;      Params:         0       0       0       0       0
  1197 ;;      Locals:         0       2       0       0       0
  1198 ;;      Temps:          0       3       0       0       0
  1199 ;;      Totals:         0       5       0       0       0
  1200 ;;Total ram usage:        5 bytes
  1201 ;; Hardware stack levels required when called:    5
  1202 ;; This function calls:
  1203 ;;		___awdiv
  1204 ;;		___wmul
  1205 ;;		_dec_to_ascii
  1206 ;;		_setup
  1207 ;;		_showString
  1208 ;;		_writeToEEPROM
  1209 ;; This function is called by:
  1210 ;;		Startup code after reset
  1211 ;; This function uses a non-reentrant model
  1212 ;;
  1213                           
  1214                           
  1215                           ;psect for function _main
  1216  003A                     _main:
  1217  003A                     l1922:	
  1218                           ;incstack = 0
  1219                           ; Regs used in _main: [wreg-fsr0h+status,2+status,0+btemp+1+pclath+cstack]
  1220                           
  1221                           
  1222                           ;proyecto_final.c: 101:                             while(!opcion){
  1223  003A  120A  158A  24BF  120A  118A  	fcall	_setup
  1224  003F                     l1924:
  1225                           
  1226                           ;proyecto_final.c: 107:                                 CCPR1L = (PORTD>>1) + 128;
  1227  003F  1283               	bcf	3,5	;RP0=0, select bank0
  1228  0040  1303               	bcf	3,6	;RP1=0, select bank0
  1229  0041  149F               	bsf	31,1	;volatile
  1230  0042                     l1926:
  1231                           
  1232                           ;proyecto_final.c: 109:                                 CCP1CONbits.DC1B0 = ADRESL>>7;;p
      +                          royecto_final.c: 113:                                 CCPR1L = (PORTD>>1) + 128;
  1233  0042  189F               	btfsc	31,1	;volatile
  1234  0043  2845               	goto	u1631
  1235  0044  2846               	goto	u1630
  1236  0045                     u1631:
  1237  0045  2879               	goto	l1944
  1238  0046                     u1630:
  1239  0046                     l1928:
  1240                           
  1241                           ;proyecto_final.c: 114:                                 CCP1CONbits.DC1B1 = PORTDbits.RD
      +                          0;
  1242  0046  0C1F               	rrf	31,w	;volatile
  1243  0047  00CB               	movwf	??_main
  1244  0048  0C4B               	rrf	??_main,w
  1245  0049  390F               	andlw	15
  1246  004A  3A05               	xorlw	5
  1247  004B  1D03               	skipz
  1248  004C  284E               	goto	u1641
  1249  004D  284F               	goto	u1640
  1250  004E                     u1641:
  1251  004E  2854               	goto	l1932
  1252  004F                     u1640:
  1253  004F                     l1930:
  1254                           
  1255                           ;proyecto_final.c: 115:                                 CCP1CONbits.DC1B0 = ADRESL>>7;
  1256  004F  081F               	movf	31,w	;volatile
  1257  0050  39C3               	andlw	-61
  1258  0051  3818               	iorlw	24
  1259  0052  009F               	movwf	31	;volatile
  1260  0053  286F               	goto	l1940
  1261  0054                     l1932:
  1262  0054  0C1F               	rrf	31,w	;volatile
  1263  0055  00CB               	movwf	??_main
  1264  0056  0C4B               	rrf	??_main,w
  1265  0057  390F               	andlw	15
  1266  0058  3A06               	xorlw	6
  1267  0059  1D03               	skipz
  1268  005A  285C               	goto	u1651
  1269  005B  285D               	goto	u1650
  1270  005C                     u1651:
  1271  005C  2862               	goto	l1936
  1272  005D                     u1650:
  1273  005D                     l1934:
  1274                           
  1275                           ;proyecto_final.c: 117:                             if(opcion==51){
  1276  005D  081F               	movf	31,w	;volatile
  1277  005E  39C3               	andlw	-61
  1278  005F  3814               	iorlw	20
  1279  0060  009F               	movwf	31	;volatile
  1280  0061  286F               	goto	l1940
  1281  0062                     l1936:
  1282  0062  0C1F               	rrf	31,w	;volatile
  1283  0063  00CB               	movwf	??_main
  1284  0064  0C4B               	rrf	??_main,w
  1285  0065  390F               	andlw	15
  1286  0066  3A07               	xorlw	7
  1287  0067  1D03               	skipz
  1288  0068  286A               	goto	u1661
  1289  0069  286B               	goto	u1660
  1290  006A                     u1661:
  1291  006A  286F               	goto	l1940
  1292  006B                     u1660:
  1293  006B                     l1938:
  1294                           
  1295                           ;proyecto_final.c: 119:                                 CCPR1L = (PORTD>>1) + 120;
  1296  006B  081F               	movf	31,w	;volatile
  1297  006C  39C3               	andlw	-61
  1298  006D  3814               	iorlw	20
  1299  006E  009F               	movwf	31	;volatile
  1300  006F                     l1940:
  1301                           
  1302                           ;proyecto_final.c: 120:                                 CCP1CONbits.DC1B1 = PORTDbits.RD
      +                          0;
  1303  006F  3020               	movlw	32
  1304  0070  1283               	bcf	3,5	;RP0=0, select bank0
  1305  0071  1303               	bcf	3,6	;RP1=0, select bank0
  1306  0072  00CB               	movwf	??_main
  1307  0073                     u2357:
  1308  0073  0BCB               	decfsz	??_main,f
  1309  0074  2873               	goto	u2357
  1310  0075  0000               	nop
  1311  0076                     l1942:
  1312                           
  1313                           ;proyecto_final.c: 121:                                 CCP1CONbits.DC1B0 = ADRESL>>7;
  1314  0076  1283               	bcf	3,5	;RP0=0, select bank0
  1315  0077  1303               	bcf	3,6	;RP1=0, select bank0
  1316  0078  149F               	bsf	31,1	;volatile
  1317  0079                     l1944:
  1318                           
  1319                           ;proyecto_final.c: 129: 
  1320  0079  1E0C               	btfss	12,4	;volatile
  1321  007A  287C               	goto	u1671
  1322  007B  287D               	goto	u1670
  1323  007C                     u1671:
  1324  007C  2C67               	goto	l2188
  1325  007D                     u1670:
  1326  007D                     l1946:
  1327                           
  1328                           ;proyecto_final.c: 131: 
  1329  007D  0852               	movf	_flag,w
  1330  007E  0453               	iorwf	_flag+1,w
  1331  007F  1903               	btfsc	3,2
  1332  0080  2882               	goto	u1681
  1333  0081  2883               	goto	u1680
  1334  0082                     u1681:
  1335  0082  2890               	goto	l1952
  1336  0083                     u1680:
  1337  0083                     l1948:
  1338                           
  1339                           ;proyecto_final.c: 132:                             }
  1340  0083  30C3               	movlw	low (STR_1| (0+32768))
  1341  0084  00C4               	movwf	showString@var
  1342  0085  3085               	movlw	high (STR_1| (0+32768))
  1343  0086  00C5               	movwf	showString@var+1
  1344  0087  120A  158A  2535  120A  118A  	fcall	_showString
  1345  008C                     l1950:
  1346                           
  1347                           ;proyecto_final.c: 133: 
  1348  008C  1283               	bcf	3,5	;RP0=0, select bank0
  1349  008D  1303               	bcf	3,6	;RP1=0, select bank0
  1350  008E  01D2               	clrf	_flag
  1351  008F  01D3               	clrf	_flag+1
  1352  0090                     l1952:
  1353                           
  1354                           ;proyecto_final.c: 136:                                 CCPR2L = (PORTD>>1) + 128;
  1355  0090  3031               	movlw	49
  1356  0091  063F               	xorwf	_opcion,w
  1357  0092  1D03               	btfss	3,2
  1358  0093  2895               	goto	u1691
  1359  0094  2896               	goto	u1690
  1360  0095                     u1691:
  1361  0095  2C67               	goto	l2188
  1362  0096                     u1690:
  1363  0096                     l1954:
  1364                           
  1365                           ;proyecto_final.c: 137:                                 CCP2CONbits.DC2B1 = PORTDbits.RD
      +                          0;
  1366  0096  3001               	movlw	1
  1367  0097  00D2               	movwf	_flag
  1368  0098  3000               	movlw	0
  1369  0099  00D3               	movwf	_flag+1
  1370  009A                     l1956:
  1371                           
  1372                           ;proyecto_final.c: 138:                                 CCP2CONbits.DC2B0 = ADRESL>>7;
  1373  009A  01BF               	clrf	_opcion
  1374                           
  1375                           ;proyecto_final.c: 139:                             }
  1376  009B  2C4E               	goto	l2180
  1377  009C                     l1958:
  1378                           
  1379                           ;proyecto_final.c: 141:                                 PORTD = (128);
  1380  009C  0852               	movf	_flag,w
  1381  009D  0453               	iorwf	_flag+1,w
  1382  009E  1903               	btfsc	3,2
  1383  009F  28A1               	goto	u1701
  1384  00A0  28A2               	goto	u1700
  1385  00A1                     u1701:
  1386  00A1  28F1               	goto	l1964
  1387  00A2                     u1700:
  1388  00A2                     l1960:
  1389                           
  1390                           ;proyecto_final.c: 142:                                 CCPR2L = (PORTD>>1) + 128;
  1391  00A2  30D6               	movlw	low (STR_2| (0+32768))
  1392  00A3  00C4               	movwf	showString@var
  1393  00A4  3086               	movlw	high (STR_2| (0+32768))
  1394  00A5  00C5               	movwf	showString@var+1
  1395  00A6  120A  158A  2535  120A  118A  	fcall	_showString
  1396                           
  1397                           ;proyecto_final.c: 143:                                 CCP2CONbits.DC2B1 = PORTDbits.RD
      +                          0;
  1398  00AB  30F4               	movlw	low (STR_3| (0+32768))
  1399  00AC  1283               	bcf	3,5	;RP0=0, select bank0
  1400  00AD  1303               	bcf	3,6	;RP1=0, select bank0
  1401  00AE  00C4               	movwf	showString@var
  1402  00AF  3086               	movlw	high (STR_3| (0+32768))
  1403  00B0  00C5               	movwf	showString@var+1
  1404  00B1  120A  158A  2535  120A  118A  	fcall	_showString
  1405                           
  1406                           ;proyecto_final.c: 144:                                 CCP2CONbits.DC2B0 = ADRESL>>7;
  1407  00B6  303B               	movlw	low (STR_4| (0+32768))
  1408  00B7  1283               	bcf	3,5	;RP0=0, select bank0
  1409  00B8  1303               	bcf	3,6	;RP1=0, select bank0
  1410  00B9  00C4               	movwf	showString@var
  1411  00BA  3087               	movlw	high (STR_4| (0+32768))
  1412  00BB  00C5               	movwf	showString@var+1
  1413  00BC  120A  158A  2535  120A  118A  	fcall	_showString
  1414                           
  1415                           ;proyecto_final.c: 145:                             }
  1416  00C1  3028               	movlw	low (STR_5| (0+32768))
  1417  00C2  1283               	bcf	3,5	;RP0=0, select bank0
  1418  00C3  1303               	bcf	3,6	;RP1=0, select bank0
  1419  00C4  00C4               	movwf	showString@var
  1420  00C5  3087               	movlw	high (STR_5| (0+32768))
  1421  00C6  00C5               	movwf	showString@var+1
  1422  00C7  120A  158A  2535  120A  118A  	fcall	_showString
  1423                           
  1424                           ;proyecto_final.c: 146:                             if(opcion==51){
  1425  00CC  304E               	movlw	low (STR_6| (0+32768))
  1426  00CD  1283               	bcf	3,5	;RP0=0, select bank0
  1427  00CE  1303               	bcf	3,6	;RP1=0, select bank0
  1428  00CF  00C4               	movwf	showString@var
  1429  00D0  3087               	movlw	high (STR_6| (0+32768))
  1430  00D1  00C5               	movwf	showString@var+1
  1431  00D2  120A  158A  2535  120A  118A  	fcall	_showString
  1432                           
  1433                           ;proyecto_final.c: 147:                                 PORTD = (255);
  1434  00D7  300F               	movlw	low (STR_7| (0+32768))
  1435  00D8  1283               	bcf	3,5	;RP0=0, select bank0
  1436  00D9  1303               	bcf	3,6	;RP1=0, select bank0
  1437  00DA  00C4               	movwf	showString@var
  1438  00DB  3087               	movlw	high (STR_7| (0+32768))
  1439  00DC  00C5               	movwf	showString@var+1
  1440  00DD  120A  158A  2535  120A  118A  	fcall	_showString
  1441                           
  1442                           ;proyecto_final.c: 148:                                 CCPR2L = (PORTD>>1) + 120;
  1443  00E2  30B8               	movlw	low (STR_8| (0+32768))
  1444  00E3  1283               	bcf	3,5	;RP0=0, select bank0
  1445  00E4  1303               	bcf	3,6	;RP1=0, select bank0
  1446  00E5  00C4               	movwf	showString@var
  1447  00E6  3086               	movlw	high (STR_8| (0+32768))
  1448  00E7  00C5               	movwf	showString@var+1
  1449  00E8  120A  158A  2535  120A  118A  	fcall	_showString
  1450  00ED                     l1962:
  1451                           
  1452                           ;proyecto_final.c: 149:                                 CCP2CONbits.DC2B1 = PORTDbits.RD
      +                          0;
  1453  00ED  1283               	bcf	3,5	;RP0=0, select bank0
  1454  00EE  1303               	bcf	3,6	;RP1=0, select bank0
  1455  00EF  01D2               	clrf	_flag
  1456  00F0  01D3               	clrf	_flag+1
  1457  00F1                     l1964:
  1458                           
  1459                           ;proyecto_final.c: 151:                             }
  1460  00F1  3031               	movlw	49
  1461  00F2  063F               	xorwf	_opcion,w
  1462  00F3  1D03               	btfss	3,2
  1463  00F4  28F6               	goto	u1711
  1464  00F5  28F7               	goto	u1710
  1465  00F6                     u1711:
  1466  00F6  2A3E               	goto	l2044
  1467  00F7                     u1710:
  1468  00F7                     l1966:
  1469                           
  1470                           ;proyecto_final.c: 152: 
  1471  00F7  3072               	movlw	low (STR_9| (0+32768))
  1472  00F8  00C4               	movwf	showString@var
  1473  00F9  3086               	movlw	high (STR_9| (0+32768))
  1474  00FA  00C5               	movwf	showString@var+1
  1475  00FB  120A  158A  2535  120A  118A  	fcall	_showString
  1476                           
  1477                           ;proyecto_final.c: 153: 
  1478  0100  30F4               	movlw	low (STR_10| (0+32768))
  1479  0101  1283               	bcf	3,5	;RP0=0, select bank0
  1480  0102  1303               	bcf	3,6	;RP1=0, select bank0
  1481  0103  00C4               	movwf	showString@var
  1482  0104  3085               	movlw	high (STR_10| (0+32768))
  1483  0105  00C5               	movwf	showString@var+1
  1484  0106  120A  158A  2535  120A  118A  	fcall	_showString
  1485  010B                     l1968:
  1486                           
  1487                           ;proyecto_final.c: 155:                         }
  1488  010B  3001               	movlw	1
  1489  010C  1283               	bcf	3,5	;RP0=0, select bank0
  1490  010D  1303               	bcf	3,6	;RP1=0, select bank0
  1491  010E  00D2               	movwf	_flag
  1492  010F  3000               	movlw	0
  1493  0110  00D3               	movwf	_flag+1
  1494  0111                     l1970:
  1495                           
  1496                           ;proyecto_final.c: 156:                         if(opcion==50){
  1497  0111  01BF               	clrf	_opcion
  1498  0112                     l1972:	
  1499                           ;proyecto_final.c: 158:                             showString("1.Forward 2.Forback 3.Tu
      +                          rn rigth 4.Turn left 5.Stop");
  1500                           
  1501                           
  1502                           ;proyecto_final.c: 158:                             showString("1.Forward 2.Forback 3.Tu
      +                          rn rigth 4.Turn left 5.Stop");
  1503  0112  083F               	movf	_opcion,w
  1504  0113  1903               	btfsc	3,2
  1505  0114  2916               	goto	u1721
  1506  0115  2917               	goto	u1720
  1507  0116                     u1721:
  1508  0116  2912               	goto	l1972
  1509  0117                     u1720:
  1510  0117                     l1974:
  1511                           
  1512                           ;proyecto_final.c: 162: 
  1513  0117  3031               	movlw	49
  1514  0118  063F               	xorwf	_opcion,w
  1515  0119  1D03               	btfss	3,2
  1516  011A  291C               	goto	u1731
  1517  011B  291D               	goto	u1730
  1518  011C                     u1731:
  1519  011C  2942               	goto	l1984
  1520  011D                     u1730:
  1521  011D                     l1976:
  1522                           
  1523                           ;proyecto_final.c: 163:                             while(!opcion){
  1524  011D  0188               	clrf	8	;volatile
  1525  011E                     l1978:
  1526                           
  1527                           ;proyecto_final.c: 164: 
  1528  011E  0808               	movf	8,w	;volatile
  1529  011F  00CB               	movwf	??_main
  1530  0120  1003               	clrc
  1531  0121  0C4B               	rrf	??_main,w
  1532  0122  3E80               	addlw	128
  1533  0123  0095               	movwf	21	;volatile
  1534  0124                     l1980:
  1535                           
  1536                           ;proyecto_final.c: 165:                             }
  1537  0124  1808               	btfsc	8,0	;volatile
  1538  0125  2927               	goto	u1741
  1539  0126  292B               	goto	u1740
  1540  0127                     u1741:
  1541  0127  1283               	bcf	3,5	;RP0=0, select bank0
  1542  0128  1303               	bcf	3,6	;RP1=0, select bank0
  1543  0129  1697               	bsf	23,5	;volatile
  1544  012A  292E               	goto	u1754
  1545  012B                     u1740:
  1546  012B  1283               	bcf	3,5	;RP0=0, select bank0
  1547  012C  1303               	bcf	3,6	;RP1=0, select bank0
  1548  012D  1297               	bcf	23,5	;volatile
  1549  012E                     u1754:
  1550  012E                     l1982:
  1551                           
  1552                           ;proyecto_final.c: 166: 
  1553  012E  1683               	bsf	3,5	;RP0=1, select bank1
  1554  012F  1303               	bcf	3,6	;RP1=0, select bank1
  1555  0130  081E               	movf	30,w	;volatile
  1556  0131  1283               	bcf	3,5	;RP0=0, select bank0
  1557  0132  1303               	bcf	3,6	;RP1=0, select bank0
  1558  0133  00CB               	movwf	??_main
  1559  0134  3007               	movlw	7
  1560  0135                     u1765:
  1561  0135  1003               	clrc
  1562  0136  0CCB               	rrf	??_main,f
  1563  0137  3EFF               	addlw	-1
  1564  0138  1D03               	skipz
  1565  0139  2935               	goto	u1765
  1566  013A  084B               	movf	??_main,w
  1567  013B  00CC               	movwf	??_main+1
  1568  013C  0ECC               	swapf	??_main+1,f
  1569  013D  0817               	movf	23,w	;volatile
  1570  013E  064C               	xorwf	??_main+1,w
  1571  013F  39EF               	andlw	-17
  1572  0140  064C               	xorwf	??_main+1,w
  1573  0141  0097               	movwf	23	;volatile
  1574  0142                     l1984:
  1575                           
  1576                           ;proyecto_final.c: 168:                                 PORTA = 8;
  1577  0142  3032               	movlw	50
  1578  0143  063F               	xorwf	_opcion,w
  1579  0144  1D03               	btfss	3,2
  1580  0145  2947               	goto	u1771
  1581  0146  2948               	goto	u1770
  1582  0147                     u1771:
  1583  0147  296E               	goto	l1994
  1584  0148                     u1770:
  1585  0148                     l1986:
  1586                           
  1587                           ;proyecto_final.c: 169:                                 flag =1;
  1588  0148  3080               	movlw	128
  1589  0149  0088               	movwf	8	;volatile
  1590  014A                     l1988:
  1591                           
  1592                           ;proyecto_final.c: 170:                             }
  1593  014A  0808               	movf	8,w	;volatile
  1594  014B  00CB               	movwf	??_main
  1595  014C  1003               	clrc
  1596  014D  0C4B               	rrf	??_main,w
  1597  014E  3E80               	addlw	128
  1598  014F  0095               	movwf	21	;volatile
  1599  0150                     l1990:
  1600                           
  1601                           ;proyecto_final.c: 171:                             if(opcion==50){
  1602  0150  1808               	btfsc	8,0	;volatile
  1603  0151  2953               	goto	u1781
  1604  0152  2957               	goto	u1780
  1605  0153                     u1781:
  1606  0153  1283               	bcf	3,5	;RP0=0, select bank0
  1607  0154  1303               	bcf	3,6	;RP1=0, select bank0
  1608  0155  1697               	bsf	23,5	;volatile
  1609  0156  295A               	goto	u1794
  1610  0157                     u1780:
  1611  0157  1283               	bcf	3,5	;RP0=0, select bank0
  1612  0158  1303               	bcf	3,6	;RP1=0, select bank0
  1613  0159  1297               	bcf	23,5	;volatile
  1614  015A                     u1794:
  1615  015A                     l1992:
  1616                           
  1617                           ;proyecto_final.c: 172: 
  1618  015A  1683               	bsf	3,5	;RP0=1, select bank1
  1619  015B  1303               	bcf	3,6	;RP1=0, select bank1
  1620  015C  081E               	movf	30,w	;volatile
  1621  015D  1283               	bcf	3,5	;RP0=0, select bank0
  1622  015E  1303               	bcf	3,6	;RP1=0, select bank0
  1623  015F  00CB               	movwf	??_main
  1624  0160  3007               	movlw	7
  1625  0161                     u1805:
  1626  0161  1003               	clrc
  1627  0162  0CCB               	rrf	??_main,f
  1628  0163  3EFF               	addlw	-1
  1629  0164  1D03               	skipz
  1630  0165  2961               	goto	u1805
  1631  0166  084B               	movf	??_main,w
  1632  0167  00CC               	movwf	??_main+1
  1633  0168  0ECC               	swapf	??_main+1,f
  1634  0169  0817               	movf	23,w	;volatile
  1635  016A  064C               	xorwf	??_main+1,w
  1636  016B  39EF               	andlw	-17
  1637  016C  064C               	xorwf	??_main+1,w
  1638  016D  0097               	movwf	23	;volatile
  1639  016E                     l1994:
  1640                           
  1641                           ;proyecto_final.c: 174:                                 flag =2;
  1642  016E  3033               	movlw	51
  1643  016F  063F               	xorwf	_opcion,w
  1644  0170  1D03               	btfss	3,2
  1645  0171  2973               	goto	u1811
  1646  0172  2974               	goto	u1810
  1647  0173                     u1811:
  1648  0173  299A               	goto	l2004
  1649  0174                     u1810:
  1650  0174                     l1996:
  1651                           
  1652                           ;proyecto_final.c: 175:                             }
  1653  0174  30FF               	movlw	255
  1654  0175  0088               	movwf	8	;volatile
  1655  0176                     l1998:
  1656                           
  1657                           ;proyecto_final.c: 176:                             if(opcion==51){
  1658  0176  0808               	movf	8,w	;volatile
  1659  0177  00CB               	movwf	??_main
  1660  0178  1003               	clrc
  1661  0179  0C4B               	rrf	??_main,w
  1662  017A  3E78               	addlw	120
  1663  017B  0095               	movwf	21	;volatile
  1664  017C                     l2000:
  1665                           
  1666                           ;proyecto_final.c: 177:                                 PORTA = 9;
  1667  017C  1808               	btfsc	8,0	;volatile
  1668  017D  297F               	goto	u1821
  1669  017E  2983               	goto	u1820
  1670  017F                     u1821:
  1671  017F  1283               	bcf	3,5	;RP0=0, select bank0
  1672  0180  1303               	bcf	3,6	;RP1=0, select bank0
  1673  0181  1697               	bsf	23,5	;volatile
  1674  0182  2986               	goto	u1834
  1675  0183                     u1820:
  1676  0183  1283               	bcf	3,5	;RP0=0, select bank0
  1677  0184  1303               	bcf	3,6	;RP1=0, select bank0
  1678  0185  1297               	bcf	23,5	;volatile
  1679  0186                     u1834:
  1680  0186                     l2002:
  1681                           
  1682                           ;proyecto_final.c: 178:                                 _delay((unsigned long)((800)*(80
      +                          00000/4000.0)));
  1683  0186  1683               	bsf	3,5	;RP0=1, select bank1
  1684  0187  1303               	bcf	3,6	;RP1=0, select bank1
  1685  0188  081E               	movf	30,w	;volatile
  1686  0189  1283               	bcf	3,5	;RP0=0, select bank0
  1687  018A  1303               	bcf	3,6	;RP1=0, select bank0
  1688  018B  00CB               	movwf	??_main
  1689  018C  3007               	movlw	7
  1690  018D                     u1845:
  1691  018D  1003               	clrc
  1692  018E  0CCB               	rrf	??_main,f
  1693  018F  3EFF               	addlw	-1
  1694  0190  1D03               	skipz
  1695  0191  298D               	goto	u1845
  1696  0192  084B               	movf	??_main,w
  1697  0193  00CC               	movwf	??_main+1
  1698  0194  0ECC               	swapf	??_main+1,f
  1699  0195  0817               	movf	23,w	;volatile
  1700  0196  064C               	xorwf	??_main+1,w
  1701  0197  39EF               	andlw	-17
  1702  0198  064C               	xorwf	??_main+1,w
  1703  0199  0097               	movwf	23	;volatile
  1704  019A                     l2004:
  1705                           
  1706                           ;proyecto_final.c: 181:                                 }
  1707  019A  304B               	movlw	low (STR_11| (0+32768))
  1708  019B  00C4               	movwf	showString@var
  1709  019C  3086               	movlw	high (STR_11| (0+32768))
  1710  019D  00C5               	movwf	showString@var+1
  1711  019E  120A  158A  2535  120A  118A  	fcall	_showString
  1712  01A3                     l2006:
  1713                           
  1714                           ;proyecto_final.c: 182:                                 if(flag ==2){
  1715  01A3  30F4               	movlw	low (STR_10| (0+32768))
  1716  01A4  1283               	bcf	3,5	;RP0=0, select bank0
  1717  01A5  1303               	bcf	3,6	;RP1=0, select bank0
  1718  01A6  00C4               	movwf	showString@var
  1719  01A7  3085               	movlw	high (STR_10| (0+32768))
  1720  01A8  00C5               	movwf	showString@var+1
  1721  01A9  120A  158A  2535  120A  118A  	fcall	_showString
  1722                           
  1723                           ;proyecto_final.c: 184:                                 }
  1724  01AE  3001               	movlw	1
  1725  01AF  1283               	bcf	3,5	;RP0=0, select bank0
  1726  01B0  1303               	bcf	3,6	;RP1=0, select bank0
  1727  01B1  00D2               	movwf	_flag
  1728  01B2  3000               	movlw	0
  1729  01B3  00D3               	movwf	_flag+1
  1730  01B4                     l2008:
  1731                           
  1732                           ;proyecto_final.c: 185:                             }
  1733  01B4  01BF               	clrf	_opcion
  1734  01B5                     l2010:	
  1735                           ;proyecto_final.c: 187:                                 PORTA = 10;
  1736                           
  1737                           
  1738                           ;proyecto_final.c: 187:                                 PORTA = 10;
  1739  01B5  083F               	movf	_opcion,w
  1740  01B6  1903               	btfsc	3,2
  1741  01B7  29B9               	goto	u1851
  1742  01B8  29BA               	goto	u1850
  1743  01B9                     u1851:
  1744  01B9  29B5               	goto	l2010
  1745  01BA                     u1850:
  1746  01BA                     l2012:
  1747                           
  1748                           ;proyecto_final.c: 191:                                 }
  1749  01BA  3031               	movlw	49
  1750  01BB  063F               	xorwf	_opcion,w
  1751  01BC  1D03               	btfss	3,2
  1752  01BD  29BF               	goto	u1861
  1753  01BE  29C0               	goto	u1860
  1754  01BF                     u1861:
  1755  01BF  29E5               	goto	l2022
  1756  01C0                     u1860:
  1757  01C0                     l2014:
  1758                           
  1759                           ;proyecto_final.c: 192:                                 if(flag ==2){
  1760  01C0  0188               	clrf	8	;volatile
  1761  01C1                     l2016:
  1762                           
  1763                           ;proyecto_final.c: 193:                                     PORTA = 4;
  1764  01C1  0808               	movf	8,w	;volatile
  1765  01C2  00CB               	movwf	??_main
  1766  01C3  1003               	clrc
  1767  01C4  0C4B               	rrf	??_main,w
  1768  01C5  3E80               	addlw	128
  1769  01C6  009B               	movwf	27	;volatile
  1770  01C7                     l2018:
  1771                           
  1772                           ;proyecto_final.c: 194:                                 }
  1773  01C7  1808               	btfsc	8,0	;volatile
  1774  01C8  29CA               	goto	u1871
  1775  01C9  29CE               	goto	u1870
  1776  01CA                     u1871:
  1777  01CA  1283               	bcf	3,5	;RP0=0, select bank0
  1778  01CB  1303               	bcf	3,6	;RP1=0, select bank0
  1779  01CC  169D               	bsf	29,5	;volatile
  1780  01CD  29D1               	goto	u1884
  1781  01CE                     u1870:
  1782  01CE  1283               	bcf	3,5	;RP0=0, select bank0
  1783  01CF  1303               	bcf	3,6	;RP1=0, select bank0
  1784  01D0  129D               	bcf	29,5	;volatile
  1785  01D1                     u1884:
  1786  01D1                     l2020:
  1787                           
  1788                           ;proyecto_final.c: 195:                             }
  1789  01D1  1683               	bsf	3,5	;RP0=1, select bank1
  1790  01D2  1303               	bcf	3,6	;RP1=0, select bank1
  1791  01D3  081E               	movf	30,w	;volatile
  1792  01D4  1283               	bcf	3,5	;RP0=0, select bank0
  1793  01D5  1303               	bcf	3,6	;RP1=0, select bank0
  1794  01D6  00CB               	movwf	??_main
  1795  01D7  3007               	movlw	7
  1796  01D8                     u1895:
  1797  01D8  1003               	clrc
  1798  01D9  0CCB               	rrf	??_main,f
  1799  01DA  3EFF               	addlw	-1
  1800  01DB  1D03               	skipz
  1801  01DC  29D8               	goto	u1895
  1802  01DD  084B               	movf	??_main,w
  1803  01DE  00CC               	movwf	??_main+1
  1804  01DF  0ECC               	swapf	??_main+1,f
  1805  01E0  081D               	movf	29,w	;volatile
  1806  01E1  064C               	xorwf	??_main+1,w
  1807  01E2  39EF               	andlw	-17
  1808  01E3  064C               	xorwf	??_main+1,w
  1809  01E4  009D               	movwf	29	;volatile
  1810  01E5                     l2022:
  1811                           
  1812                           ;proyecto_final.c: 197:                             if(opcion==53){
  1813  01E5  3032               	movlw	50
  1814  01E6  063F               	xorwf	_opcion,w
  1815  01E7  1D03               	btfss	3,2
  1816  01E8  29EA               	goto	u1901
  1817  01E9  29EB               	goto	u1900
  1818  01EA                     u1901:
  1819  01EA  2A11               	goto	l2032
  1820  01EB                     u1900:
  1821  01EB                     l2024:
  1822                           
  1823                           ;proyecto_final.c: 198:                                 PORTA = 0;
  1824  01EB  3080               	movlw	128
  1825  01EC  0088               	movwf	8	;volatile
  1826  01ED                     l2026:
  1827                           
  1828                           ;proyecto_final.c: 199:                             }
  1829  01ED  0808               	movf	8,w	;volatile
  1830  01EE  00CB               	movwf	??_main
  1831  01EF  1003               	clrc
  1832  01F0  0C4B               	rrf	??_main,w
  1833  01F1  3E80               	addlw	128
  1834  01F2  009B               	movwf	27	;volatile
  1835  01F3                     l2028:
  1836                           
  1837                           ;proyecto_final.c: 200: 
  1838  01F3  1808               	btfsc	8,0	;volatile
  1839  01F4  29F6               	goto	u1911
  1840  01F5  29FA               	goto	u1910
  1841  01F6                     u1911:
  1842  01F6  1283               	bcf	3,5	;RP0=0, select bank0
  1843  01F7  1303               	bcf	3,6	;RP1=0, select bank0
  1844  01F8  169D               	bsf	29,5	;volatile
  1845  01F9  29FD               	goto	u1924
  1846  01FA                     u1910:
  1847  01FA  1283               	bcf	3,5	;RP0=0, select bank0
  1848  01FB  1303               	bcf	3,6	;RP1=0, select bank0
  1849  01FC  129D               	bcf	29,5	;volatile
  1850  01FD                     u1924:
  1851  01FD                     l2030:
  1852                           
  1853                           ;proyecto_final.c: 201: 
  1854  01FD  1683               	bsf	3,5	;RP0=1, select bank1
  1855  01FE  1303               	bcf	3,6	;RP1=0, select bank1
  1856  01FF  081E               	movf	30,w	;volatile
  1857  0200  1283               	bcf	3,5	;RP0=0, select bank0
  1858  0201  1303               	bcf	3,6	;RP1=0, select bank0
  1859  0202  00CB               	movwf	??_main
  1860  0203  3007               	movlw	7
  1861  0204                     u1935:
  1862  0204  1003               	clrc
  1863  0205  0CCB               	rrf	??_main,f
  1864  0206  3EFF               	addlw	-1
  1865  0207  1D03               	skipz
  1866  0208  2A04               	goto	u1935
  1867  0209  084B               	movf	??_main,w
  1868  020A  00CC               	movwf	??_main+1
  1869  020B  0ECC               	swapf	??_main+1,f
  1870  020C  081D               	movf	29,w	;volatile
  1871  020D  064C               	xorwf	??_main+1,w
  1872  020E  39EF               	andlw	-17
  1873  020F  064C               	xorwf	??_main+1,w
  1874  0210  009D               	movwf	29	;volatile
  1875  0211                     l2032:
  1876                           
  1877                           ;proyecto_final.c: 203: 
  1878  0211  3033               	movlw	51
  1879  0212  063F               	xorwf	_opcion,w
  1880  0213  1D03               	btfss	3,2
  1881  0214  2A16               	goto	u1941
  1882  0215  2A17               	goto	u1940
  1883  0216                     u1941:
  1884  0216  2A3D               	goto	l2042
  1885  0217                     u1940:
  1886  0217                     l2034:
  1887                           
  1888                           ;proyecto_final.c: 204: 
  1889  0217  30FF               	movlw	255
  1890  0218  0088               	movwf	8	;volatile
  1891  0219                     l2036:
  1892                           
  1893                           ;proyecto_final.c: 205:                         }
  1894  0219  0808               	movf	8,w	;volatile
  1895  021A  00CB               	movwf	??_main
  1896  021B  1003               	clrc
  1897  021C  0C4B               	rrf	??_main,w
  1898  021D  3E78               	addlw	120
  1899  021E  009B               	movwf	27	;volatile
  1900  021F                     l2038:
  1901                           
  1902                           ;proyecto_final.c: 206:                         if (opcion==51){
  1903  021F  1808               	btfsc	8,0	;volatile
  1904  0220  2A22               	goto	u1951
  1905  0221  2A26               	goto	u1950
  1906  0222                     u1951:
  1907  0222  1283               	bcf	3,5	;RP0=0, select bank0
  1908  0223  1303               	bcf	3,6	;RP1=0, select bank0
  1909  0224  169D               	bsf	29,5	;volatile
  1910  0225  2A29               	goto	u1964
  1911  0226                     u1950:
  1912  0226  1283               	bcf	3,5	;RP0=0, select bank0
  1913  0227  1303               	bcf	3,6	;RP1=0, select bank0
  1914  0228  129D               	bcf	29,5	;volatile
  1915  0229                     u1964:
  1916  0229                     l2040:
  1917                           
  1918                           ;proyecto_final.c: 207:                             showString("Ingrese la accion a real
      +                          izar con los leds");
  1919  0229  1683               	bsf	3,5	;RP0=1, select bank1
  1920  022A  1303               	bcf	3,6	;RP1=0, select bank1
  1921  022B  081E               	movf	30,w	;volatile
  1922  022C  1283               	bcf	3,5	;RP0=0, select bank0
  1923  022D  1303               	bcf	3,6	;RP1=0, select bank0
  1924  022E  00CB               	movwf	??_main
  1925  022F  3007               	movlw	7
  1926  0230                     u1975:
  1927  0230  1003               	clrc
  1928  0231  0CCB               	rrf	??_main,f
  1929  0232  3EFF               	addlw	-1
  1930  0233  1D03               	skipz
  1931  0234  2A30               	goto	u1975
  1932  0235  084B               	movf	??_main,w
  1933  0236  00CC               	movwf	??_main+1
  1934  0237  0ECC               	swapf	??_main+1,f
  1935  0238  081D               	movf	29,w	;volatile
  1936  0239  064C               	xorwf	??_main+1,w
  1937  023A  39EF               	andlw	-17
  1938  023B  064C               	xorwf	??_main+1,w
  1939  023C  009D               	movwf	29	;volatile
  1940  023D                     l2042:
  1941                           
  1942                           ;proyecto_final.c: 211:                             opcion = 0;
  1943  023D  01BF               	clrf	_opcion
  1944  023E                     l2044:
  1945                           
  1946                           ;proyecto_final.c: 213:                             while(!opcion){
  1947  023E  3032               	movlw	50
  1948  023F  063F               	xorwf	_opcion,w
  1949  0240  1D03               	btfss	3,2
  1950  0241  2A43               	goto	u1981
  1951  0242  2A44               	goto	u1980
  1952  0243                     u1981:
  1953  0243  2AD8               	goto	l2090
  1954  0244                     u1980:
  1955  0244                     l2046:
  1956                           
  1957                           ;proyecto_final.c: 214: 
  1958  0244  3058               	movlw	low (STR_13| (0+32768))
  1959  0245  00C4               	movwf	showString@var
  1960  0246  3085               	movlw	high (STR_13| (0+32768))
  1961  0247  00C5               	movwf	showString@var+1
  1962  0248  120A  158A  2535  120A  118A  	fcall	_showString
  1963                           
  1964                           ;proyecto_final.c: 215:                             }
  1965  024D  308F               	movlw	low (STR_14| (0+32768))
  1966  024E  1283               	bcf	3,5	;RP0=0, select bank0
  1967  024F  1303               	bcf	3,6	;RP1=0, select bank0
  1968  0250  00C4               	movwf	showString@var
  1969  0251  3085               	movlw	high (STR_14| (0+32768))
  1970  0252  00C5               	movwf	showString@var+1
  1971  0253  120A  158A  2535  120A  118A  	fcall	_showString
  1972  0258                     l2048:
  1973                           
  1974                           ;proyecto_final.c: 217:                             if(opcion==49){
  1975  0258  3001               	movlw	1
  1976  0259  1283               	bcf	3,5	;RP0=0, select bank0
  1977  025A  1303               	bcf	3,6	;RP1=0, select bank0
  1978  025B  00D2               	movwf	_flag
  1979  025C  3000               	movlw	0
  1980  025D  00D3               	movwf	_flag+1
  1981  025E                     l2050:
  1982                           
  1983                           ;proyecto_final.c: 218:                                 PORTAbits.RA4 = 1;
  1984  025E  01BF               	clrf	_opcion
  1985  025F                     l2052:	
  1986                           ;proyecto_final.c: 220:                             }
  1987                           
  1988                           
  1989                           ;proyecto_final.c: 220:                             }
  1990  025F  083F               	movf	_opcion,w
  1991  0260  1903               	btfsc	3,2
  1992  0261  2A63               	goto	u1991
  1993  0262  2A64               	goto	u1990
  1994  0263                     u1991:
  1995  0263  2A5F               	goto	l2052
  1996  0264                     u1990:
  1997  0264                     l2054:
  1998                           
  1999                           ;proyecto_final.c: 224:                             }
  2000  0264  3031               	movlw	49
  2001  0265  063F               	xorwf	_opcion,w
  2002  0266  1D03               	btfss	3,2
  2003  0267  2A69               	goto	u2001
  2004  0268  2A6A               	goto	u2000
  2005  0269                     u2001:
  2006  0269  2A70               	goto	l2058
  2007  026A                     u2000:
  2008  026A                     l2056:
  2009                           
  2010                           ;proyecto_final.c: 225:                             if(opcion==51){
  2011  026A  3008               	movlw	8
  2012  026B  0085               	movwf	5	;volatile
  2013                           
  2014                           ;proyecto_final.c: 226:                                 int i;
  2015  026C  3001               	movlw	1
  2016  026D  00D2               	movwf	_flag
  2017  026E  3000               	movlw	0
  2018  026F  00D3               	movwf	_flag+1
  2019  0270                     l2058:
  2020                           
  2021                           ;proyecto_final.c: 228: 
  2022  0270  3032               	movlw	50
  2023  0271  063F               	xorwf	_opcion,w
  2024  0272  1D03               	btfss	3,2
  2025  0273  2A75               	goto	u2011
  2026  0274  2A76               	goto	u2010
  2027  0275                     u2011:
  2028  0275  2A7C               	goto	l2062
  2029  0276                     u2010:
  2030  0276                     l2060:
  2031                           
  2032                           ;proyecto_final.c: 230:                                    PORTAbits.RA5 = 1;
  2033  0276  3004               	movlw	4
  2034  0277  0085               	movwf	5	;volatile
  2035                           
  2036                           ;proyecto_final.c: 231:                                    PORTAbits.RA6 = 1;
  2037  0278  3002               	movlw	2
  2038  0279  00D2               	movwf	_flag
  2039  027A  3000               	movlw	0
  2040  027B  00D3               	movwf	_flag+1
  2041  027C                     l2062:
  2042                           
  2043                           ;proyecto_final.c: 233:                                    _delay((unsigned long)((250)*
      +                          (8000000/4000.0)));
  2044  027C  3033               	movlw	51
  2045  027D  063F               	xorwf	_opcion,w
  2046  027E  1D03               	btfss	3,2
  2047  027F  2A81               	goto	u2021
  2048  0280  2A82               	goto	u2020
  2049  0281                     u2021:
  2050  0281  2AA6               	goto	l2074
  2051  0282                     u2020:
  2052  0282                     l2064:
  2053                           
  2054                           ;proyecto_final.c: 234:                                    PORTAbits.RA4 = 0;
  2055  0282  3009               	movlw	9
  2056  0283  0085               	movwf	5	;volatile
  2057                           
  2058                           ;proyecto_final.c: 235:                                    PORTAbits.RA5 = 0;
  2059  0284  3009               	movlw	9
  2060  0285  1283               	bcf	3,5	;RP0=0, select bank0
  2061  0286  1303               	bcf	3,6	;RP1=0, select bank0
  2062  0287  00CD               	movwf	??_main+2
  2063  0288  301E               	movlw	30
  2064  0289  00CC               	movwf	??_main+1
  2065  028A  30E3               	movlw	227
  2066  028B  00CB               	movwf	??_main
  2067  028C                     u2367:
  2068  028C  0BCB               	decfsz	??_main,f
  2069  028D  2A8C               	goto	u2367
  2070  028E  0BCC               	decfsz	??_main+1,f
  2071  028F  2A8C               	goto	u2367
  2072  0290  0BCD               	decfsz	??_main+2,f
  2073  0291  2A8C               	goto	u2367
  2074  0292  2A93               	nop2
  2075  0293                     l2066:
  2076                           
  2077                           ;proyecto_final.c: 236:                                    PORTAbits.RA6 = 0;
  2078  0293  1283               	bcf	3,5	;RP0=0, select bank0
  2079  0294  1303               	bcf	3,6	;RP1=0, select bank0
  2080  0295  0352               	decf	_flag,w
  2081  0296  0453               	iorwf	_flag+1,w
  2082  0297  1D03               	btfss	3,2
  2083  0298  2A9A               	goto	u2031
  2084  0299  2A9B               	goto	u2030
  2085  029A                     u2031:
  2086  029A  2A9D               	goto	l2070
  2087  029B                     u2030:
  2088  029B                     l2068:
  2089                           
  2090                           ;proyecto_final.c: 237:                                    PORTAbits.RA7 = 0;
  2091  029B  3008               	movlw	8
  2092  029C  0085               	movwf	5	;volatile
  2093  029D                     l2070:
  2094                           
  2095                           ;proyecto_final.c: 239: 
  2096  029D  3002               	movlw	2
  2097  029E  0652               	xorwf	_flag,w
  2098  029F  0453               	iorwf	_flag+1,w
  2099  02A0  1D03               	btfss	3,2
  2100  02A1  2AA3               	goto	u2041
  2101  02A2  2AA4               	goto	u2040
  2102  02A3                     u2041:
  2103  02A3  2AA6               	goto	l2074
  2104  02A4                     u2040:
  2105  02A4                     l2072:
  2106                           
  2107                           ;proyecto_final.c: 240:                                 }
  2108  02A4  3004               	movlw	4
  2109  02A5  0085               	movwf	5	;volatile
  2110  02A6                     l2074:
  2111                           
  2112                           ;proyecto_final.c: 243: 
  2113  02A6  3034               	movlw	52
  2114  02A7  063F               	xorwf	_opcion,w
  2115  02A8  1D03               	btfss	3,2
  2116  02A9  2AAB               	goto	u2051
  2117  02AA  2AAC               	goto	u2050
  2118  02AB                     u2051:
  2119  02AB  2AD0               	goto	l2086
  2120  02AC                     u2050:
  2121  02AC                     l2076:
  2122                           
  2123                           ;proyecto_final.c: 244: 
  2124  02AC  300A               	movlw	10
  2125  02AD  0085               	movwf	5	;volatile
  2126                           
  2127                           ;proyecto_final.c: 245:                             opcion = 0;
  2128  02AE  3009               	movlw	9
  2129  02AF  1283               	bcf	3,5	;RP0=0, select bank0
  2130  02B0  1303               	bcf	3,6	;RP1=0, select bank0
  2131  02B1  00CD               	movwf	??_main+2
  2132  02B2  301E               	movlw	30
  2133  02B3  00CC               	movwf	??_main+1
  2134  02B4  30E3               	movlw	227
  2135  02B5  00CB               	movwf	??_main
  2136  02B6                     u2377:
  2137  02B6  0BCB               	decfsz	??_main,f
  2138  02B7  2AB6               	goto	u2377
  2139  02B8  0BCC               	decfsz	??_main+1,f
  2140  02B9  2AB6               	goto	u2377
  2141  02BA  0BCD               	decfsz	??_main+2,f
  2142  02BB  2AB6               	goto	u2377
  2143  02BC  2ABD               	nop2
  2144  02BD                     l2078:
  2145                           
  2146                           ;proyecto_final.c: 246:                         }
  2147  02BD  1283               	bcf	3,5	;RP0=0, select bank0
  2148  02BE  1303               	bcf	3,6	;RP1=0, select bank0
  2149  02BF  0352               	decf	_flag,w
  2150  02C0  0453               	iorwf	_flag+1,w
  2151  02C1  1D03               	btfss	3,2
  2152  02C2  2AC4               	goto	u2061
  2153  02C3  2AC5               	goto	u2060
  2154  02C4                     u2061:
  2155  02C4  2AC7               	goto	l2082
  2156  02C5                     u2060:
  2157  02C5                     l2080:
  2158                           
  2159                           ;proyecto_final.c: 247: 
  2160  02C5  3008               	movlw	8
  2161  02C6  0085               	movwf	5	;volatile
  2162  02C7                     l2082:
  2163                           
  2164                           ;proyecto_final.c: 249:                             flag = 1;
  2165  02C7  3002               	movlw	2
  2166  02C8  0652               	xorwf	_flag,w
  2167  02C9  0453               	iorwf	_flag+1,w
  2168  02CA  1D03               	btfss	3,2
  2169  02CB  2ACD               	goto	u2071
  2170  02CC  2ACE               	goto	u2070
  2171  02CD                     u2071:
  2172  02CD  2AD0               	goto	l2086
  2173  02CE                     u2070:
  2174  02CE                     l2084:
  2175                           
  2176                           ;proyecto_final.c: 250: 
  2177  02CE  3004               	movlw	4
  2178  02CF  0085               	movwf	5	;volatile
  2179  02D0                     l2086:
  2180                           
  2181                           ;proyecto_final.c: 254:                             _delay((unsigned long)((50)*(8000000
      +                          /4000000.0)));
  2182  02D0  3035               	movlw	53
  2183  02D1  063F               	xorwf	_opcion,w
  2184  02D2  1D03               	btfss	3,2
  2185  02D3  2AD5               	goto	u2081
  2186  02D4  2AD6               	goto	u2080
  2187  02D5                     u2081:
  2188  02D5  2AD7               	goto	l187
  2189  02D6                     u2080:
  2190  02D6                     l2088:
  2191                           
  2192                           ;proyecto_final.c: 255:                             valor_pot = ADRESH;
  2193  02D6  0185               	clrf	5	;volatile
  2194  02D7                     l187:	
  2195                           ;proyecto_final.c: 256:                             _delay((unsigned long)((50)*(8000000
      +                          /4000000.0)));
  2196                           
  2197                           
  2198                           ;proyecto_final.c: 259:                             valor_centenas = var_temp / 100;
  2199  02D7  01BF               	clrf	_opcion
  2200  02D8                     l2090:
  2201                           
  2202                           ;proyecto_final.c: 263:                             valor_unidades = var_temp;
  2203  02D8  3033               	movlw	51
  2204  02D9  063F               	xorwf	_opcion,w
  2205  02DA  1D03               	btfss	3,2
  2206  02DB  2ADD               	goto	u2091
  2207  02DC  2ADE               	goto	u2090
  2208  02DD                     u2091:
  2209  02DD  2B56               	goto	l2130
  2210  02DE                     u2090:
  2211  02DE                     l2092:
  2212                           
  2213                           ;proyecto_final.c: 264: 
  2214  02DE  3021               	movlw	low (STR_15| (0+32768))
  2215  02DF  00C4               	movwf	showString@var
  2216  02E0  3086               	movlw	high (STR_15| (0+32768))
  2217  02E1  00C5               	movwf	showString@var+1
  2218  02E2  120A  158A  2535  120A  118A  	fcall	_showString
  2219                           
  2220                           ;proyecto_final.c: 265:                             showString("El valor en decimal del 
      +                          pot es:");
  2221  02E7  3013               	movlw	low (STR_16| (0+32768))
  2222  02E8  1283               	bcf	3,5	;RP0=0, select bank0
  2223  02E9  1303               	bcf	3,6	;RP1=0, select bank0
  2224  02EA  00C4               	movwf	showString@var
  2225  02EB  3085               	movlw	high (STR_16| (0+32768))
  2226  02EC  00C5               	movwf	showString@var+1
  2227  02ED  120A  158A  2535  120A  118A  	fcall	_showString
  2228  02F2                     l2094:
  2229                           
  2230                           ;proyecto_final.c: 267:                             _delay((unsigned long)((10)*(8000000
      +                          /4000.0)));
  2231  02F2  3001               	movlw	1
  2232  02F3  1283               	bcf	3,5	;RP0=0, select bank0
  2233  02F4  1303               	bcf	3,6	;RP1=0, select bank0
  2234  02F5  00D2               	movwf	_flag
  2235  02F6  3000               	movlw	0
  2236  02F7  00D3               	movwf	_flag+1
  2237  02F8                     l2096:
  2238                           
  2239                           ;proyecto_final.c: 268:                             TXREG = dec_to_ascii(valor_decenas);
  2240  02F8  01BF               	clrf	_opcion
  2241  02F9                     l2098:	
  2242                           ;proyecto_final.c: 270:                             TXREG = dec_to_ascii(valor_unidades)
      +                          ;
  2243                           
  2244                           
  2245                           ;proyecto_final.c: 270:                             TXREG = dec_to_ascii(valor_unidades)
      +                          ;
  2246  02F9  083F               	movf	_opcion,w
  2247  02FA  1903               	btfsc	3,2
  2248  02FB  2AFD               	goto	u2101
  2249  02FC  2AFE               	goto	u2100
  2250  02FD                     u2101:
  2251  02FD  2AF9               	goto	l2098
  2252  02FE                     u2100:
  2253  02FE                     l2100:
  2254                           
  2255                           ;proyecto_final.c: 274:                             _delay((unsigned long)((10)*(8000000
      +                          /4000.0)));
  2256  02FE  3031               	movlw	49
  2257  02FF  063F               	xorwf	_opcion,w
  2258  0300  1D03               	btfss	3,2
  2259  0301  2B03               	goto	u2111
  2260  0302  2B04               	goto	u2110
  2261  0303                     u2111:
  2262  0303  2B06               	goto	l2104
  2263  0304                     u2110:
  2264  0304                     l2102:
  2265                           
  2266                           ;proyecto_final.c: 275:                             TXREG = 11;
  2267  0304  1605               	bsf	5,4	;volatile
  2268                           
  2269                           ;proyecto_final.c: 276: 
  2270  0305  1685               	bsf	5,5	;volatile
  2271  0306                     l2104:
  2272                           
  2273                           ;proyecto_final.c: 278:                         }
  2274  0306  3032               	movlw	50
  2275  0307  063F               	xorwf	_opcion,w
  2276  0308  1D03               	btfss	3,2
  2277  0309  2B0B               	goto	u2121
  2278  030A  2B0C               	goto	u2120
  2279  030B                     u2121:
  2280  030B  2B0E               	goto	l2108
  2281  030C                     u2120:
  2282  030C                     l2106:
  2283                           
  2284                           ;proyecto_final.c: 279: 
  2285  030C  1705               	bsf	5,6	;volatile
  2286                           
  2287                           ;proyecto_final.c: 280: 
  2288  030D  1785               	bsf	5,7	;volatile
  2289  030E                     l2108:
  2290                           
  2291                           ;proyecto_final.c: 282: 
  2292  030E  3033               	movlw	51
  2293  030F  063F               	xorwf	_opcion,w
  2294  0310  1D03               	btfss	3,2
  2295  0311  2B13               	goto	u2131
  2296  0312  2B14               	goto	u2130
  2297  0313                     u2131:
  2298  0313  2B53               	goto	l2128
  2299  0314                     u2130:
  2300  0314                     l2110:
  2301                           
  2302                           ;proyecto_final.c: 283:                     if(opcion==53){;proyecto_final.c: 284:      
      +                                            showString("Ingrese 1 si desea ingresar a modo control USART");
  2303  0314  01CE               	clrf	main@i
  2304  0315  01CF               	clrf	main@i+1
  2305  0316                     l195:
  2306                           
  2307                           ;proyecto_final.c: 286:                     }
  2308  0316  1283               	bcf	3,5	;RP0=0, select bank0
  2309  0317  1303               	bcf	3,6	;RP1=0, select bank0
  2310  0318  1605               	bsf	5,4	;volatile
  2311                           
  2312                           ;proyecto_final.c: 287: 
  2313  0319  1685               	bsf	5,5	;volatile
  2314                           
  2315                           ;proyecto_final.c: 288:                 }
  2316  031A  1705               	bsf	5,6	;volatile
  2317                           
  2318                           ;proyecto_final.c: 289: 
  2319  031B  1785               	bsf	5,7	;volatile
  2320  031C                     l2116:
  2321                           
  2322                           ;proyecto_final.c: 290:         }
  2323  031C  3003               	movlw	3
  2324  031D  1283               	bcf	3,5	;RP0=0, select bank0
  2325  031E  1303               	bcf	3,6	;RP1=0, select bank0
  2326  031F  00CD               	movwf	??_main+2
  2327  0320  308A               	movlw	138
  2328  0321  00CC               	movwf	??_main+1
  2329  0322  3055               	movlw	85
  2330  0323  00CB               	movwf	??_main
  2331  0324                     u2387:
  2332  0324  0BCB               	decfsz	??_main,f
  2333  0325  2B24               	goto	u2387
  2334  0326  0BCC               	decfsz	??_main+1,f
  2335  0327  2B24               	goto	u2387
  2336  0328  0BCD               	decfsz	??_main+2,f
  2337  0329  2B24               	goto	u2387
  2338  032A                     l2118:
  2339                           
  2340                           ;proyecto_final.c: 291: 
  2341  032A  1283               	bcf	3,5	;RP0=0, select bank0
  2342  032B  1303               	bcf	3,6	;RP1=0, select bank0
  2343  032C  1205               	bcf	5,4	;volatile
  2344  032D                     l2120:
  2345                           
  2346                           ;proyecto_final.c: 292: 
  2347  032D  1285               	bcf	5,5	;volatile
  2348  032E                     l2122:
  2349                           
  2350                           ;proyecto_final.c: 293: 
  2351  032E  1305               	bcf	5,6	;volatile
  2352  032F                     l2124:
  2353                           
  2354                           ;proyecto_final.c: 294: 
  2355  032F  1385               	bcf	5,7	;volatile
  2356                           
  2357                           ;proyecto_final.c: 295: 
  2358  0330  3003               	movlw	3
  2359  0331  1283               	bcf	3,5	;RP0=0, select bank0
  2360  0332  1303               	bcf	3,6	;RP1=0, select bank0
  2361  0333  00CD               	movwf	??_main+2
  2362  0334  308A               	movlw	138
  2363  0335  00CC               	movwf	??_main+1
  2364  0336  3055               	movlw	85
  2365  0337  00CB               	movwf	??_main
  2366  0338                     u2397:
  2367  0338  0BCB               	decfsz	??_main,f
  2368  0339  2B38               	goto	u2397
  2369  033A  0BCC               	decfsz	??_main+1,f
  2370  033B  2B38               	goto	u2397
  2371  033C  0BCD               	decfsz	??_main+2,f
  2372  033D  2B38               	goto	u2397
  2373                           
  2374                           ;proyecto_final.c: 297:             RB3_old = 1;
  2375  033E  3001               	movlw	1
  2376  033F  1283               	bcf	3,5	;RP0=0, select bank0
  2377  0340  1303               	bcf	3,6	;RP1=0, select bank0
  2378  0341  07CE               	addwf	main@i,f
  2379  0342  1803               	skipnc
  2380  0343  0ACF               	incf	main@i+1,f
  2381  0344  3000               	movlw	0
  2382  0345  07CF               	addwf	main@i+1,f
  2383  0346                     l2126:
  2384  0346  084F               	movf	main@i+1,w
  2385  0347  3A80               	xorlw	128
  2386  0348  00FF               	movwf	btemp+1
  2387  0349  3080               	movlw	128
  2388  034A  027F               	subwf	btemp+1,w
  2389  034B  1D03               	skipz
  2390  034C  2B4F               	goto	u2145
  2391  034D  3003               	movlw	3
  2392  034E  024E               	subwf	main@i,w
  2393  034F                     u2145:
  2394  034F  1C03               	skipc
  2395  0350  2B52               	goto	u2141
  2396  0351  2B53               	goto	u2140
  2397  0352                     u2141:
  2398  0352  2B16               	goto	l195
  2399  0353                     u2140:
  2400  0353                     l2128:
  2401                           
  2402                           ;proyecto_final.c: 302:             writeToEEPROM(eepromVal,addressEEPROM);
  2403  0353  1283               	bcf	3,5	;RP0=0, select bank0
  2404  0354  1303               	bcf	3,6	;RP1=0, select bank0
  2405  0355  01BF               	clrf	_opcion
  2406  0356                     l2130:
  2407                           
  2408                           ;proyecto_final.c: 305:                 addressEEPROM = 0x10;
  2409  0356  3034               	movlw	52
  2410  0357  063F               	xorwf	_opcion,w
  2411  0358  1D03               	btfss	3,2
  2412  0359  2B5B               	goto	u2151
  2413  035A  2B5C               	goto	u2150
  2414  035B                     u2151:
  2415  035B  2C4E               	goto	l2180
  2416  035C                     u2150:
  2417  035C                     l2132:
  2418                           
  2419                           ;proyecto_final.c: 306:             }else{
  2420  035C  3001               	movlw	1
  2421  035D  00D2               	movwf	_flag
  2422  035E  3000               	movlw	0
  2423  035F  00D3               	movwf	_flag+1
  2424  0360                     l2134:
  2425                           
  2426                           ;proyecto_final.c: 308:             }
  2427  0360  081F               	movf	31,w	;volatile
  2428  0361  39C3               	andlw	-61
  2429  0362  381C               	iorlw	28
  2430  0363  009F               	movwf	31	;volatile
  2431  0364                     l2136:
  2432                           
  2433                           ;proyecto_final.c: 309: 
  2434  0364  3020               	movlw	32
  2435  0365  1283               	bcf	3,5	;RP0=0, select bank0
  2436  0366  1303               	bcf	3,6	;RP1=0, select bank0
  2437  0367  00CB               	movwf	??_main
  2438  0368                     u2407:
  2439  0368  0BCB               	decfsz	??_main,f
  2440  0369  2B68               	goto	u2407
  2441  036A  0000               	nop
  2442  036B                     l2138:
  2443                           
  2444                           ;proyecto_final.c: 310:             _delay((unsigned long)((10)*(8000000/4000.0)));
  2445  036B  1283               	bcf	3,5	;RP0=0, select bank0
  2446  036C  1303               	bcf	3,6	;RP1=0, select bank0
  2447  036D  149F               	bsf	31,1	;volatile
  2448  036E                     l2140:
  2449                           
  2450                           ;proyecto_final.c: 311:             eepromVal = temporal_posicion2;
  2451  036E  3020               	movlw	32
  2452  036F  1283               	bcf	3,5	;RP0=0, select bank0
  2453  0370  1303               	bcf	3,6	;RP1=0, select bank0
  2454  0371  00CB               	movwf	??_main
  2455  0372                     u2417:
  2456  0372  0BCB               	decfsz	??_main,f
  2457  0373  2B72               	goto	u2417
  2458  0374  0000               	nop
  2459  0375                     l2142:
  2460                           
  2461                           ;proyecto_final.c: 312: 
  2462  0375  1283               	bcf	3,5	;RP0=0, select bank0
  2463  0376  1303               	bcf	3,6	;RP1=0, select bank0
  2464  0377  081E               	movf	30,w	;volatile
  2465  0378  00CB               	movwf	??_main
  2466  0379  01CC               	clrf	??_main+1
  2467  037A  084B               	movf	??_main,w
  2468  037B  00B9               	movwf	_valor_pot
  2469  037C  084C               	movf	??_main+1,w
  2470  037D  00BA               	movwf	_valor_pot+1
  2471  037E                     l2144:
  2472                           
  2473                           ;proyecto_final.c: 313:             writeToEEPROM(eepromVal,addressEEPROM);
  2474  037E  3020               	movlw	32
  2475  037F  1283               	bcf	3,5	;RP0=0, select bank0
  2476  0380  1303               	bcf	3,6	;RP1=0, select bank0
  2477  0381  00CB               	movwf	??_main
  2478  0382                     u2427:
  2479  0382  0BCB               	decfsz	??_main,f
  2480  0383  2B82               	goto	u2427
  2481  0384  0000               	nop
  2482  0385                     l2146:
  2483                           
  2484                           ;proyecto_final.c: 315:             if(addressEEPROM == 0x17){
  2485  0385  1283               	bcf	3,5	;RP0=0, select bank0
  2486  0386  1303               	bcf	3,6	;RP1=0, select bank0
  2487  0387  083A               	movf	_valor_pot+1,w
  2488  0388  00B8               	movwf	_var_temp+1
  2489  0389  0839               	movf	_valor_pot,w
  2490  038A  00B7               	movwf	_var_temp
  2491  038B                     l2148:
  2492                           
  2493                           ;proyecto_final.c: 316:                 addressEEPROM = 0x10;
  2494  038B  3064               	movlw	100
  2495  038C  00C0               	movwf	___awdiv@divisor
  2496  038D  3000               	movlw	0
  2497  038E  00C1               	movwf	___awdiv@divisor+1
  2498  038F  0838               	movf	_var_temp+1,w
  2499  0390  00C3               	movwf	___awdiv@dividend+1
  2500  0391  0837               	movf	_var_temp,w
  2501  0392  00C2               	movwf	___awdiv@dividend
  2502  0393  120A  158A  258A  120A  118A  	fcall	___awdiv
  2503  0398  1283               	bcf	3,5	;RP0=0, select bank0
  2504  0399  1303               	bcf	3,6	;RP1=0, select bank0
  2505  039A  0841               	movf	?___awdiv+1,w
  2506  039B  00B6               	movwf	_valor_centenas+1
  2507  039C  0840               	movf	?___awdiv,w
  2508  039D  00B5               	movwf	_valor_centenas
  2509  039E                     l2150:
  2510                           
  2511                           ;proyecto_final.c: 317:             }else{
  2512  039E  0836               	movf	_valor_centenas+1,w
  2513  039F  00C1               	movwf	___wmul@multiplier+1
  2514  03A0  0835               	movf	_valor_centenas,w
  2515  03A1  00C0               	movwf	___wmul@multiplier
  2516  03A2  309C               	movlw	156
  2517  03A3  00C2               	movwf	___wmul@multiplicand
  2518  03A4  30FF               	movlw	255
  2519  03A5  00C3               	movwf	___wmul@multiplicand+1
  2520  03A6  120A  158A  250E  120A  118A  	fcall	___wmul
  2521  03AB  1283               	bcf	3,5	;RP0=0, select bank0
  2522  03AC  1303               	bcf	3,6	;RP1=0, select bank0
  2523  03AD  0837               	movf	_var_temp,w
  2524  03AE  0740               	addwf	?___wmul,w
  2525  03AF  00B7               	movwf	_var_temp
  2526  03B0  0838               	movf	_var_temp+1,w
  2527  03B1  1803               	skipnc
  2528  03B2  0A38               	incf	_var_temp+1,w
  2529  03B3  0741               	addwf	?___wmul+1,w
  2530  03B4  00B8               	movwf	_var_temp+1
  2531  03B5                     l2152:
  2532                           
  2533                           ;proyecto_final.c: 318:                 addressEEPROM = addressEEPROM + 1;
  2534  03B5  300A               	movlw	10
  2535  03B6  00C0               	movwf	___awdiv@divisor
  2536  03B7  3000               	movlw	0
  2537  03B8  00C1               	movwf	___awdiv@divisor+1
  2538  03B9  0838               	movf	_var_temp+1,w
  2539  03BA  00C3               	movwf	___awdiv@dividend+1
  2540  03BB  0837               	movf	_var_temp,w
  2541  03BC  00C2               	movwf	___awdiv@dividend
  2542  03BD  120A  158A  258A  120A  118A  	fcall	___awdiv
  2543  03C2  1283               	bcf	3,5	;RP0=0, select bank0
  2544  03C3  1303               	bcf	3,6	;RP1=0, select bank0
  2545  03C4  0841               	movf	?___awdiv+1,w
  2546  03C5  00B4               	movwf	_valor_decenas+1
  2547  03C6  0840               	movf	?___awdiv,w
  2548  03C7  00B3               	movwf	_valor_decenas
  2549  03C8                     l2154:
  2550                           
  2551                           ;proyecto_final.c: 319:             }
  2552  03C8  0834               	movf	_valor_decenas+1,w
  2553  03C9  00C1               	movwf	___wmul@multiplier+1
  2554  03CA  0833               	movf	_valor_decenas,w
  2555  03CB  00C0               	movwf	___wmul@multiplier
  2556  03CC  30F6               	movlw	246
  2557  03CD  00C2               	movwf	___wmul@multiplicand
  2558  03CE  30FF               	movlw	255
  2559  03CF  00C3               	movwf	___wmul@multiplicand+1
  2560  03D0  120A  158A  250E  120A  118A  	fcall	___wmul
  2561  03D5  1283               	bcf	3,5	;RP0=0, select bank0
  2562  03D6  1303               	bcf	3,6	;RP1=0, select bank0
  2563  03D7  0837               	movf	_var_temp,w
  2564  03D8  0740               	addwf	?___wmul,w
  2565  03D9  00B7               	movwf	_var_temp
  2566  03DA  0838               	movf	_var_temp+1,w
  2567  03DB  1803               	skipnc
  2568  03DC  0A38               	incf	_var_temp+1,w
  2569  03DD  0741               	addwf	?___wmul+1,w
  2570  03DE  00B8               	movwf	_var_temp+1
  2571  03DF                     l2156:
  2572                           
  2573                           ;proyecto_final.c: 320: 
  2574  03DF  0838               	movf	_var_temp+1,w
  2575  03E0  00B2               	movwf	_valor_unidades+1
  2576  03E1  0837               	movf	_var_temp,w
  2577  03E2  00B1               	movwf	_valor_unidades
  2578  03E3                     l2158:
  2579                           
  2580                           ;proyecto_final.c: 322:         }
  2581  03E3  3098               	movlw	low (STR_17| (0+32768))
  2582  03E4  00C4               	movwf	showString@var
  2583  03E5  3086               	movlw	high (STR_17| (0+32768))
  2584  03E6  00C5               	movwf	showString@var+1
  2585  03E7  120A  158A  2535  120A  118A  	fcall	_showString
  2586  03EC                     l2160:
  2587                           
  2588                           ;proyecto_final.c: 323: 
  2589  03EC  1283               	bcf	3,5	;RP0=0, select bank0
  2590  03ED  1303               	bcf	3,6	;RP1=0, select bank0
  2591  03EE  0836               	movf	_valor_centenas+1,w
  2592  03EF  00C1               	movwf	dec_to_ascii@val+1
  2593  03F0  0835               	movf	_valor_centenas,w
  2594  03F1  00C0               	movwf	dec_to_ascii@val
  2595  03F2  120A  158A  265C  120A  118A  	fcall	_dec_to_ascii
  2596  03F7  1283               	bcf	3,5	;RP0=0, select bank0
  2597  03F8  1303               	bcf	3,6	;RP1=0, select bank0
  2598  03F9  0840               	movf	?_dec_to_ascii,w
  2599  03FA  0099               	movwf	25	;volatile
  2600  03FB                     l2162:
  2601                           
  2602                           ;proyecto_final.c: 324: 
  2603  03FB  301A               	movlw	26
  2604  03FC  1283               	bcf	3,5	;RP0=0, select bank0
  2605  03FD  1303               	bcf	3,6	;RP1=0, select bank0
  2606  03FE  00CC               	movwf	??_main+1
  2607  03FF  30F7               	movlw	247
  2608  0400  00CB               	movwf	??_main
  2609  0401                     u2437:
  2610  0401  0BCB               	decfsz	??_main,f
  2611  0402  2C01               	goto	u2437
  2612  0403  0BCC               	decfsz	??_main+1,f
  2613  0404  2C01               	goto	u2437
  2614  0405  2C06               	nop2
  2615  0406                     l2164:
  2616                           
  2617                           ;proyecto_final.c: 325: 
  2618  0406  1283               	bcf	3,5	;RP0=0, select bank0
  2619  0407  1303               	bcf	3,6	;RP1=0, select bank0
  2620  0408  0834               	movf	_valor_decenas+1,w
  2621  0409  00C1               	movwf	dec_to_ascii@val+1
  2622  040A  0833               	movf	_valor_decenas,w
  2623  040B  00C0               	movwf	dec_to_ascii@val
  2624  040C  120A  158A  265C  120A  118A  	fcall	_dec_to_ascii
  2625  0411  1283               	bcf	3,5	;RP0=0, select bank0
  2626  0412  1303               	bcf	3,6	;RP1=0, select bank0
  2627  0413  0840               	movf	?_dec_to_ascii,w
  2628  0414  0099               	movwf	25	;volatile
  2629  0415                     l2166:
  2630                           
  2631                           ;proyecto_final.c: 326:     }
  2632  0415  301A               	movlw	26
  2633  0416  1283               	bcf	3,5	;RP0=0, select bank0
  2634  0417  1303               	bcf	3,6	;RP1=0, select bank0
  2635  0418  00CC               	movwf	??_main+1
  2636  0419  30F7               	movlw	247
  2637  041A  00CB               	movwf	??_main
  2638  041B                     u2447:
  2639  041B  0BCB               	decfsz	??_main,f
  2640  041C  2C1B               	goto	u2447
  2641  041D  0BCC               	decfsz	??_main+1,f
  2642  041E  2C1B               	goto	u2447
  2643  041F  2C20               	nop2
  2644  0420                     l2168:
  2645                           
  2646                           ;proyecto_final.c: 327: 
  2647  0420  1283               	bcf	3,5	;RP0=0, select bank0
  2648  0421  1303               	bcf	3,6	;RP1=0, select bank0
  2649  0422  0832               	movf	_valor_unidades+1,w
  2650  0423  00C1               	movwf	dec_to_ascii@val+1
  2651  0424  0831               	movf	_valor_unidades,w
  2652  0425  00C0               	movwf	dec_to_ascii@val
  2653  0426  120A  158A  265C  120A  118A  	fcall	_dec_to_ascii
  2654  042B  1283               	bcf	3,5	;RP0=0, select bank0
  2655  042C  1303               	bcf	3,6	;RP1=0, select bank0
  2656  042D  0840               	movf	?_dec_to_ascii,w
  2657  042E  0099               	movwf	25	;volatile
  2658  042F                     l2170:
  2659                           
  2660                           ;proyecto_final.c: 328:     return;
  2661  042F  301A               	movlw	26
  2662  0430  1283               	bcf	3,5	;RP0=0, select bank0
  2663  0431  1303               	bcf	3,6	;RP1=0, select bank0
  2664  0432  00CC               	movwf	??_main+1
  2665  0433  30F7               	movlw	247
  2666  0434  00CB               	movwf	??_main
  2667  0435                     u2457:
  2668  0435  0BCB               	decfsz	??_main,f
  2669  0436  2C35               	goto	u2457
  2670  0437  0BCC               	decfsz	??_main+1,f
  2671  0438  2C35               	goto	u2457
  2672  0439  2C3A               	nop2
  2673  043A                     l2172:
  2674                           
  2675                           ;proyecto_final.c: 330: 
  2676  043A  300D               	movlw	13
  2677  043B  1283               	bcf	3,5	;RP0=0, select bank0
  2678  043C  1303               	bcf	3,6	;RP1=0, select bank0
  2679  043D  0099               	movwf	25	;volatile
  2680  043E                     l2174:
  2681                           
  2682                           ;proyecto_final.c: 331: 
  2683  043E  301A               	movlw	26
  2684  043F  1283               	bcf	3,5	;RP0=0, select bank0
  2685  0440  1303               	bcf	3,6	;RP1=0, select bank0
  2686  0441  00CC               	movwf	??_main+1
  2687  0442  30F7               	movlw	247
  2688  0443  00CB               	movwf	??_main
  2689  0444                     u2467:
  2690  0444  0BCB               	decfsz	??_main,f
  2691  0445  2C44               	goto	u2467
  2692  0446  0BCC               	decfsz	??_main+1,f
  2693  0447  2C44               	goto	u2467
  2694  0448  2C49               	nop2
  2695  0449                     l2176:
  2696                           
  2697                           ;proyecto_final.c: 332: int dec_to_ascii(int val){
  2698  0449  300B               	movlw	11
  2699  044A  1283               	bcf	3,5	;RP0=0, select bank0
  2700  044B  1303               	bcf	3,6	;RP1=0, select bank0
  2701  044C  0099               	movwf	25	;volatile
  2702  044D  289A               	goto	l1956
  2703  044E                     l2180:
  2704                           
  2705                           ;proyecto_final.c: 139:                             }
  2706  044E  3035               	movlw	53
  2707  044F  063F               	xorwf	_opcion,w
  2708  0450  1D03               	btfss	3,2
  2709  0451  2C53               	goto	u2161
  2710  0452  2C54               	goto	u2160
  2711  0453                     u2161:
  2712  0453  289C               	goto	l1958
  2713  0454                     u2160:
  2714  0454                     l2182:
  2715                           
  2716                           ;proyecto_final.c: 340:         return 51;
  2717  0454  3035               	movlw	53
  2718  0455  063F               	xorwf	_opcion,w
  2719  0456  1D03               	btfss	3,2
  2720  0457  2C59               	goto	u2171
  2721  0458  2C5A               	goto	u2170
  2722  0459                     u2171:
  2723  0459  2C67               	goto	l2188
  2724  045A                     u2170:
  2725  045A                     l2184:
  2726                           
  2727                           ;proyecto_final.c: 341:     }else if(val==4){
  2728  045A  30C3               	movlw	low (STR_1| (0+32768))
  2729  045B  00C4               	movwf	showString@var
  2730  045C  3085               	movlw	high (STR_1| (0+32768))
  2731  045D  00C5               	movwf	showString@var+1
  2732  045E  120A  158A  2535  120A  118A  	fcall	_showString
  2733  0463                     l2186:
  2734                           
  2735                           ;proyecto_final.c: 342:         return 52;
  2736  0463  1283               	bcf	3,5	;RP0=0, select bank0
  2737  0464  1303               	bcf	3,6	;RP1=0, select bank0
  2738  0465  01D2               	clrf	_flag
  2739  0466  01D3               	clrf	_flag+1
  2740  0467                     l2188:
  2741                           
  2742                           ;proyecto_final.c: 353:     }
  2743  0467  1A06               	btfsc	6,4	;volatile
  2744  0468  2C6A               	goto	u2181
  2745  0469  2C6B               	goto	u2180
  2746  046A                     u2181:
  2747  046A  2C6F               	goto	l2192
  2748  046B                     u2180:
  2749  046B                     l2190:
  2750                           
  2751                           ;proyecto_final.c: 354: 
  2752  046B  3001               	movlw	1
  2753  046C  00AF               	movwf	_RB3_old
  2754  046D  3000               	movlw	0
  2755  046E  00B0               	movwf	_RB3_old+1
  2756  046F                     l2192:
  2757                           
  2758                           ;proyecto_final.c: 356: 
  2759  046F  1E06               	btfss	6,4	;volatile
  2760  0470  2C72               	goto	u2191
  2761  0471  2C73               	goto	u2190
  2762  0472                     u2191:
  2763  0472  2842               	goto	l1926
  2764  0473                     u2190:
  2765  0473                     l2194:
  2766  0473  032F               	decf	_RB3_old,w
  2767  0474  0430               	iorwf	_RB3_old+1,w
  2768  0475  1D03               	btfss	3,2
  2769  0476  2C78               	goto	u2201
  2770  0477  2C79               	goto	u2200
  2771  0478                     u2201:
  2772  0478  2842               	goto	l1926
  2773  0479                     u2200:
  2774  0479                     l2196:
  2775                           
  2776                           ;proyecto_final.c: 357: void setup(){
  2777  0479  083E               	movf	_temporal_posicion1,w
  2778  047A  00CB               	movwf	??_main
  2779  047B  01CC               	clrf	??_main+1
  2780  047C  084B               	movf	??_main,w
  2781  047D  00AD               	movwf	_eepromVal
  2782  047E  084C               	movf	??_main+1,w
  2783  047F  00AE               	movwf	_eepromVal+1
  2784  0480                     l2198:
  2785                           
  2786                           ;proyecto_final.c: 359:     config_reloj();
  2787  0480  082E               	movf	_eepromVal+1,w
  2788  0481  00C1               	movwf	writeToEEPROM@data+1
  2789  0482  082D               	movf	_eepromVal,w
  2790  0483  00C0               	movwf	writeToEEPROM@data
  2791  0484  0851               	movf	_addressEEPROM+1,w
  2792  0485  00C3               	movwf	writeToEEPROM@address+1
  2793  0486  0850               	movf	_addressEEPROM,w
  2794  0487  00C2               	movwf	writeToEEPROM@address
  2795  0488  120A  118A  24E0  120A  118A  	fcall	_writeToEEPROM
  2796  048D                     l2200:
  2797                           
  2798                           ;proyecto_final.c: 361:     config_int_enable();
  2799  048D  3017               	movlw	23
  2800  048E  1283               	bcf	3,5	;RP0=0, select bank0
  2801  048F  1303               	bcf	3,6	;RP1=0, select bank0
  2802  0490  0650               	xorwf	_addressEEPROM,w
  2803  0491  0451               	iorwf	_addressEEPROM+1,w
  2804  0492  1D03               	btfss	3,2
  2805  0493  2C95               	goto	u2211
  2806  0494  2C96               	goto	u2210
  2807  0495                     u2211:
  2808  0495  2C9B               	goto	l2204
  2809  0496                     u2210:
  2810  0496                     l2202:
  2811                           
  2812                           ;proyecto_final.c: 362:     config_iocb();
  2813  0496  3010               	movlw	16
  2814  0497  00D0               	movwf	_addressEEPROM
  2815  0498  3000               	movlw	0
  2816  0499  00D1               	movwf	_addressEEPROM+1
  2817                           
  2818                           ;proyecto_final.c: 363: 
  2819  049A  2CA3               	goto	l2206
  2820  049B                     l2204:
  2821                           
  2822                           ;proyecto_final.c: 364:     return;
  2823  049B  0850               	movf	_addressEEPROM,w
  2824  049C  3E01               	addlw	1
  2825  049D  00D0               	movwf	_addressEEPROM
  2826  049E  0851               	movf	_addressEEPROM+1,w
  2827  049F  1803               	skipnc
  2828  04A0  3E01               	addlw	1
  2829  04A1  3E00               	addlw	0
  2830  04A2  00D1               	movwf	_addressEEPROM+1
  2831  04A3                     l2206:
  2832                           
  2833                           ;proyecto_final.c: 367: 
  2834  04A3  301A               	movlw	26
  2835  04A4  1283               	bcf	3,5	;RP0=0, select bank0
  2836  04A5  1303               	bcf	3,6	;RP1=0, select bank0
  2837  04A6  00CC               	movwf	??_main+1
  2838  04A7  30F7               	movlw	247
  2839  04A8  00CB               	movwf	??_main
  2840  04A9                     u2477:
  2841  04A9  0BCB               	decfsz	??_main,f
  2842  04AA  2CA9               	goto	u2477
  2843  04AB  0BCC               	decfsz	??_main+1,f
  2844  04AC  2CA9               	goto	u2477
  2845  04AD  2CAE               	nop2
  2846  04AE                     l2208:
  2847                           
  2848                           ;proyecto_final.c: 368: void writeToEEPROM(int data, int address){
  2849  04AE  1283               	bcf	3,5	;RP0=0, select bank0
  2850  04AF  1303               	bcf	3,6	;RP1=0, select bank0
  2851  04B0  083D               	movf	_temporal_posicion2,w
  2852  04B1  00CB               	movwf	??_main
  2853  04B2  01CC               	clrf	??_main+1
  2854  04B3  084B               	movf	??_main,w
  2855  04B4  00AD               	movwf	_eepromVal
  2856  04B5  084C               	movf	??_main+1,w
  2857  04B6  00AE               	movwf	_eepromVal+1
  2858  04B7                     l2210:
  2859                           
  2860                           ;proyecto_final.c: 370:     EEDAT = data;
  2861  04B7  082E               	movf	_eepromVal+1,w
  2862  04B8  00C1               	movwf	writeToEEPROM@data+1
  2863  04B9  082D               	movf	_eepromVal,w
  2864  04BA  00C0               	movwf	writeToEEPROM@data
  2865  04BB  0851               	movf	_addressEEPROM+1,w
  2866  04BC  00C3               	movwf	writeToEEPROM@address+1
  2867  04BD  0850               	movf	_addressEEPROM,w
  2868  04BE  00C2               	movwf	writeToEEPROM@address
  2869  04BF  120A  118A  24E0  120A  118A  	fcall	_writeToEEPROM
  2870  04C4                     l2212:
  2871                           
  2872                           ;proyecto_final.c: 372:     EECON1bits.WREN = 1;
  2873  04C4  3017               	movlw	23
  2874  04C5  1283               	bcf	3,5	;RP0=0, select bank0
  2875  04C6  1303               	bcf	3,6	;RP1=0, select bank0
  2876  04C7  0650               	xorwf	_addressEEPROM,w
  2877  04C8  0451               	iorwf	_addressEEPROM+1,w
  2878  04C9  1D03               	btfss	3,2
  2879  04CA  2CCC               	goto	u2221
  2880  04CB  2CCD               	goto	u2220
  2881  04CC                     u2221:
  2882  04CC  2CD2               	goto	l2216
  2883  04CD                     u2220:
  2884  04CD                     l2214:
  2885                           
  2886                           ;proyecto_final.c: 373: 
  2887  04CD  3010               	movlw	16
  2888  04CE  00D0               	movwf	_addressEEPROM
  2889  04CF  3000               	movlw	0
  2890  04D0  00D1               	movwf	_addressEEPROM+1
  2891                           
  2892                           ;proyecto_final.c: 374: 
  2893  04D1  2CDA               	goto	l2218
  2894  04D2                     l2216:
  2895                           
  2896                           ;proyecto_final.c: 375:     INTCONbits.GIE = 0;
  2897  04D2  0850               	movf	_addressEEPROM,w
  2898  04D3  3E01               	addlw	1
  2899  04D4  00D0               	movwf	_addressEEPROM
  2900  04D5  0851               	movf	_addressEEPROM+1,w
  2901  04D6  1803               	skipnc
  2902  04D7  3E01               	addlw	1
  2903  04D8  3E00               	addlw	0
  2904  04D9  00D1               	movwf	_addressEEPROM+1
  2905  04DA                     l2218:
  2906                           
  2907                           ;proyecto_final.c: 378: 
  2908  04DA  01AF               	clrf	_RB3_old
  2909  04DB  01B0               	clrf	_RB3_old+1
  2910  04DC  2842               	goto	l1926
  2911  04DD  120A  118A  280C   	ljmp	start
  2912  04E0                     __end_of_main:
  2913                           
  2914                           	psect	text1
  2915  04E0                     __ptext1:	
  2916 ;; *************** function _writeToEEPROM *****************
  2917 ;; Defined at:
  2918 ;;		line 425 in file "proyecto_final.c"
  2919 ;; Parameters:    Size  Location     Type
  2920 ;;  data            2    0[BANK0 ] int 
  2921 ;;  address         2    2[BANK0 ] int 
  2922 ;; Auto vars:     Size  Location     Type
  2923 ;;		None
  2924 ;; Return value:  Size  Location     Type
  2925 ;;                  1    wreg      void 
  2926 ;; Registers used:
  2927 ;;		wreg
  2928 ;; Tracked objects:
  2929 ;;		On entry : 0/0
  2930 ;;		On exit  : 0/0
  2931 ;;		Unchanged: 0/0
  2932 ;; Data sizes:     COMMON   BANK0   BANK1   BANK3   BANK2
  2933 ;;      Params:         0       4       0       0       0
  2934 ;;      Locals:         0       0       0       0       0
  2935 ;;      Temps:          0       0       0       0       0
  2936 ;;      Totals:         0       4       0       0       0
  2937 ;;Total ram usage:        4 bytes
  2938 ;; Hardware stack levels used:    1
  2939 ;; Hardware stack levels required when called:    3
  2940 ;; This function calls:
  2941 ;;		Nothing
  2942 ;; This function is called by:
  2943 ;;		_main
  2944 ;; This function uses a non-reentrant model
  2945 ;;
  2946                           
  2947                           
  2948                           ;psect for function _writeToEEPROM
  2949  04E0                     _writeToEEPROM:
  2950  04E0                     l1768:	
  2951                           ;incstack = 0
  2952                           ; Regs used in _writeToEEPROM: [wreg]
  2953                           
  2954                           
  2955                           ;proyecto_final.c: 426: 
  2956  04E0  1283               	bcf	3,5	;RP0=0, select bank0
  2957  04E1  1303               	bcf	3,6	;RP1=0, select bank0
  2958  04E2  0842               	movf	writeToEEPROM@address,w
  2959  04E3  1283               	bcf	3,5	;RP0=0, select bank2
  2960  04E4  1703               	bsf	3,6	;RP1=1, select bank2
  2961  04E5  008D               	movwf	13	;volatile
  2962                           
  2963                           ;proyecto_final.c: 427:         else if(ADCON0bits.CHS == 6){
  2964  04E6  1283               	bcf	3,5	;RP0=0, select bank0
  2965  04E7  1303               	bcf	3,6	;RP1=0, select bank0
  2966  04E8  0840               	movf	writeToEEPROM@data,w
  2967  04E9  1283               	bcf	3,5	;RP0=0, select bank2
  2968  04EA  1703               	bsf	3,6	;RP1=1, select bank2
  2969  04EB  008C               	movwf	12	;volatile
  2970  04EC                     l1770:
  2971                           
  2972                           ;proyecto_final.c: 428:             PORTD = ADRESH;
  2973  04EC  1683               	bsf	3,5	;RP0=1, select bank3
  2974  04ED  1703               	bsf	3,6	;RP1=1, select bank3
  2975  04EE  138C               	bcf	12,7	;volsfr
  2976  04EF                     l1772:
  2977                           
  2978                           ;proyecto_final.c: 429:             temporal_posicion2 = PORTD;
  2979  04EF  150C               	bsf	12,2	;volsfr
  2980  04F0                     l1774:
  2981                           
  2982                           ;proyecto_final.c: 432:             CCP2CONbits.DC2B0 = ADRESL>>7;}
  2983  04F0  138B               	bcf	11,7	;volatile
  2984                           
  2985                           ;proyecto_final.c: 433: 
  2986  04F1  3055               	movlw	85
  2987  04F2  008D               	movwf	13	;volsfr
  2988                           
  2989                           ;proyecto_final.c: 434:         PIR1bits.ADIF = 0;
  2990  04F3  30AA               	movlw	170
  2991  04F4  008D               	movwf	13	;volsfr
  2992  04F5                     l1776:
  2993                           
  2994                           ;proyecto_final.c: 436: }
  2995  04F5  148C               	bsf	12,1	;volsfr
  2996  04F6                     l1778:
  2997                           
  2998                           ;proyecto_final.c: 439: 
  2999  04F6  110C               	bcf	12,2	;volsfr
  3000  04F7                     l1780:
  3001                           
  3002                           ;proyecto_final.c: 440: 
  3003  04F7  178B               	bsf	11,7	;volatile
  3004  04F8                     l236:
  3005  04F8  0008               	return
  3006  04F9                     __end_of_writeToEEPROM:
  3007                           
  3008                           	psect	text2
  3009  0D35                     __ptext2:	
  3010 ;; *************** function _showString *****************
  3011 ;; Defined at:
  3012 ;;		line 708 in file "proyecto_final.c"
  3013 ;; Parameters:    Size  Location     Type
  3014 ;;  var             2    4[BANK0 ] PTR unsigned char 
  3015 ;;		 -> STR_18(49), STR_17(32), STR_16(69), STR_15(42), 
  3016 ;;		 -> STR_14(52), STR_13(55), STR_12(45), STR_11(39), 
  3017 ;;		 -> STR_10(45), STR_9(38), STR_8(30), STR_7(25), 
  3018 ;;		 -> STR_6(18), STR_5(19), STR_4(19), STR_3(27), 
  3019 ;;		 -> STR_2(30), STR_1(49), 
  3020 ;; Auto vars:     Size  Location     Type
  3021 ;;  i               2    9[BANK0 ] int 
  3022 ;; Return value:  Size  Location     Type
  3023 ;;                  1    wreg      void 
  3024 ;; Registers used:
  3025 ;;		wreg, fsr0l, fsr0h, status,2, status,0, btemp+1, pclath, cstack
  3026 ;; Tracked objects:
  3027 ;;		On entry : 0/0
  3028 ;;		On exit  : 0/0
  3029 ;;		Unchanged: 0/0
  3030 ;; Data sizes:     COMMON   BANK0   BANK1   BANK3   BANK2
  3031 ;;      Params:         0       2       0       0       0
  3032 ;;      Locals:         0       2       0       0       0
  3033 ;;      Temps:          0       3       0       0       0
  3034 ;;      Totals:         0       7       0       0       0
  3035 ;;Total ram usage:        7 bytes
  3036 ;; Hardware stack levels used:    1
  3037 ;; Hardware stack levels required when called:    4
  3038 ;; This function calls:
  3039 ;;		_strlen
  3040 ;; This function is called by:
  3041 ;;		_main
  3042 ;; This function uses a non-reentrant model
  3043 ;;
  3044                           
  3045                           
  3046                           ;psect for function _showString
  3047  0D35                     _showString:
  3048  0D35                     l1678:	
  3049                           ;incstack = 0
  3050                           ; Regs used in _showString: [wreg-fsr0h+status,2+status,0+btemp+1+pclath+cstack]
  3051                           
  3052  0D35  1283               	bcf	3,5	;RP0=0, select bank0
  3053  0D36  1303               	bcf	3,6	;RP1=0, select bank0
  3054  0D37  01C9               	clrf	showString@i
  3055  0D38  01CA               	clrf	showString@i+1
  3056  0D39  2D64               	goto	l1686
  3057  0D3A                     l1680:
  3058  0D3A  0849               	movf	showString@i,w
  3059  0D3B  0744               	addwf	showString@var,w
  3060  0D3C  00C7               	movwf	??_showString+1
  3061  0D3D  0845               	movf	showString@var+1,w
  3062  0D3E  00C6               	movwf	??_showString
  3063  0D3F  1803               	skipnc
  3064  0D40  0AC6               	incf	??_showString,f
  3065  0D41  1FC9               	btfss	showString@i,7
  3066  0D42  2D44               	goto	u1200
  3067  0D43  03C6               	decf	??_showString,f
  3068  0D44                     u1200:
  3069  0D44  1283               	bcf	3,5	;RP0=0, select bank0
  3070  0D45  1303               	bcf	3,6	;RP1=0, select bank0
  3071  0D46  0846               	movf	??_showString,w
  3072  0D47  00C8               	movwf	??_showString+2
  3073  0D48  0848               	movf	??_showString+2,w
  3074  0D49  00FF               	movwf	btemp+1
  3075  0D4A  0847               	movf	??_showString+1,w
  3076  0D4B  0084               	movwf	4
  3077  0D4C  120A  118A  2500  120A  158A  	fcall	stringtab
  3078  0D51  0099               	movwf	25	;volatile
  3079  0D52                     l1682:
  3080  0D52  300D               	movlw	13
  3081  0D53  1283               	bcf	3,5	;RP0=0, select bank0
  3082  0D54  1303               	bcf	3,6	;RP1=0, select bank0
  3083  0D55  00C7               	movwf	??_showString+1
  3084  0D56  30FB               	movlw	251
  3085  0D57  00C6               	movwf	??_showString
  3086  0D58                     u2487:
  3087  0D58  0BC6               	decfsz	??_showString,f
  3088  0D59  2D58               	goto	u2487
  3089  0D5A  0BC7               	decfsz	??_showString+1,f
  3090  0D5B  2D58               	goto	u2487
  3091  0D5C                     l1684:
  3092  0D5C  3001               	movlw	1
  3093  0D5D  1283               	bcf	3,5	;RP0=0, select bank0
  3094  0D5E  1303               	bcf	3,6	;RP1=0, select bank0
  3095  0D5F  07C9               	addwf	showString@i,f
  3096  0D60  1803               	skipnc
  3097  0D61  0ACA               	incf	showString@i+1,f
  3098  0D62  3000               	movlw	0
  3099  0D63  07CA               	addwf	showString@i+1,f
  3100  0D64                     l1686:
  3101  0D64  0844               	movf	showString@var,w
  3102  0D65  00C0               	movwf	strlen@s
  3103  0D66  0845               	movf	showString@var+1,w
  3104  0D67  00C1               	movwf	strlen@s+1
  3105  0D68  120A  158A  24EA  120A  158A  	fcall	_strlen
  3106  0D6D  1283               	bcf	3,5	;RP0=0, select bank0
  3107  0D6E  1303               	bcf	3,6	;RP1=0, select bank0
  3108  0D6F  0841               	movf	?_strlen+1,w
  3109  0D70  024A               	subwf	showString@i+1,w
  3110  0D71  1D03               	skipz
  3111  0D72  2D75               	goto	u1215
  3112  0D73  0840               	movf	?_strlen,w
  3113  0D74  0249               	subwf	showString@i,w
  3114  0D75                     u1215:
  3115  0D75  1C03               	skipc
  3116  0D76  2D78               	goto	u1211
  3117  0D77  2D79               	goto	u1210
  3118  0D78                     u1211:
  3119  0D78  2D3A               	goto	l1680
  3120  0D79                     u1210:
  3121  0D79                     l1688:
  3122  0D79  300D               	movlw	13
  3123  0D7A  0099               	movwf	25	;volatile
  3124  0D7B  300D               	movlw	13
  3125  0D7C  1283               	bcf	3,5	;RP0=0, select bank0
  3126  0D7D  1303               	bcf	3,6	;RP1=0, select bank0
  3127  0D7E  00C7               	movwf	??_showString+1
  3128  0D7F  30FB               	movlw	251
  3129  0D80  00C6               	movwf	??_showString
  3130  0D81                     u2497:
  3131  0D81  0BC6               	decfsz	??_showString,f
  3132  0D82  2D81               	goto	u2497
  3133  0D83  0BC7               	decfsz	??_showString+1,f
  3134  0D84  2D81               	goto	u2497
  3135  0D85  300B               	movlw	11
  3136  0D86  1283               	bcf	3,5	;RP0=0, select bank0
  3137  0D87  1303               	bcf	3,6	;RP1=0, select bank0
  3138  0D88  0099               	movwf	25	;volatile
  3139  0D89                     l290:
  3140  0D89  0008               	return
  3141  0D8A                     __end_of_showString:
  3142                           
  3143                           	psect	text3
  3144  0CEA                     __ptext3:	
  3145 ;; *************** function _strlen *****************
  3146 ;; Defined at:
  3147 ;;		line 4 in file "C:\Program Files\Microchip\xc8\v2.31\pic\sources\c90\common\strlen.c"
  3148 ;; Parameters:    Size  Location     Type
  3149 ;;  s               2    0[BANK0 ] PTR const unsigned char 
  3150 ;;		 -> STR_18(49), STR_17(32), STR_16(69), STR_15(42), 
  3151 ;;		 -> STR_14(52), STR_13(55), STR_12(45), STR_11(39), 
  3152 ;;		 -> STR_10(45), STR_9(38), STR_8(30), STR_7(25), 
  3153 ;;		 -> STR_6(18), STR_5(19), STR_4(19), STR_3(27), 
  3154 ;;		 -> STR_2(30), STR_1(49), 
  3155 ;; Auto vars:     Size  Location     Type
  3156 ;;  cp              2    2[BANK0 ] PTR const unsigned char 
  3157 ;;		 -> STR_18(49), STR_17(32), STR_16(69), STR_15(42), 
  3158 ;;		 -> STR_14(52), STR_13(55), STR_12(45), STR_11(39), 
  3159 ;;		 -> STR_10(45), STR_9(38), STR_8(30), STR_7(25), 
  3160 ;;		 -> STR_6(18), STR_5(19), STR_4(19), STR_3(27), 
  3161 ;;		 -> STR_2(30), STR_1(49), 
  3162 ;; Return value:  Size  Location     Type
  3163 ;;                  2    0[BANK0 ] unsigned int 
  3164 ;; Registers used:
  3165 ;;		wreg, fsr0l, fsr0h, status,2, status,0, btemp+1, pclath
  3166 ;; Tracked objects:
  3167 ;;		On entry : 0/0
  3168 ;;		On exit  : 0/0
  3169 ;;		Unchanged: 0/0
  3170 ;; Data sizes:     COMMON   BANK0   BANK1   BANK3   BANK2
  3171 ;;      Params:         0       2       0       0       0
  3172 ;;      Locals:         0       2       0       0       0
  3173 ;;      Temps:          0       0       0       0       0
  3174 ;;      Totals:         0       4       0       0       0
  3175 ;;Total ram usage:        4 bytes
  3176 ;; Hardware stack levels used:    1
  3177 ;; Hardware stack levels required when called:    3
  3178 ;; This function calls:
  3179 ;;		Nothing
  3180 ;; This function is called by:
  3181 ;;		_showString
  3182 ;; This function uses a non-reentrant model
  3183 ;;
  3184                           
  3185                           
  3186                           ;psect for function _strlen
  3187  0CEA                     _strlen:
  3188  0CEA                     l1660:	
  3189                           ;incstack = 0
  3190                           ; Regs used in _strlen: [wreg-fsr0h+status,2+status,0+btemp+1+pclath]
  3191                           
  3192  0CEA  1283               	bcf	3,5	;RP0=0, select bank0
  3193  0CEB  1303               	bcf	3,6	;RP1=0, select bank0
  3194  0CEC  0840               	movf	strlen@s,w
  3195  0CED  00C2               	movwf	strlen@cp
  3196  0CEE  0841               	movf	strlen@s+1,w
  3197  0CEF  00C3               	movwf	strlen@cp+1
  3198  0CF0  2CF7               	goto	l1664
  3199  0CF1                     l1662:
  3200  0CF1  3001               	movlw	1
  3201  0CF2  07C2               	addwf	strlen@cp,f
  3202  0CF3  1803               	skipnc
  3203  0CF4  0AC3               	incf	strlen@cp+1,f
  3204  0CF5  3000               	movlw	0
  3205  0CF6  07C3               	addwf	strlen@cp+1,f
  3206  0CF7                     l1664:
  3207  0CF7  0843               	movf	strlen@cp+1,w
  3208  0CF8  00FF               	movwf	btemp+1
  3209  0CF9  0842               	movf	strlen@cp,w
  3210  0CFA  0084               	movwf	4
  3211  0CFB  120A  118A  2500  120A  158A  	fcall	stringtab
  3212  0D00  3A00               	xorlw	0
  3213  0D01  1D03               	skipz
  3214  0D02  2D04               	goto	u1191
  3215  0D03  2D05               	goto	u1190
  3216  0D04                     u1191:
  3217  0D04  2CF1               	goto	l1662
  3218  0D05                     u1190:
  3219  0D05                     l1666:
  3220  0D05  0840               	movf	strlen@s,w
  3221  0D06  0242               	subwf	strlen@cp,w
  3222  0D07  00C0               	movwf	?_strlen
  3223  0D08  0841               	movf	strlen@s+1,w
  3224  0D09  1C03               	skipc
  3225  0D0A  0A41               	incf	strlen@s+1,w
  3226  0D0B  0243               	subwf	strlen@cp+1,w
  3227  0D0C  00C1               	movwf	?_strlen+1
  3228  0D0D                     l830:
  3229  0D0D  0008               	return
  3230  0D0E                     __end_of_strlen:
  3231                           
  3232                           	psect	text4
  3233  0CBF                     __ptext4:	
  3234 ;; *************** function _setup *****************
  3235 ;; Defined at:
  3236 ;;		line 414 in file "proyecto_final.c"
  3237 ;; Parameters:    Size  Location     Type
  3238 ;;		None
  3239 ;; Auto vars:     Size  Location     Type
  3240 ;;		None
  3241 ;; Return value:  Size  Location     Type
  3242 ;;                  1    wreg      void 
  3243 ;; Registers used:
  3244 ;;		wreg, status,2, status,0, pclath, cstack
  3245 ;; Tracked objects:
  3246 ;;		On entry : 0/0
  3247 ;;		On exit  : 0/0
  3248 ;;		Unchanged: 0/0
  3249 ;; Data sizes:     COMMON   BANK0   BANK1   BANK3   BANK2
  3250 ;;      Params:         0       0       0       0       0
  3251 ;;      Locals:         0       0       0       0       0
  3252 ;;      Temps:          0       0       0       0       0
  3253 ;;      Totals:         0       0       0       0       0
  3254 ;;Total ram usage:        0 bytes
  3255 ;; Hardware stack levels used:    1
  3256 ;; Hardware stack levels required when called:    4
  3257 ;; This function calls:
  3258 ;;		_config_int_enable
  3259 ;;		_config_io
  3260 ;;		_config_iocb
  3261 ;;		_config_reloj
  3262 ;; This function is called by:
  3263 ;;		_main
  3264 ;; This function uses a non-reentrant model
  3265 ;;
  3266                           
  3267                           
  3268                           ;psect for function _setup
  3269  0CBF                     _setup:
  3270  0CBF                     l1670:	
  3271                           ;incstack = 0
  3272                           ; Regs used in _setup: [wreg+status,2+status,0+pclath+cstack]
  3273                           
  3274                           
  3275                           ;proyecto_final.c: 416: 
  3276  0CBF  120A  118A  24F9  120A  158A  	fcall	_config_reloj
  3277  0CC4                     l1672:
  3278                           
  3279                           ;proyecto_final.c: 417:         if(ADCON0bits.CHS == 5) {
  3280  0CC4  120A  158A  25F3  120A  158A  	fcall	_config_io
  3281  0CC9                     l1674:
  3282                           
  3283                           ;proyecto_final.c: 418:             PORTD = ADRESH;
  3284  0CC9  120A  158A  24AE  120A  158A  	fcall	_config_int_enable
  3285                           
  3286                           ;proyecto_final.c: 419:             temporal_posicion1 = PORTD;
  3287  0CCE  120A  158A  24A8  120A  158A  	fcall	_config_iocb
  3288  0CD3                     l233:
  3289  0CD3  0008               	return
  3290  0CD4                     __end_of_setup:
  3291                           
  3292                           	psect	text5
  3293  04F9                     __ptext5:	
  3294 ;; *************** function _config_reloj *****************
  3295 ;; Defined at:
  3296 ;;		line 591 in file "proyecto_final.c"
  3297 ;; Parameters:    Size  Location     Type
  3298 ;;		None
  3299 ;; Auto vars:     Size  Location     Type
  3300 ;;		None
  3301 ;; Return value:  Size  Location     Type
  3302 ;;                  1    wreg      void 
  3303 ;; Registers used:
  3304 ;;		None
  3305 ;; Tracked objects:
  3306 ;;		On entry : 0/0
  3307 ;;		On exit  : 0/0
  3308 ;;		Unchanged: 0/0
  3309 ;; Data sizes:     COMMON   BANK0   BANK1   BANK3   BANK2
  3310 ;;      Params:         0       0       0       0       0
  3311 ;;      Locals:         0       0       0       0       0
  3312 ;;      Temps:          0       0       0       0       0
  3313 ;;      Totals:         0       0       0       0       0
  3314 ;;Total ram usage:        0 bytes
  3315 ;; Hardware stack levels used:    1
  3316 ;; Hardware stack levels required when called:    3
  3317 ;; This function calls:
  3318 ;;		Nothing
  3319 ;; This function is called by:
  3320 ;;		_setup
  3321 ;; This function uses a non-reentrant model
  3322 ;;
  3323                           
  3324                           
  3325                           ;psect for function _config_reloj
  3326  04F9                     _config_reloj:
  3327  04F9                     l1572:	
  3328                           ;incstack = 0
  3329                           ; Regs used in _config_reloj: []
  3330                           
  3331                           
  3332                           ;proyecto_final.c: 593:     T2CONbits.T2CKPS0 = 1;
  3333  04F9  1683               	bsf	3,5	;RP0=1, select bank1
  3334  04FA  1303               	bcf	3,6	;RP1=0, select bank1
  3335  04FB  170F               	bsf	15,6	;volatile
  3336                           
  3337                           ;proyecto_final.c: 594:     T2CONbits.TMR2ON = 1;
  3338  04FC  168F               	bsf	15,5	;volatile
  3339                           
  3340                           ;proyecto_final.c: 595: 
  3341  04FD  160F               	bsf	15,4	;volatile
  3342                           
  3343                           ;proyecto_final.c: 596:     while (!PIR1bits.TMR2IF);
  3344  04FE  140F               	bsf	15,0	;volatile
  3345  04FF                     l272:	
  3346                           ;proyecto_final.c: 598: 
  3347                           
  3348  04FF  0008               	return
  3349  0500                     __end_of_config_reloj:
  3350                           
  3351                           	psect	text6
  3352  0CA8                     __ptext6:	
  3353 ;; *************** function _config_iocb *****************
  3354 ;; Defined at:
  3355 ;;		line 698 in file "proyecto_final.c"
  3356 ;; Parameters:    Size  Location     Type
  3357 ;;		None
  3358 ;; Auto vars:     Size  Location     Type
  3359 ;;		None
  3360 ;; Return value:  Size  Location     Type
  3361 ;;                  1    wreg      void 
  3362 ;; Registers used:
  3363 ;;		wreg
  3364 ;; Tracked objects:
  3365 ;;		On entry : 0/0
  3366 ;;		On exit  : 0/0
  3367 ;;		Unchanged: 0/0
  3368 ;; Data sizes:     COMMON   BANK0   BANK1   BANK3   BANK2
  3369 ;;      Params:         0       0       0       0       0
  3370 ;;      Locals:         0       0       0       0       0
  3371 ;;      Temps:          0       0       0       0       0
  3372 ;;      Totals:         0       0       0       0       0
  3373 ;;Total ram usage:        0 bytes
  3374 ;; Hardware stack levels used:    1
  3375 ;; Hardware stack levels required when called:    3
  3376 ;; This function calls:
  3377 ;;		Nothing
  3378 ;; This function is called by:
  3379 ;;		_setup
  3380 ;; This function uses a non-reentrant model
  3381 ;;
  3382                           
  3383                           
  3384                           ;psect for function _config_iocb
  3385  0CA8                     _config_iocb:
  3386  0CA8                     l1646:	
  3387                           ;incstack = 0
  3388                           ; Regs used in _config_iocb: [wreg]
  3389                           
  3390  0CA8  30FF               	movlw	255
  3391  0CA9  1683               	bsf	3,5	;RP0=1, select bank1
  3392  0CAA  1303               	bcf	3,6	;RP1=0, select bank1
  3393  0CAB  0096               	movwf	22	;volatile
  3394  0CAC                     l1648:
  3395  0CAC  100B               	bcf	11,0	;volatile
  3396  0CAD                     l284:
  3397  0CAD  0008               	return
  3398  0CAE                     __end_of_config_iocb:
  3399                           
  3400                           	psect	text7
  3401  0DF3                     __ptext7:	
  3402 ;; *************** function _config_io *****************
  3403 ;; Defined at:
  3404 ;;		line 601 in file "proyecto_final.c"
  3405 ;; Parameters:    Size  Location     Type
  3406 ;;		None
  3407 ;; Auto vars:     Size  Location     Type
  3408 ;;		None
  3409 ;; Return value:  Size  Location     Type
  3410 ;;                  1    wreg      void 
  3411 ;; Registers used:
  3412 ;;		wreg, status,2, status,0
  3413 ;; Tracked objects:
  3414 ;;		On entry : 0/0
  3415 ;;		On exit  : 0/0
  3416 ;;		Unchanged: 0/0
  3417 ;; Data sizes:     COMMON   BANK0   BANK1   BANK3   BANK2
  3418 ;;      Params:         0       0       0       0       0
  3419 ;;      Locals:         0       0       0       0       0
  3420 ;;      Temps:          0       1       0       0       0
  3421 ;;      Totals:         0       1       0       0       0
  3422 ;;Total ram usage:        1 bytes
  3423 ;; Hardware stack levels used:    1
  3424 ;; Hardware stack levels required when called:    3
  3425 ;; This function calls:
  3426 ;;		Nothing
  3427 ;; This function is called by:
  3428 ;;		_setup
  3429 ;; This function uses a non-reentrant model
  3430 ;;
  3431                           
  3432                           
  3433                           ;psect for function _config_io
  3434  0DF3                     _config_io:
  3435  0DF3                     l1574:	
  3436                           ;incstack = 0
  3437                           ; Regs used in _config_io: [wreg+status,2+status,0]
  3438                           
  3439                           
  3440                           ;proyecto_final.c: 604:     TXSTAbits.BRGH = 1;
  3441  0DF3  1683               	bsf	3,5	;RP0=1, select bank3
  3442  0DF4  1703               	bsf	3,6	;RP1=1, select bank3
  3443  0DF5  0189               	clrf	9	;volatile
  3444  0DF6                     l1576:
  3445                           
  3446                           ;proyecto_final.c: 605: 
  3447  0DF6  30E0               	movlw	224
  3448  0DF7  0088               	movwf	8	;volatile
  3449  0DF8                     l1578:
  3450                           
  3451                           ;proyecto_final.c: 607: 
  3452  0DF8  30FF               	movlw	255
  3453  0DF9  1683               	bsf	3,5	;RP0=1, select bank1
  3454  0DFA  1303               	bcf	3,6	;RP1=0, select bank1
  3455  0DFB  0086               	movwf	6	;volatile
  3456                           
  3457                           ;proyecto_final.c: 608:     SPBRG = 207;
  3458  0DFC  0185               	clrf	5	;volatile
  3459  0DFD                     l1580:
  3460                           
  3461                           ;proyecto_final.c: 610: 
  3462  0DFD  3007               	movlw	7
  3463  0DFE  0089               	movwf	9	;volatile
  3464  0DFF                     l1582:
  3465                           
  3466                           ;proyecto_final.c: 611:     RCSTAbits.SPEN = 1;
  3467  0DFF  0188               	clrf	8	;volatile
  3468                           
  3469                           ;proyecto_final.c: 612:     RCSTAbits.RX9 = 0;
  3470  0E00  30B9               	movlw	185
  3471  0E01  0087               	movwf	7	;volatile
  3472  0E02                     l1584:
  3473                           
  3474                           ;proyecto_final.c: 614: 
  3475  0E02  1381               	bcf	1,7	;volatile
  3476                           
  3477                           ;proyecto_final.c: 615:     TXSTAbits.TXEN = 1;
  3478  0E03  30FF               	movlw	255
  3479  0E04  0095               	movwf	21	;volatile
  3480  0E05                     l1586:
  3481                           
  3482                           ;proyecto_final.c: 617: 
  3483  0E05  1283               	bcf	3,5	;RP0=0, select bank0
  3484  0E06  1303               	bcf	3,6	;RP1=0, select bank0
  3485  0E07  0185               	clrf	5	;volatile
  3486  0E08                     l1588:
  3487                           
  3488                           ;proyecto_final.c: 618: 
  3489  0E08  30FF               	movlw	255
  3490  0E09  0086               	movwf	6	;volatile
  3491                           
  3492                           ;proyecto_final.c: 620: }
  3493  0E0A  0189               	clrf	9	;volatile
  3494                           
  3495                           ;proyecto_final.c: 621: 
  3496  0E0B  0188               	clrf	8	;volatile
  3497                           
  3498                           ;proyecto_final.c: 622: void config_int_enable(){
  3499  0E0C  0187               	clrf	7	;volatile
  3500  0E0D                     l1590:
  3501                           
  3502                           ;proyecto_final.c: 627:     INTCONbits.RBIF = 0;
  3503  0E0D  1683               	bsf	3,5	;RP0=1, select bank1
  3504  0E0E  1303               	bcf	3,6	;RP1=0, select bank1
  3505  0E0F  139F               	bcf	31,7	;volatile
  3506  0E10                     l1592:
  3507                           
  3508                           ;proyecto_final.c: 628: 
  3509  0E10  121F               	bcf	31,4	;volatile
  3510  0E11                     l1594:
  3511                           
  3512                           ;proyecto_final.c: 629:     INTCONbits.PEIE = 1;
  3513  0E11  129F               	bcf	31,5	;volatile
  3514  0E12                     l1596:
  3515                           
  3516                           ;proyecto_final.c: 631:     PIR1bits.ADIF = 0;
  3517  0E12  1283               	bcf	3,5	;RP0=0, select bank0
  3518  0E13  1303               	bcf	3,6	;RP1=0, select bank0
  3519  0E14  081F               	movf	31,w	;volatile
  3520  0E15  393F               	andlw	-193
  3521  0E16  3880               	iorlw	128
  3522  0E17  009F               	movwf	31	;volatile
  3523  0E18                     l1598:
  3524                           
  3525                           ;proyecto_final.c: 632: 
  3526  0E18  081F               	movf	31,w	;volatile
  3527  0E19  39C3               	andlw	-61
  3528  0E1A  3814               	iorlw	20
  3529  0E1B  009F               	movwf	31	;volatile
  3530  0E1C                     l1600:
  3531                           
  3532                           ;proyecto_final.c: 633: 
  3533  0E1C  3020               	movlw	32
  3534  0E1D  1283               	bcf	3,5	;RP0=0, select bank0
  3535  0E1E  1303               	bcf	3,6	;RP1=0, select bank0
  3536  0E1F  00C0               	movwf	??_config_io
  3537  0E20                     u2507:
  3538  0E20  0BC0               	decfsz	??_config_io,f
  3539  0E21  2E20               	goto	u2507
  3540  0E22  0000               	nop
  3541  0E23                     l1602:
  3542                           
  3543                           ;proyecto_final.c: 634:     PIE1bits.RCIE = 1;
  3544  0E23  1283               	bcf	3,5	;RP0=0, select bank0
  3545  0E24  1303               	bcf	3,6	;RP1=0, select bank0
  3546  0E25  141F               	bsf	31,0	;volatile
  3547  0E26                     l1604:
  3548                           
  3549                           ;proyecto_final.c: 637:     return;
  3550  0E26  30FA               	movlw	250
  3551  0E27  1683               	bsf	3,5	;RP0=1, select bank1
  3552  0E28  1303               	bcf	3,6	;RP1=0, select bank1
  3553  0E29  0092               	movwf	18	;volatile
  3554  0E2A                     l1606:
  3555                           
  3556                           ;proyecto_final.c: 638: }
  3557  0E2A  303F               	movlw	-193
  3558  0E2B  1283               	bcf	3,5	;RP0=0, select bank0
  3559  0E2C  1303               	bcf	3,6	;RP1=0, select bank0
  3560  0E2D  0597               	andwf	23,f	;volatile
  3561  0E2E                     l1608:
  3562                           
  3563                           ;proyecto_final.c: 639: 
  3564  0E2E  0817               	movf	23,w	;volatile
  3565  0E2F  39F0               	andlw	-16
  3566  0E30  380C               	iorlw	12
  3567  0E31  0097               	movwf	23	;volatile
  3568  0E32                     l1610:
  3569                           
  3570                           ;proyecto_final.c: 640: 
  3571  0E32  081D               	movf	29,w	;volatile
  3572  0E33  39F0               	andlw	-16
  3573  0E34  380C               	iorlw	12
  3574  0E35  009D               	movwf	29	;volatile
  3575  0E36                     l1612:
  3576                           
  3577                           ;proyecto_final.c: 642: 
  3578  0E36  300F               	movlw	15
  3579  0E37  0095               	movwf	21	;volatile
  3580  0E38                     l1614:
  3581                           
  3582                           ;proyecto_final.c: 643:     IOCB = 0xFF;
  3583  0E38  300F               	movlw	15
  3584  0E39  009B               	movwf	27	;volatile
  3585  0E3A                     l1616:
  3586                           
  3587                           ;proyecto_final.c: 644: 
  3588  0E3A  30CF               	movlw	-49
  3589  0E3B  0597               	andwf	23,f	;volatile
  3590  0E3C                     l1618:
  3591                           
  3592                           ;proyecto_final.c: 645:     INTCONbits.RBIF = 0;
  3593  0E3C  129D               	bcf	29,5	;volatile
  3594  0E3D                     l1620:
  3595                           
  3596                           ;proyecto_final.c: 646: 
  3597  0E3D  121D               	bcf	29,4	;volatile
  3598  0E3E                     l1622:
  3599                           
  3600                           ;proyecto_final.c: 648: }
  3601  0E3E  108C               	bcf	12,1	;volatile
  3602  0E3F                     l1624:
  3603                           
  3604                           ;proyecto_final.c: 649: 
  3605  0E3F  1492               	bsf	18,1	;volatile
  3606  0E40                     l1626:
  3607                           
  3608                           ;proyecto_final.c: 650: 
  3609  0E40  1412               	bsf	18,0	;volatile
  3610  0E41                     l1628:
  3611                           
  3612                           ;proyecto_final.c: 651: void showString(char *var){
  3613  0E41  1512               	bsf	18,2	;volatile
  3614  0E42                     l275:	
  3615                           ;proyecto_final.c: 653: 
  3616                           
  3617  0E42  1C8C               	btfss	12,1	;volatile
  3618  0E43  2E45               	goto	u1181
  3619  0E44  2E46               	goto	u1180
  3620  0E45                     u1181:
  3621  0E45  2E42               	goto	l275
  3622  0E46                     u1180:
  3623  0E46                     l277:
  3624                           
  3625                           ;proyecto_final.c: 654:     for (i = 0; i < strlen(var); i++) {
  3626  0E46  108C               	bcf	12,1	;volatile
  3627                           
  3628                           ;proyecto_final.c: 660:     _delay((unsigned long)((5)*(8000000/4000.0)));
  3629  0E47  1683               	bsf	3,5	;RP0=1, select bank1
  3630  0E48  1303               	bcf	3,6	;RP1=0, select bank1
  3631  0E49  1218               	bcf	24,4	;volatile
  3632                           
  3633                           ;proyecto_final.c: 661:     TXREG = 11;
  3634  0E4A  1518               	bsf	24,2	;volatile
  3635                           
  3636                           ;proyecto_final.c: 663: }
  3637  0E4B  1683               	bsf	3,5	;RP0=1, select bank3
  3638  0E4C  1703               	bsf	3,6	;RP1=1, select bank3
  3639  0E4D  1587               	bsf	7,3	;volatile
  3640  0E4E                     l1630:
  3641  0E4E  30CF               	movlw	207
  3642  0E4F  1683               	bsf	3,5	;RP0=1, select bank1
  3643  0E50  1303               	bcf	3,6	;RP1=0, select bank1
  3644  0E51  0099               	movwf	25	;volatile
  3645  0E52                     l1632:
  3646  0E52  019A               	clrf	26	;volatile
  3647  0E53                     l1634:
  3648  0E53  1283               	bcf	3,5	;RP0=0, select bank0
  3649  0E54  1303               	bcf	3,6	;RP1=0, select bank0
  3650  0E55  1798               	bsf	24,7	;volatile
  3651  0E56                     l1636:
  3652  0E56  1318               	bcf	24,6	;volatile
  3653  0E57                     l1638:
  3654  0E57  1618               	bsf	24,4	;volatile
  3655  0E58                     l1640:
  3656  0E58  1683               	bsf	3,5	;RP0=1, select bank1
  3657  0E59  1303               	bcf	3,6	;RP1=0, select bank1
  3658  0E5A  1698               	bsf	24,5	;volatile
  3659  0E5B                     l278:
  3660  0E5B  0008               	return
  3661  0E5C                     __end_of_config_io:
  3662                           
  3663                           	psect	text8
  3664  0CAE                     __ptext8:	
  3665 ;; *************** function _config_int_enable *****************
  3666 ;; Defined at:
  3667 ;;		line 679 in file "proyecto_final.c"
  3668 ;; Parameters:    Size  Location     Type
  3669 ;;		None
  3670 ;; Auto vars:     Size  Location     Type
  3671 ;;		None
  3672 ;; Return value:  Size  Location     Type
  3673 ;;                  1    wreg      void 
  3674 ;; Registers used:
  3675 ;;		None
  3676 ;; Tracked objects:
  3677 ;;		On entry : 0/0
  3678 ;;		On exit  : 0/0
  3679 ;;		Unchanged: 0/0
  3680 ;; Data sizes:     COMMON   BANK0   BANK1   BANK3   BANK2
  3681 ;;      Params:         0       0       0       0       0
  3682 ;;      Locals:         0       0       0       0       0
  3683 ;;      Temps:          0       0       0       0       0
  3684 ;;      Totals:         0       0       0       0       0
  3685 ;;Total ram usage:        0 bytes
  3686 ;; Hardware stack levels used:    1
  3687 ;; Hardware stack levels required when called:    3
  3688 ;; This function calls:
  3689 ;;		Nothing
  3690 ;; This function is called by:
  3691 ;;		_setup
  3692 ;; This function uses a non-reentrant model
  3693 ;;
  3694                           
  3695                           
  3696                           ;psect for function _config_int_enable
  3697  0CAE                     _config_int_enable:
  3698  0CAE                     l1644:	
  3699                           ;incstack = 0
  3700                           ; Regs used in _config_int_enable: []
  3701                           
  3702  0CAE  178B               	bsf	11,7	;volatile
  3703  0CAF  158B               	bsf	11,3	;volatile
  3704  0CB0  100B               	bcf	11,0	;volatile
  3705  0CB1  170B               	bsf	11,6	;volatile
  3706  0CB2  1683               	bsf	3,5	;RP0=1, select bank1
  3707  0CB3  1303               	bcf	3,6	;RP1=0, select bank1
  3708  0CB4  170C               	bsf	12,6	;volatile
  3709  0CB5  1283               	bcf	3,5	;RP0=0, select bank0
  3710  0CB6  1303               	bcf	3,6	;RP1=0, select bank0
  3711  0CB7  130C               	bcf	12,6	;volatile
  3712  0CB8  1683               	bsf	3,5	;RP0=1, select bank1
  3713  0CB9  1303               	bcf	3,6	;RP1=0, select bank1
  3714  0CBA  168C               	bsf	12,5	;volatile
  3715  0CBB  1283               	bcf	3,5	;RP0=0, select bank0
  3716  0CBC  1303               	bcf	3,6	;RP1=0, select bank0
  3717  0CBD  128C               	bcf	12,5	;volatile
  3718  0CBE                     l281:
  3719  0CBE  0008               	return
  3720  0CBF                     __end_of_config_int_enable:
  3721                           
  3722                           	psect	text9
  3723  0E5C                     __ptext9:	
  3724 ;; *************** function _dec_to_ascii *****************
  3725 ;; Defined at:
  3726 ;;		line 389 in file "proyecto_final.c"
  3727 ;; Parameters:    Size  Location     Type
  3728 ;;  val             2    0[BANK0 ] int 
  3729 ;; Auto vars:     Size  Location     Type
  3730 ;;		None
  3731 ;; Return value:  Size  Location     Type
  3732 ;;                  2    0[BANK0 ] int 
  3733 ;; Registers used:
  3734 ;;		wreg, status,2, status,0
  3735 ;; Tracked objects:
  3736 ;;		On entry : 0/0
  3737 ;;		On exit  : 0/0
  3738 ;;		Unchanged: 0/0
  3739 ;; Data sizes:     COMMON   BANK0   BANK1   BANK3   BANK2
  3740 ;;      Params:         0       2       0       0       0
  3741 ;;      Locals:         0       0       0       0       0
  3742 ;;      Temps:          0       0       0       0       0
  3743 ;;      Totals:         0       2       0       0       0
  3744 ;;Total ram usage:        2 bytes
  3745 ;; Hardware stack levels used:    1
  3746 ;; Hardware stack levels required when called:    3
  3747 ;; This function calls:
  3748 ;;		Nothing
  3749 ;; This function is called by:
  3750 ;;		_main
  3751 ;; This function uses a non-reentrant model
  3752 ;;
  3753                           
  3754                           
  3755                           ;psect for function _dec_to_ascii
  3756  0E5C                     _dec_to_ascii:
  3757  0E5C                     l1690:	
  3758                           ;incstack = 0
  3759                           ; Regs used in _dec_to_ascii: [wreg+status,2+status,0]
  3760                           
  3761                           
  3762                           ;proyecto_final.c: 390:  EEADR = address;
  3763  0E5C  1283               	bcf	3,5	;RP0=0, select bank0
  3764  0E5D  1303               	bcf	3,6	;RP1=0, select bank0
  3765  0E5E  0840               	movf	dec_to_ascii@val,w
  3766  0E5F  0441               	iorwf	dec_to_ascii@val+1,w
  3767  0E60  1D03               	btfss	3,2
  3768  0E61  2E63               	goto	u1221
  3769  0E62  2E64               	goto	u1220
  3770  0E63                     u1221:
  3771  0E63  2E69               	goto	l1698
  3772  0E64                     u1220:
  3773  0E64                     l1692:
  3774                           
  3775                           ;proyecto_final.c: 391:  EECON1bits.EEPGD = 0;
  3776  0E64  3030               	movlw	48
  3777  0E65  00C0               	movwf	?_dec_to_ascii
  3778  0E66  3000               	movlw	0
  3779  0E67  00C1               	movwf	?_dec_to_ascii+1
  3780  0E68  2ED4               	goto	l212
  3781  0E69                     l1698:
  3782  0E69  0340               	decf	dec_to_ascii@val,w
  3783  0E6A  0441               	iorwf	dec_to_ascii@val+1,w
  3784  0E6B  1D03               	btfss	3,2
  3785  0E6C  2E6E               	goto	u1231
  3786  0E6D  2E6F               	goto	u1230
  3787  0E6E                     u1231:
  3788  0E6E  2E74               	goto	l1706
  3789  0E6F                     u1230:
  3790  0E6F                     l1700:
  3791                           
  3792                           ;proyecto_final.c: 393:  int data = EEDATA;
  3793  0E6F  3031               	movlw	49
  3794  0E70  00C0               	movwf	?_dec_to_ascii
  3795  0E71  3000               	movlw	0
  3796  0E72  00C1               	movwf	?_dec_to_ascii+1
  3797  0E73  2ED4               	goto	l212
  3798  0E74                     l1706:
  3799  0E74  3002               	movlw	2
  3800  0E75  0640               	xorwf	dec_to_ascii@val,w
  3801  0E76  0441               	iorwf	dec_to_ascii@val+1,w
  3802  0E77  1D03               	btfss	3,2
  3803  0E78  2E7A               	goto	u1241
  3804  0E79  2E7B               	goto	u1240
  3805  0E7A                     u1241:
  3806  0E7A  2E80               	goto	l1714
  3807  0E7B                     u1240:
  3808  0E7B                     l1708:
  3809                           
  3810                           ;proyecto_final.c: 395:  return data;
  3811  0E7B  3032               	movlw	50
  3812  0E7C  00C0               	movwf	?_dec_to_ascii
  3813  0E7D  3000               	movlw	0
  3814  0E7E  00C1               	movwf	?_dec_to_ascii+1
  3815  0E7F  2ED4               	goto	l212
  3816  0E80                     l1714:
  3817  0E80  3003               	movlw	3
  3818  0E81  0640               	xorwf	dec_to_ascii@val,w
  3819  0E82  0441               	iorwf	dec_to_ascii@val+1,w
  3820  0E83  1D03               	btfss	3,2
  3821  0E84  2E86               	goto	u1251
  3822  0E85  2E87               	goto	u1250
  3823  0E86                     u1251:
  3824  0E86  2E8C               	goto	l1722
  3825  0E87                     u1250:
  3826  0E87                     l1716:
  3827                           
  3828                           ;proyecto_final.c: 397: }
  3829  0E87  3033               	movlw	51
  3830  0E88  00C0               	movwf	?_dec_to_ascii
  3831  0E89  3000               	movlw	0
  3832  0E8A  00C1               	movwf	?_dec_to_ascii+1
  3833  0E8B  2ED4               	goto	l212
  3834  0E8C                     l1722:
  3835  0E8C  3004               	movlw	4
  3836  0E8D  0640               	xorwf	dec_to_ascii@val,w
  3837  0E8E  0441               	iorwf	dec_to_ascii@val+1,w
  3838  0E8F  1D03               	btfss	3,2
  3839  0E90  2E92               	goto	u1261
  3840  0E91  2E93               	goto	u1260
  3841  0E92                     u1261:
  3842  0E92  2E98               	goto	l1730
  3843  0E93                     u1260:
  3844  0E93                     l1724:
  3845                           
  3846                           ;proyecto_final.c: 399: 
  3847  0E93  3034               	movlw	52
  3848  0E94  00C0               	movwf	?_dec_to_ascii
  3849  0E95  3000               	movlw	0
  3850  0E96  00C1               	movwf	?_dec_to_ascii+1
  3851  0E97  2ED4               	goto	l212
  3852  0E98                     l1730:
  3853  0E98  3005               	movlw	5
  3854  0E99  0640               	xorwf	dec_to_ascii@val,w
  3855  0E9A  0441               	iorwf	dec_to_ascii@val+1,w
  3856  0E9B  1D03               	btfss	3,2
  3857  0E9C  2E9E               	goto	u1271
  3858  0E9D  2E9F               	goto	u1270
  3859  0E9E                     u1271:
  3860  0E9E  2EA4               	goto	l1738
  3861  0E9F                     u1270:
  3862  0E9F                     l1732:
  3863                           
  3864                           ;proyecto_final.c: 401: 
  3865  0E9F  3035               	movlw	53
  3866  0EA0  00C0               	movwf	?_dec_to_ascii
  3867  0EA1  3000               	movlw	0
  3868  0EA2  00C1               	movwf	?_dec_to_ascii+1
  3869  0EA3  2ED4               	goto	l212
  3870  0EA4                     l1738:
  3871  0EA4  3006               	movlw	6
  3872  0EA5  0640               	xorwf	dec_to_ascii@val,w
  3873  0EA6  0441               	iorwf	dec_to_ascii@val+1,w
  3874  0EA7  1D03               	btfss	3,2
  3875  0EA8  2EAA               	goto	u1281
  3876  0EA9  2EAB               	goto	u1280
  3877  0EAA                     u1281:
  3878  0EAA  2EB0               	goto	l1746
  3879  0EAB                     u1280:
  3880  0EAB                     l1740:
  3881                           
  3882                           ;proyecto_final.c: 403: 
  3883  0EAB  3036               	movlw	54
  3884  0EAC  00C0               	movwf	?_dec_to_ascii
  3885  0EAD  3000               	movlw	0
  3886  0EAE  00C1               	movwf	?_dec_to_ascii+1
  3887  0EAF  2ED4               	goto	l212
  3888  0EB0                     l1746:
  3889  0EB0  3007               	movlw	7
  3890  0EB1  0640               	xorwf	dec_to_ascii@val,w
  3891  0EB2  0441               	iorwf	dec_to_ascii@val+1,w
  3892  0EB3  1D03               	btfss	3,2
  3893  0EB4  2EB6               	goto	u1291
  3894  0EB5  2EB7               	goto	u1290
  3895  0EB6                     u1291:
  3896  0EB6  2EBC               	goto	l1754
  3897  0EB7                     u1290:
  3898  0EB7                     l1748:
  3899                           
  3900                           ;proyecto_final.c: 405: 
  3901  0EB7  3037               	movlw	55
  3902  0EB8  00C0               	movwf	?_dec_to_ascii
  3903  0EB9  3000               	movlw	0
  3904  0EBA  00C1               	movwf	?_dec_to_ascii+1
  3905  0EBB  2ED4               	goto	l212
  3906  0EBC                     l1754:
  3907  0EBC  3008               	movlw	8
  3908  0EBD  0640               	xorwf	dec_to_ascii@val,w
  3909  0EBE  0441               	iorwf	dec_to_ascii@val+1,w
  3910  0EBF  1D03               	btfss	3,2
  3911  0EC0  2EC2               	goto	u1301
  3912  0EC1  2EC3               	goto	u1300
  3913  0EC2                     u1301:
  3914  0EC2  2EC8               	goto	l1762
  3915  0EC3                     u1300:
  3916  0EC3                     l1756:
  3917                           
  3918                           ;proyecto_final.c: 407:         IOCB_interrupt();
  3919  0EC3  3038               	movlw	56
  3920  0EC4  00C0               	movwf	?_dec_to_ascii
  3921  0EC5  3000               	movlw	0
  3922  0EC6  00C1               	movwf	?_dec_to_ascii+1
  3923  0EC7  2ED4               	goto	l212
  3924  0EC8                     l1762:
  3925  0EC8  3009               	movlw	9
  3926  0EC9  0640               	xorwf	dec_to_ascii@val,w
  3927  0ECA  0441               	iorwf	dec_to_ascii@val+1,w
  3928  0ECB  1D03               	btfss	3,2
  3929  0ECC  2ECE               	goto	u1311
  3930  0ECD  2ECF               	goto	u1310
  3931  0ECE                     u1311:
  3932  0ECE  2ED4               	goto	l225
  3933  0ECF                     u1310:
  3934  0ECF                     l1764:
  3935                           
  3936                           ;proyecto_final.c: 409: 
  3937  0ECF  3039               	movlw	57
  3938  0ED0  00C0               	movwf	?_dec_to_ascii
  3939  0ED1  3000               	movlw	0
  3940  0ED2  00C1               	movwf	?_dec_to_ascii+1
  3941  0ED3  2ED4               	goto	l212
  3942  0ED4                     l225:
  3943  0ED4                     l212:
  3944  0ED4  0008               	return
  3945  0ED5                     __end_of_dec_to_ascii:
  3946                           
  3947                           	psect	text10
  3948  0D0E                     __ptext10:	
  3949 ;; *************** function ___wmul *****************
  3950 ;; Defined at:
  3951 ;;		line 15 in file "C:\Program Files\Microchip\xc8\v2.31\pic\sources\c90\common\Umul16.c"
  3952 ;; Parameters:    Size  Location     Type
  3953 ;;  multiplier      2    0[BANK0 ] unsigned int 
  3954 ;;  multiplicand    2    2[BANK0 ] unsigned int 
  3955 ;; Auto vars:     Size  Location     Type
  3956 ;;  product         2    4[BANK0 ] unsigned int 
  3957 ;; Return value:  Size  Location     Type
  3958 ;;                  2    0[BANK0 ] unsigned int 
  3959 ;; Registers used:
  3960 ;;		wreg, status,2, status,0
  3961 ;; Tracked objects:
  3962 ;;		On entry : 0/0
  3963 ;;		On exit  : 0/0
  3964 ;;		Unchanged: 0/0
  3965 ;; Data sizes:     COMMON   BANK0   BANK1   BANK3   BANK2
  3966 ;;      Params:         0       4       0       0       0
  3967 ;;      Locals:         0       2       0       0       0
  3968 ;;      Temps:          0       0       0       0       0
  3969 ;;      Totals:         0       6       0       0       0
  3970 ;;Total ram usage:        6 bytes
  3971 ;; Hardware stack levels used:    1
  3972 ;; Hardware stack levels required when called:    3
  3973 ;; This function calls:
  3974 ;;		Nothing
  3975 ;; This function is called by:
  3976 ;;		_main
  3977 ;; This function uses a non-reentrant model
  3978 ;;
  3979                           
  3980                           
  3981                           ;psect for function ___wmul
  3982  0D0E                     ___wmul:
  3983  0D0E                     l1864:	
  3984                           ;incstack = 0
  3985                           ; Regs used in ___wmul: [wreg+status,2+status,0]
  3986                           
  3987  0D0E  1283               	bcf	3,5	;RP0=0, select bank0
  3988  0D0F  1303               	bcf	3,6	;RP1=0, select bank0
  3989  0D10  01C4               	clrf	___wmul@product
  3990  0D11  01C5               	clrf	___wmul@product+1
  3991  0D12                     l1866:
  3992  0D12  1C40               	btfss	___wmul@multiplier,0
  3993  0D13  2D15               	goto	u1491
  3994  0D14  2D16               	goto	u1490
  3995  0D15                     u1491:
  3996  0D15  2D1C               	goto	l376
  3997  0D16                     u1490:
  3998  0D16                     l1868:
  3999  0D16  0842               	movf	___wmul@multiplicand,w
  4000  0D17  07C4               	addwf	___wmul@product,f
  4001  0D18  1803               	skipnc
  4002  0D19  0AC5               	incf	___wmul@product+1,f
  4003  0D1A  0843               	movf	___wmul@multiplicand+1,w
  4004  0D1B  07C5               	addwf	___wmul@product+1,f
  4005  0D1C                     l376:
  4006  0D1C  3001               	movlw	1
  4007  0D1D                     u1505:
  4008  0D1D  1003               	clrc
  4009  0D1E  0DC2               	rlf	___wmul@multiplicand,f
  4010  0D1F  0DC3               	rlf	___wmul@multiplicand+1,f
  4011  0D20  3EFF               	addlw	-1
  4012  0D21  1D03               	skipz
  4013  0D22  2D1D               	goto	u1505
  4014  0D23                     l1870:
  4015  0D23  3001               	movlw	1
  4016  0D24                     u1515:
  4017  0D24  1003               	clrc
  4018  0D25  0CC1               	rrf	___wmul@multiplier+1,f
  4019  0D26  0CC0               	rrf	___wmul@multiplier,f
  4020  0D27  3EFF               	addlw	-1
  4021  0D28  1D03               	skipz
  4022  0D29  2D24               	goto	u1515
  4023  0D2A                     l1872:
  4024  0D2A  0840               	movf	___wmul@multiplier,w
  4025  0D2B  0441               	iorwf	___wmul@multiplier+1,w
  4026  0D2C  1D03               	btfss	3,2
  4027  0D2D  2D2F               	goto	u1521
  4028  0D2E  2D30               	goto	u1520
  4029  0D2F                     u1521:
  4030  0D2F  2D12               	goto	l1866
  4031  0D30                     u1520:
  4032  0D30                     l1874:
  4033  0D30  0845               	movf	___wmul@product+1,w
  4034  0D31  00C1               	movwf	?___wmul+1
  4035  0D32  0844               	movf	___wmul@product,w
  4036  0D33  00C0               	movwf	?___wmul
  4037  0D34                     l378:
  4038  0D34  0008               	return
  4039  0D35                     __end_of___wmul:
  4040                           
  4041                           	psect	text11
  4042  0D8A                     __ptext11:	
  4043 ;; *************** function ___awdiv *****************
  4044 ;; Defined at:
  4045 ;;		line 5 in file "C:\Program Files\Microchip\xc8\v2.31\pic\sources\c90\common\awdiv.c"
  4046 ;; Parameters:    Size  Location     Type
  4047 ;;  divisor         2    0[BANK0 ] int 
  4048 ;;  dividend        2    2[BANK0 ] int 
  4049 ;; Auto vars:     Size  Location     Type
  4050 ;;  quotient        2    7[BANK0 ] int 
  4051 ;;  sign            1    6[BANK0 ] unsigned char 
  4052 ;;  counter         1    5[BANK0 ] unsigned char 
  4053 ;; Return value:  Size  Location     Type
  4054 ;;                  2    0[BANK0 ] int 
  4055 ;; Registers used:
  4056 ;;		wreg, status,2, status,0
  4057 ;; Tracked objects:
  4058 ;;		On entry : 0/0
  4059 ;;		On exit  : 0/0
  4060 ;;		Unchanged: 0/0
  4061 ;; Data sizes:     COMMON   BANK0   BANK1   BANK3   BANK2
  4062 ;;      Params:         0       4       0       0       0
  4063 ;;      Locals:         0       4       0       0       0
  4064 ;;      Temps:          0       1       0       0       0
  4065 ;;      Totals:         0       9       0       0       0
  4066 ;;Total ram usage:        9 bytes
  4067 ;; Hardware stack levels used:    1
  4068 ;; Hardware stack levels required when called:    3
  4069 ;; This function calls:
  4070 ;;		Nothing
  4071 ;; This function is called by:
  4072 ;;		_main
  4073 ;; This function uses a non-reentrant model
  4074 ;;
  4075                           
  4076                           
  4077                           ;psect for function ___awdiv
  4078  0D8A                     ___awdiv:
  4079  0D8A                     l1878:	
  4080                           ;incstack = 0
  4081                           ; Regs used in ___awdiv: [wreg+status,2+status,0]
  4082                           
  4083  0D8A  1283               	bcf	3,5	;RP0=0, select bank0
  4084  0D8B  1303               	bcf	3,6	;RP1=0, select bank0
  4085  0D8C  01C6               	clrf	___awdiv@sign
  4086  0D8D                     l1880:
  4087  0D8D  1FC1               	btfss	___awdiv@divisor+1,7
  4088  0D8E  2D90               	goto	u1531
  4089  0D8F  2D91               	goto	u1530
  4090  0D90                     u1531:
  4091  0D90  2D98               	goto	l1886
  4092  0D91                     u1530:
  4093  0D91                     l1882:
  4094  0D91  09C0               	comf	___awdiv@divisor,f
  4095  0D92  09C1               	comf	___awdiv@divisor+1,f
  4096  0D93  0AC0               	incf	___awdiv@divisor,f
  4097  0D94  1903               	skipnz
  4098  0D95  0AC1               	incf	___awdiv@divisor+1,f
  4099  0D96                     l1884:
  4100  0D96  01C6               	clrf	___awdiv@sign
  4101  0D97  0AC6               	incf	___awdiv@sign,f
  4102  0D98                     l1886:
  4103  0D98  1FC3               	btfss	___awdiv@dividend+1,7
  4104  0D99  2D9B               	goto	u1541
  4105  0D9A  2D9C               	goto	u1540
  4106  0D9B                     u1541:
  4107  0D9B  2DA5               	goto	l1892
  4108  0D9C                     u1540:
  4109  0D9C                     l1888:
  4110  0D9C  09C2               	comf	___awdiv@dividend,f
  4111  0D9D  09C3               	comf	___awdiv@dividend+1,f
  4112  0D9E  0AC2               	incf	___awdiv@dividend,f
  4113  0D9F  1903               	skipnz
  4114  0DA0  0AC3               	incf	___awdiv@dividend+1,f
  4115  0DA1                     l1890:
  4116  0DA1  3001               	movlw	1
  4117  0DA2  00C4               	movwf	??___awdiv
  4118  0DA3  0844               	movf	??___awdiv,w
  4119  0DA4  06C6               	xorwf	___awdiv@sign,f
  4120  0DA5                     l1892:
  4121  0DA5  01C7               	clrf	___awdiv@quotient
  4122  0DA6  01C8               	clrf	___awdiv@quotient+1
  4123  0DA7                     l1894:
  4124  0DA7  0840               	movf	___awdiv@divisor,w
  4125  0DA8  0441               	iorwf	___awdiv@divisor+1,w
  4126  0DA9  1903               	btfsc	3,2
  4127  0DAA  2DAC               	goto	u1551
  4128  0DAB  2DAD               	goto	u1550
  4129  0DAC                     u1551:
  4130  0DAC  2DE4               	goto	l1914
  4131  0DAD                     u1550:
  4132  0DAD                     l1896:
  4133  0DAD  01C5               	clrf	___awdiv@counter
  4134  0DAE  0AC5               	incf	___awdiv@counter,f
  4135  0DAF  2DBB               	goto	l1902
  4136  0DB0                     l1898:
  4137  0DB0  3001               	movlw	1
  4138  0DB1                     u1565:
  4139  0DB1  1003               	clrc
  4140  0DB2  0DC0               	rlf	___awdiv@divisor,f
  4141  0DB3  0DC1               	rlf	___awdiv@divisor+1,f
  4142  0DB4  3EFF               	addlw	-1
  4143  0DB5  1D03               	skipz
  4144  0DB6  2DB1               	goto	u1565
  4145  0DB7                     l1900:
  4146  0DB7  3001               	movlw	1
  4147  0DB8  00C4               	movwf	??___awdiv
  4148  0DB9  0844               	movf	??___awdiv,w
  4149  0DBA  07C5               	addwf	___awdiv@counter,f
  4150  0DBB                     l1902:
  4151  0DBB  1FC1               	btfss	___awdiv@divisor+1,7
  4152  0DBC  2DBE               	goto	u1571
  4153  0DBD  2DBF               	goto	u1570
  4154  0DBE                     u1571:
  4155  0DBE  2DB0               	goto	l1898
  4156  0DBF                     u1570:
  4157  0DBF                     l1904:
  4158  0DBF  3001               	movlw	1
  4159  0DC0                     u1585:
  4160  0DC0  1003               	clrc
  4161  0DC1  0DC7               	rlf	___awdiv@quotient,f
  4162  0DC2  0DC8               	rlf	___awdiv@quotient+1,f
  4163  0DC3  3EFF               	addlw	-1
  4164  0DC4  1D03               	skipz
  4165  0DC5  2DC0               	goto	u1585
  4166  0DC6  0841               	movf	___awdiv@divisor+1,w
  4167  0DC7  0243               	subwf	___awdiv@dividend+1,w
  4168  0DC8  1D03               	skipz
  4169  0DC9  2DCC               	goto	u1595
  4170  0DCA  0840               	movf	___awdiv@divisor,w
  4171  0DCB  0242               	subwf	___awdiv@dividend,w
  4172  0DCC                     u1595:
  4173  0DCC  1C03               	skipc
  4174  0DCD  2DCF               	goto	u1591
  4175  0DCE  2DD0               	goto	u1590
  4176  0DCF                     u1591:
  4177  0DCF  2DD7               	goto	l1910
  4178  0DD0                     u1590:
  4179  0DD0                     l1906:
  4180  0DD0  0840               	movf	___awdiv@divisor,w
  4181  0DD1  02C2               	subwf	___awdiv@dividend,f
  4182  0DD2  0841               	movf	___awdiv@divisor+1,w
  4183  0DD3  1C03               	skipc
  4184  0DD4  03C3               	decf	___awdiv@dividend+1,f
  4185  0DD5  02C3               	subwf	___awdiv@dividend+1,f
  4186  0DD6                     l1908:
  4187  0DD6  1447               	bsf	___awdiv@quotient,0
  4188  0DD7                     l1910:
  4189  0DD7  3001               	movlw	1
  4190  0DD8                     u1605:
  4191  0DD8  1003               	clrc
  4192  0DD9  0CC1               	rrf	___awdiv@divisor+1,f
  4193  0DDA  0CC0               	rrf	___awdiv@divisor,f
  4194  0DDB  3EFF               	addlw	-1
  4195  0DDC  1D03               	skipz
  4196  0DDD  2DD8               	goto	u1605
  4197  0DDE                     l1912:
  4198  0DDE  3001               	movlw	1
  4199  0DDF  02C5               	subwf	___awdiv@counter,f
  4200  0DE0  1D03               	btfss	3,2
  4201  0DE1  2DE3               	goto	u1611
  4202  0DE2  2DE4               	goto	u1610
  4203  0DE3                     u1611:
  4204  0DE3  2DBF               	goto	l1904
  4205  0DE4                     u1610:
  4206  0DE4                     l1914:
  4207  0DE4  0846               	movf	___awdiv@sign,w
  4208  0DE5  1903               	btfsc	3,2
  4209  0DE6  2DE8               	goto	u1621
  4210  0DE7  2DE9               	goto	u1620
  4211  0DE8                     u1621:
  4212  0DE8  2DEE               	goto	l1918
  4213  0DE9                     u1620:
  4214  0DE9                     l1916:
  4215  0DE9  09C7               	comf	___awdiv@quotient,f
  4216  0DEA  09C8               	comf	___awdiv@quotient+1,f
  4217  0DEB  0AC7               	incf	___awdiv@quotient,f
  4218  0DEC  1903               	skipnz
  4219  0DED  0AC8               	incf	___awdiv@quotient+1,f
  4220  0DEE                     l1918:
  4221  0DEE  0848               	movf	___awdiv@quotient+1,w
  4222  0DEF  00C1               	movwf	?___awdiv+1
  4223  0DF0  0847               	movf	___awdiv@quotient,w
  4224  0DF1  00C0               	movwf	?___awdiv
  4225  0DF2                     l529:
  4226  0DF2  0008               	return
  4227  0DF3                     __end_of___awdiv:
  4228                           
  4229                           	psect	text12
  4230  0760                     __ptext12:	
  4231 ;; *************** function _isr *****************
  4232 ;; Defined at:
  4233 ;;		line 461 in file "proyecto_final.c"
  4234 ;; Parameters:    Size  Location     Type
  4235 ;;		None
  4236 ;; Auto vars:     Size  Location     Type
  4237 ;;		None
  4238 ;; Return value:  Size  Location     Type
  4239 ;;                  1    wreg      void 
  4240 ;; Registers used:
  4241 ;;		wreg, status,2, status,0, pclath, cstack
  4242 ;; Tracked objects:
  4243 ;;		On entry : 0/0
  4244 ;;		On exit  : 0/0
  4245 ;;		Unchanged: 0/0
  4246 ;; Data sizes:     COMMON   BANK0   BANK1   BANK3   BANK2
  4247 ;;      Params:         0       0       0       0       0
  4248 ;;      Locals:         0       0       0       0       0
  4249 ;;      Temps:          4       0       0       0       0
  4250 ;;      Totals:         4       0       0       0       0
  4251 ;;Total ram usage:        4 bytes
  4252 ;; Hardware stack levels used:    1
  4253 ;; Hardware stack levels required when called:    2
  4254 ;; This function calls:
  4255 ;;		_IOCB_interrupt
  4256 ;; This function is called by:
  4257 ;;		Interrupt level 1
  4258 ;; This function uses a non-reentrant model
  4259 ;;
  4260                           
  4261                           
  4262                           ;psect for function _isr
  4263  0760                     _isr:
  4264  0760                     i1l2220:
  4265                           
  4266                           ;proyecto_final.c: 463:             _delay((unsigned long)((800)*(8000000/4000.0)));
  4267  0760  1C0B               	btfss	11,0	;volatile
  4268  0761  2F63               	goto	u223_21
  4269  0762  2F64               	goto	u223_20
  4270  0763                     u223_21:
  4271  0763  2F69               	goto	i1l2224
  4272  0764                     u223_20:
  4273  0764                     i1l2222:
  4274                           
  4275                           ;proyecto_final.c: 464:             PORTA = 8;
  4276  0764  120A  158A  26D5  120A  118A  	fcall	_IOCB_interrupt
  4277  0769                     i1l2224:
  4278                           
  4279                           ;proyecto_final.c: 467:             PORTA = 1;
  4280  0769  1283               	bcf	3,5	;RP0=0, select bank0
  4281  076A  1303               	bcf	3,6	;RP1=0, select bank0
  4282  076B  1E8C               	btfss	12,5	;volatile
  4283  076C  2F6E               	goto	u224_21
  4284  076D  2F6F               	goto	u224_20
  4285  076E                     u224_21:
  4286  076E  2F73               	goto	i1l2228
  4287  076F                     u224_20:
  4288  076F                     i1l2226:
  4289                           
  4290                           ;proyecto_final.c: 468:             PORTAbits.RA5 = 1;
  4291  076F  081A               	movf	26,w	;volatile
  4292  0770  00F9               	movwf	??_isr
  4293  0771  0879               	movf	??_isr,w
  4294  0772  00BF               	movwf	_opcion
  4295  0773                     i1l2228:
  4296                           
  4297                           ;proyecto_final.c: 472:     }
  4298  0773  1F0C               	btfss	12,6	;volatile
  4299  0774  2F76               	goto	u225_21
  4300  0775  2F77               	goto	u225_20
  4301  0776                     u225_21:
  4302  0776  2FF0               	goto	i1l252
  4303  0777                     u225_20:
  4304  0777                     i1l2230:
  4305                           
  4306                           ;proyecto_final.c: 474:         PORTA = 8;
  4307  0777  0C1F               	rrf	31,w	;volatile
  4308  0778  00F9               	movwf	??_isr
  4309  0779  0C79               	rrf	??_isr,w
  4310  077A  390F               	andlw	15
  4311  077B  3A05               	xorlw	5
  4312  077C  1D03               	skipz
  4313  077D  2F7F               	goto	u226_21
  4314  077E  2F80               	goto	u226_20
  4315  077F                     u226_21:
  4316  077F  2FAB               	goto	i1l2240
  4317  0780                     u226_20:
  4318  0780                     i1l2232:
  4319                           
  4320                           ;proyecto_final.c: 475:         flag2 = 1;
  4321  0780  081E               	movf	30,w	;volatile
  4322  0781  0088               	movwf	8	;volatile
  4323                           
  4324                           ;proyecto_final.c: 476:         PORTAbits.RA4 = 1;
  4325  0782  0808               	movf	8,w	;volatile
  4326  0783  00F9               	movwf	??_isr
  4327  0784  0879               	movf	??_isr,w
  4328  0785  00BE               	movwf	_temporal_posicion1
  4329  0786                     i1l2234:
  4330                           
  4331                           ;proyecto_final.c: 477:         PORTAbits.RA5 = 1;
  4332  0786  0808               	movf	8,w	;volatile
  4333  0787  00F9               	movwf	??_isr
  4334  0788  1003               	clrc
  4335  0789  0C79               	rrf	??_isr,w
  4336  078A  3E80               	addlw	128
  4337  078B  0095               	movwf	21	;volatile
  4338  078C                     i1l2236:
  4339                           
  4340                           ;proyecto_final.c: 478:     }
  4341  078C  1808               	btfsc	8,0	;volatile
  4342  078D  2F8F               	goto	u227_21
  4343  078E  2F93               	goto	u227_20
  4344  078F                     u227_21:
  4345  078F  1283               	bcf	3,5	;RP0=0, select bank0
  4346  0790  1303               	bcf	3,6	;RP1=0, select bank0
  4347  0791  1697               	bsf	23,5	;volatile
  4348  0792  2F96               	goto	u228_24
  4349  0793                     u227_20:
  4350  0793  1283               	bcf	3,5	;RP0=0, select bank0
  4351  0794  1303               	bcf	3,6	;RP1=0, select bank0
  4352  0795  1297               	bcf	23,5	;volatile
  4353  0796                     u228_24:
  4354  0796                     i1l2238:
  4355                           
  4356                           ;proyecto_final.c: 479:     if(PORTBbits.RB3 == 0) {
  4357  0796  1683               	bsf	3,5	;RP0=1, select bank1
  4358  0797  1303               	bcf	3,6	;RP1=0, select bank1
  4359  0798  081E               	movf	30,w	;volatile
  4360  0799  00F9               	movwf	??_isr
  4361  079A  3007               	movlw	7
  4362  079B                     u229_25:
  4363  079B  1003               	clrc
  4364  079C  0CF9               	rrf	??_isr,f
  4365  079D  3EFF               	addlw	-1
  4366  079E  1D03               	skipz
  4367  079F  2F9B               	goto	u229_25
  4368  07A0  0879               	movf	??_isr,w
  4369  07A1  00FA               	movwf	??_isr+1
  4370  07A2  0EFA               	swapf	??_isr+1,f
  4371  07A3  1283               	bcf	3,5	;RP0=0, select bank0
  4372  07A4  1303               	bcf	3,6	;RP1=0, select bank0
  4373  07A5  0817               	movf	23,w	;volatile
  4374  07A6  067A               	xorwf	??_isr+1,w
  4375  07A7  39EF               	andlw	-17
  4376  07A8  067A               	xorwf	??_isr+1,w
  4377  07A9  0097               	movwf	23	;volatile
  4378  07AA  2FEF               	goto	i1l2254
  4379  07AB                     i1l2240:
  4380  07AB  0C1F               	rrf	31,w	;volatile
  4381  07AC  00F9               	movwf	??_isr
  4382  07AD  0C79               	rrf	??_isr,w
  4383  07AE  390F               	andlw	15
  4384  07AF  3A07               	xorlw	7
  4385  07B0  1D03               	skipz
  4386  07B1  2FB3               	goto	u230_21
  4387  07B2  2FB4               	goto	u230_20
  4388  07B3                     u230_21:
  4389  07B3  2FBC               	goto	i1l2244
  4390  07B4                     u230_20:
  4391  07B4                     i1l2242:
  4392                           
  4393                           ;proyecto_final.c: 481:        PORTA = 4;
  4394  07B4  081E               	movf	30,w	;volatile
  4395  07B5  00F9               	movwf	??_isr
  4396  07B6  01FA               	clrf	??_isr+1
  4397  07B7  0879               	movf	??_isr,w
  4398  07B8  00B9               	movwf	_valor_pot
  4399  07B9  087A               	movf	??_isr+1,w
  4400  07BA  00BA               	movwf	_valor_pot+1
  4401                           
  4402                           ;proyecto_final.c: 482:        flag2 = 1;
  4403  07BB  2FEF               	goto	i1l2254
  4404  07BC                     i1l2244:
  4405  07BC  0C1F               	rrf	31,w	;volatile
  4406  07BD  00F9               	movwf	??_isr
  4407  07BE  0C79               	rrf	??_isr,w
  4408  07BF  390F               	andlw	15
  4409  07C0  3A06               	xorlw	6
  4410  07C1  1D03               	skipz
  4411  07C2  2FC4               	goto	u231_21
  4412  07C3  2FC5               	goto	u231_20
  4413  07C4                     u231_21:
  4414  07C4  2FEF               	goto	i1l2254
  4415  07C5                     u231_20:
  4416  07C5                     i1l2246:
  4417                           
  4418                           ;proyecto_final.c: 485: 
  4419  07C5  081E               	movf	30,w	;volatile
  4420  07C6  0088               	movwf	8	;volatile
  4421                           
  4422                           ;proyecto_final.c: 486:     }
  4423  07C7  0808               	movf	8,w	;volatile
  4424  07C8  00F9               	movwf	??_isr
  4425  07C9  0879               	movf	??_isr,w
  4426  07CA  00BD               	movwf	_temporal_posicion2
  4427  07CB                     i1l2248:
  4428                           
  4429                           ;proyecto_final.c: 487: 
  4430  07CB  0808               	movf	8,w	;volatile
  4431  07CC  00F9               	movwf	??_isr
  4432  07CD  1003               	clrc
  4433  07CE  0C79               	rrf	??_isr,w
  4434  07CF  3E80               	addlw	128
  4435  07D0  009B               	movwf	27	;volatile
  4436  07D1                     i1l2250:
  4437                           
  4438                           ;proyecto_final.c: 488:     if(PORTBbits.RB3 == 1 && PORTBbits.RB2 == 1) {
  4439  07D1  1808               	btfsc	8,0	;volatile
  4440  07D2  2FD4               	goto	u232_21
  4441  07D3  2FD8               	goto	u232_20
  4442  07D4                     u232_21:
  4443  07D4  1283               	bcf	3,5	;RP0=0, select bank0
  4444  07D5  1303               	bcf	3,6	;RP1=0, select bank0
  4445  07D6  169D               	bsf	29,5	;volatile
  4446  07D7  2FDB               	goto	u233_24
  4447  07D8                     u232_20:
  4448  07D8  1283               	bcf	3,5	;RP0=0, select bank0
  4449  07D9  1303               	bcf	3,6	;RP1=0, select bank0
  4450  07DA  129D               	bcf	29,5	;volatile
  4451  07DB                     u233_24:
  4452  07DB                     i1l2252:
  4453                           
  4454                           ;proyecto_final.c: 489:         PORTA = 0;
  4455  07DB  1683               	bsf	3,5	;RP0=1, select bank1
  4456  07DC  1303               	bcf	3,6	;RP1=0, select bank1
  4457  07DD  081E               	movf	30,w	;volatile
  4458  07DE  00F9               	movwf	??_isr
  4459  07DF  3007               	movlw	7
  4460  07E0                     u234_25:
  4461  07E0  1003               	clrc
  4462  07E1  0CF9               	rrf	??_isr,f
  4463  07E2  3EFF               	addlw	-1
  4464  07E3  1D03               	skipz
  4465  07E4  2FE0               	goto	u234_25
  4466  07E5  0879               	movf	??_isr,w
  4467  07E6  00FA               	movwf	??_isr+1
  4468  07E7  0EFA               	swapf	??_isr+1,f
  4469  07E8  1283               	bcf	3,5	;RP0=0, select bank0
  4470  07E9  1303               	bcf	3,6	;RP1=0, select bank0
  4471  07EA  081D               	movf	29,w	;volatile
  4472  07EB  067A               	xorwf	??_isr+1,w
  4473  07EC  39EF               	andlw	-17
  4474  07ED  067A               	xorwf	??_isr+1,w
  4475  07EE  009D               	movwf	29	;volatile
  4476  07EF                     i1l2254:
  4477                           
  4478                           ;proyecto_final.c: 491:     }
  4479  07EF  130C               	bcf	12,6	;volatile
  4480  07F0                     i1l252:
  4481  07F0  087C               	movf	??_isr+3,w
  4482  07F1  008A               	movwf	10
  4483  07F2  0E7B               	swapf	??_isr+2,w
  4484  07F3  0083               	movwf	3
  4485  07F4  0EFE               	swapf	btemp,f
  4486  07F5  0E7E               	swapf	btemp,w
  4487  07F6  0009               	retfie
  4488  07F7                     __end_of_isr:
  4489                           
  4490                           	psect	intentry
  4491  0004                     __pintentry:	
  4492                           ;incstack = 0
  4493                           ; Regs used in _isr: [wreg+status,2+status,0+pclath+cstack]
  4494                           
  4495  0004                     interrupt_function:
  4496  007E                     saved_w	set	btemp
  4497  0004  00FE               	movwf	btemp
  4498  0005  0E03               	swapf	3,w
  4499  0006  00FB               	movwf	??_isr+2
  4500  0007  080A               	movf	10,w
  4501  0008  00FC               	movwf	??_isr+3
  4502  0009  120A  118A  2F60   	ljmp	_isr
  4503                           
  4504                           	psect	text13
  4505  0ED5                     __ptext13:	
  4506 ;; *************** function _IOCB_interrupt *****************
  4507 ;; Defined at:
  4508 ;;		line 498 in file "proyecto_final.c"
  4509 ;; Parameters:    Size  Location     Type
  4510 ;;		None
  4511 ;; Auto vars:     Size  Location     Type
  4512 ;;		None
  4513 ;; Return value:  Size  Location     Type
  4514 ;;                  1    wreg      void 
  4515 ;; Registers used:
  4516 ;;		wreg, status,2, status,0, pclath, cstack
  4517 ;; Tracked objects:
  4518 ;;		On entry : 0/0
  4519 ;;		On exit  : 0/0
  4520 ;;		Unchanged: 0/0
  4521 ;; Data sizes:     COMMON   BANK0   BANK1   BANK3   BANK2
  4522 ;;      Params:         0       0       0       0       0
  4523 ;;      Locals:         0       0       0       0       0
  4524 ;;      Temps:          3       0       0       0       0
  4525 ;;      Totals:         3       0       0       0       0
  4526 ;;Total ram usage:        3 bytes
  4527 ;; Hardware stack levels used:    1
  4528 ;; Hardware stack levels required when called:    1
  4529 ;; This function calls:
  4530 ;;		_readFromEEPROM
  4531 ;; This function is called by:
  4532 ;;		_isr
  4533 ;; This function uses a non-reentrant model
  4534 ;;
  4535                           
  4536                           
  4537                           ;psect for function _IOCB_interrupt
  4538  0ED5                     _IOCB_interrupt:
  4539  0ED5                     i1l1784:	
  4540                           ;incstack = 0
  4541                           ; Regs used in _IOCB_interrupt: [wreg+status,2+status,0+pclath+cstack]
  4542                           
  4543                           
  4544                           ;proyecto_final.c: 500:         }else{
  4545  0ED5  1283               	bcf	3,5	;RP0=0, select bank0
  4546  0ED6  1303               	bcf	3,6	;RP1=0, select bank0
  4547  0ED7  1806               	btfsc	6,0	;volatile
  4548  0ED8  2EDA               	goto	u132_21
  4549  0ED9  2EDB               	goto	u132_20
  4550  0EDA                     u132_21:
  4551  0EDA  2F09               	goto	i1l1798
  4552  0EDB                     u132_20:
  4553  0EDB                     i1l1786:
  4554                           
  4555                           ;proyecto_final.c: 501:             leer++;
  4556  0EDB  083B               	movf	_flag2,w
  4557  0EDC  043C               	iorwf	_flag2+1,w
  4558  0EDD  1903               	btfsc	3,2
  4559  0EDE  2EE0               	goto	u133_21
  4560  0EDF  2EE1               	goto	u133_20
  4561  0EE0                     u133_21:
  4562  0EE0  2EF6               	goto	i1l1792
  4563  0EE1                     u133_20:
  4564  0EE1                     i1l1788:
  4565                           
  4566                           ;proyecto_final.c: 503: 
  4567  0EE1  300A               	movlw	10
  4568  0EE2  0085               	movwf	5	;volatile
  4569  0EE3                     i1l1790:
  4570                           
  4571                           ;proyecto_final.c: 504:         CCPR1L = (PORTD>>1) + 120;
  4572  0EE3  1605               	bsf	5,4	;volatile
  4573                           
  4574                           ;proyecto_final.c: 505:         CCP1CONbits.DC1B1 = PORTDbits.RD0;
  4575  0EE4  3009               	movlw	9
  4576  0EE5  00F8               	movwf	??_IOCB_interrupt+2
  4577  0EE6  301E               	movlw	30
  4578  0EE7  00F7               	movwf	??_IOCB_interrupt+1
  4579  0EE8  30E4               	movlw	228
  4580  0EE9  00F6               	movwf	??_IOCB_interrupt
  4581  0EEA                     u251_27:
  4582  0EEA  0BF6               	decfsz	??_IOCB_interrupt,f
  4583  0EEB  2EEA               	goto	u251_27
  4584  0EEC  0BF7               	decfsz	??_IOCB_interrupt+1,f
  4585  0EED  2EEA               	goto	u251_27
  4586  0EEE  0BF8               	decfsz	??_IOCB_interrupt+2,f
  4587  0EEF  2EEA               	goto	u251_27
  4588  0EF0  0000               	nop
  4589                           
  4590                           ;proyecto_final.c: 506:         CCP1CONbits.DC1B0 = ADRESL>>7;
  4591  0EF1  3008               	movlw	8
  4592  0EF2  1283               	bcf	3,5	;RP0=0, select bank0
  4593  0EF3  1303               	bcf	3,6	;RP1=0, select bank0
  4594  0EF4  0085               	movwf	5	;volatile
  4595                           
  4596                           ;proyecto_final.c: 508:         _delay((unsigned long)((10)*(8000000/4000.0)));
  4597  0EF5  2F09               	goto	i1l1798
  4598  0EF6                     i1l1792:
  4599                           
  4600                           ;proyecto_final.c: 510:         PORTD = readFromEEPROM(leer);
  4601  0EF6  3002               	movlw	2
  4602  0EF7  0085               	movwf	5	;volatile
  4603  0EF8                     i1l1794:
  4604                           
  4605                           ;proyecto_final.c: 511: 
  4606  0EF8  1605               	bsf	5,4	;volatile
  4607                           
  4608                           ;proyecto_final.c: 512:         if(leer == 0x17){
  4609  0EF9  3009               	movlw	9
  4610  0EFA  00F8               	movwf	??_IOCB_interrupt+2
  4611  0EFB  301E               	movlw	30
  4612  0EFC  00F7               	movwf	??_IOCB_interrupt+1
  4613  0EFD  30E4               	movlw	228
  4614  0EFE  00F6               	movwf	??_IOCB_interrupt
  4615  0EFF                     u252_27:
  4616  0EFF  0BF6               	decfsz	??_IOCB_interrupt,f
  4617  0F00  2EFF               	goto	u252_27
  4618  0F01  0BF7               	decfsz	??_IOCB_interrupt+1,f
  4619  0F02  2EFF               	goto	u252_27
  4620  0F03  0BF8               	decfsz	??_IOCB_interrupt+2,f
  4621  0F04  2EFF               	goto	u252_27
  4622  0F05  0000               	nop
  4623  0F06                     i1l1796:
  4624                           
  4625                           ;proyecto_final.c: 513:                 leer = 0x10;
  4626  0F06  1283               	bcf	3,5	;RP0=0, select bank0
  4627  0F07  1303               	bcf	3,6	;RP1=0, select bank0
  4628  0F08  0185               	clrf	5	;volatile
  4629  0F09                     i1l1798:
  4630                           
  4631                           ;proyecto_final.c: 516:         }
  4632  0F09  1886               	btfsc	6,1	;volatile
  4633  0F0A  2F0C               	goto	u134_21
  4634  0F0B  2F0D               	goto	u134_20
  4635  0F0C                     u134_21:
  4636  0F0C  2F3B               	goto	i1l1812
  4637  0F0D                     u134_20:
  4638  0F0D                     i1l1800:
  4639                           
  4640                           ;proyecto_final.c: 517: 
  4641  0F0D  083B               	movf	_flag2,w
  4642  0F0E  043C               	iorwf	_flag2+1,w
  4643  0F0F  1903               	btfsc	3,2
  4644  0F10  2F12               	goto	u135_21
  4645  0F11  2F13               	goto	u135_20
  4646  0F12                     u135_21:
  4647  0F12  2F28               	goto	i1l1806
  4648  0F13                     u135_20:
  4649  0F13                     i1l1802:
  4650                           
  4651                           ;proyecto_final.c: 518:         CCPR2L = (PORTD>>1) + 128;
  4652  0F13  3009               	movlw	9
  4653  0F14  0085               	movwf	5	;volatile
  4654  0F15                     i1l1804:
  4655                           
  4656                           ;proyecto_final.c: 519:         CCP2CONbits.DC2B1 = PORTDbits.RD0;
  4657  0F15  1685               	bsf	5,5	;volatile
  4658                           
  4659                           ;proyecto_final.c: 520:         CCP2CONbits.DC2B0 = ADRESL>>7;
  4660  0F16  3009               	movlw	9
  4661  0F17  00F8               	movwf	??_IOCB_interrupt+2
  4662  0F18  301E               	movlw	30
  4663  0F19  00F7               	movwf	??_IOCB_interrupt+1
  4664  0F1A  30E4               	movlw	228
  4665  0F1B  00F6               	movwf	??_IOCB_interrupt
  4666  0F1C                     u253_27:
  4667  0F1C  0BF6               	decfsz	??_IOCB_interrupt,f
  4668  0F1D  2F1C               	goto	u253_27
  4669  0F1E  0BF7               	decfsz	??_IOCB_interrupt+1,f
  4670  0F1F  2F1C               	goto	u253_27
  4671  0F20  0BF8               	decfsz	??_IOCB_interrupt+2,f
  4672  0F21  2F1C               	goto	u253_27
  4673  0F22  0000               	nop
  4674                           
  4675                           ;proyecto_final.c: 521: 
  4676  0F23  3008               	movlw	8
  4677  0F24  1283               	bcf	3,5	;RP0=0, select bank0
  4678  0F25  1303               	bcf	3,6	;RP1=0, select bank0
  4679  0F26  0085               	movwf	5	;volatile
  4680                           
  4681                           ;proyecto_final.c: 522: 
  4682  0F27  2F3B               	goto	i1l1812
  4683  0F28                     i1l1806:
  4684                           
  4685                           ;proyecto_final.c: 524: 
  4686  0F28  3001               	movlw	1
  4687  0F29  0085               	movwf	5	;volatile
  4688  0F2A                     i1l1808:
  4689                           
  4690                           ;proyecto_final.c: 525:     }
  4691  0F2A  1685               	bsf	5,5	;volatile
  4692                           
  4693                           ;proyecto_final.c: 526: 
  4694  0F2B  3009               	movlw	9
  4695  0F2C  00F8               	movwf	??_IOCB_interrupt+2
  4696  0F2D  301E               	movlw	30
  4697  0F2E  00F7               	movwf	??_IOCB_interrupt+1
  4698  0F2F  30E4               	movlw	228
  4699  0F30  00F6               	movwf	??_IOCB_interrupt
  4700  0F31                     u254_27:
  4701  0F31  0BF6               	decfsz	??_IOCB_interrupt,f
  4702  0F32  2F31               	goto	u254_27
  4703  0F33  0BF7               	decfsz	??_IOCB_interrupt+1,f
  4704  0F34  2F31               	goto	u254_27
  4705  0F35  0BF8               	decfsz	??_IOCB_interrupt+2,f
  4706  0F36  2F31               	goto	u254_27
  4707  0F37  0000               	nop
  4708  0F38                     i1l1810:
  4709                           
  4710                           ;proyecto_final.c: 527:     INTCONbits.RBIF = 0;
  4711  0F38  1283               	bcf	3,5	;RP0=0, select bank0
  4712  0F39  1303               	bcf	3,6	;RP1=0, select bank0
  4713  0F3A  0185               	clrf	5	;volatile
  4714  0F3B                     i1l1812:
  4715                           
  4716                           ;proyecto_final.c: 530: }
  4717  0F3B  1906               	btfsc	6,2	;volatile
  4718  0F3C  2F3E               	goto	u136_21
  4719  0F3D  2F3F               	goto	u136_20
  4720  0F3E                     u136_21:
  4721  0F3E  2F47               	goto	i1l1820
  4722  0F3F                     u136_20:
  4723  0F3F                     i1l1814:
  4724                           
  4725                           ;proyecto_final.c: 531: 
  4726  0F3F  3008               	movlw	8
  4727  0F40  0085               	movwf	5	;volatile
  4728                           
  4729                           ;proyecto_final.c: 532: 
  4730  0F41  3001               	movlw	1
  4731  0F42  00BB               	movwf	_flag2
  4732  0F43  3000               	movlw	0
  4733  0F44  00BC               	movwf	_flag2+1
  4734  0F45                     i1l1816:
  4735                           
  4736                           ;proyecto_final.c: 533: 
  4737  0F45  1605               	bsf	5,4	;volatile
  4738  0F46                     i1l1818:
  4739                           
  4740                           ;proyecto_final.c: 534: void config_reloj(){
  4741  0F46  1685               	bsf	5,5	;volatile
  4742  0F47                     i1l1820:
  4743                           
  4744                           ;proyecto_final.c: 536:     OSCCONbits.IRCF2 =1 ;
  4745  0F47  1986               	btfsc	6,3	;volatile
  4746  0F48  2F4A               	goto	u137_21
  4747  0F49  2F4B               	goto	u137_20
  4748  0F4A                     u137_21:
  4749  0F4A  2F53               	goto	i1l1828
  4750  0F4B                     u137_20:
  4751  0F4B                     i1l1822:
  4752                           
  4753                           ;proyecto_final.c: 538:     OSCCONbits.IRCF0 =1 ;
  4754  0F4B  3004               	movlw	4
  4755  0F4C  0085               	movwf	5	;volatile
  4756                           
  4757                           ;proyecto_final.c: 539:     OSCCONbits.SCS = 1;
  4758  0F4D  3001               	movlw	1
  4759  0F4E  00BB               	movwf	_flag2
  4760  0F4F  3000               	movlw	0
  4761  0F50  00BC               	movwf	_flag2+1
  4762  0F51                     i1l1824:
  4763                           
  4764                           ;proyecto_final.c: 540: 
  4765  0F51  1705               	bsf	5,6	;volatile
  4766  0F52                     i1l1826:
  4767                           
  4768                           ;proyecto_final.c: 541:     return;
  4769  0F52  1785               	bsf	5,7	;volatile
  4770  0F53                     i1l1828:
  4771                           
  4772                           ;proyecto_final.c: 545: 
  4773  0F53  1D86               	btfss	6,3	;volatile
  4774  0F54  2F56               	goto	u138_21
  4775  0F55  2F57               	goto	u138_20
  4776  0F56                     u138_21:
  4777  0F56  2F5E               	goto	i1l1834
  4778  0F57                     u138_20:
  4779  0F57                     i1l1830:
  4780  0F57  1D06               	btfss	6,2	;volatile
  4781  0F58  2F5A               	goto	u139_21
  4782  0F59  2F5B               	goto	u139_20
  4783  0F5A                     u139_21:
  4784  0F5A  2F5E               	goto	i1l1834
  4785  0F5B                     u139_20:
  4786  0F5B                     i1l1832:
  4787                           
  4788                           ;proyecto_final.c: 546: 
  4789  0F5B  0185               	clrf	5	;volatile
  4790                           
  4791                           ;proyecto_final.c: 547:     ANSELH = 0x00;
  4792  0F5C  01BB               	clrf	_flag2
  4793  0F5D  01BC               	clrf	_flag2+1
  4794  0F5E                     i1l1834:
  4795                           
  4796                           ;proyecto_final.c: 551:     TRISA = 0x00;
  4797  0F5E  1A86               	btfsc	6,5	;volatile
  4798  0F5F  2F61               	goto	u140_21
  4799  0F60  2F62               	goto	u140_20
  4800  0F61                     u140_21:
  4801  0F61  2FFE               	goto	i1l1860
  4802  0F62                     u140_20:
  4803  0F62                     i1l1836:
  4804                           
  4805                           ;proyecto_final.c: 553:     TRISE = 0x07;
  4806  0F62  087D               	movf	_leer,w
  4807  0F63  00F6               	movwf	??_IOCB_interrupt
  4808  0F64  01F7               	clrf	??_IOCB_interrupt+1
  4809  0F65  0876               	movf	??_IOCB_interrupt,w
  4810  0F66  00F0               	movwf	readFromEEPROM@address
  4811  0F67  0877               	movf	??_IOCB_interrupt+1,w
  4812  0F68  00F1               	movwf	readFromEEPROM@address+1
  4813  0F69  120A  158A  24D4  120A  158A  	fcall	_readFromEEPROM
  4814  0F6E  0870               	movf	?_readFromEEPROM,w
  4815  0F6F  1283               	bcf	3,5	;RP0=0, select bank0
  4816  0F70  1303               	bcf	3,6	;RP1=0, select bank0
  4817  0F71  0088               	movwf	8	;volatile
  4818  0F72                     i1l1838:
  4819                           
  4820                           ;proyecto_final.c: 555:     TRISC = 0xB9;
  4821  0F72  3017               	movlw	23
  4822  0F73  067D               	xorwf	_leer,w
  4823  0F74  1D03               	btfss	3,2
  4824  0F75  2F77               	goto	u141_21
  4825  0F76  2F78               	goto	u141_20
  4826  0F77                     u141_21:
  4827  0F77  2F7D               	goto	i1l1842
  4828  0F78                     u141_20:
  4829  0F78                     i1l1840:
  4830                           
  4831                           ;proyecto_final.c: 556: 
  4832  0F78  3010               	movlw	16
  4833  0F79  00F6               	movwf	??_IOCB_interrupt
  4834  0F7A  0876               	movf	??_IOCB_interrupt,w
  4835  0F7B  00FD               	movwf	_leer
  4836                           
  4837                           ;proyecto_final.c: 557:     OPTION_REGbits.nRBPU = 0 ;
  4838  0F7C  2F81               	goto	i1l266
  4839  0F7D                     i1l1842:
  4840                           
  4841                           ;proyecto_final.c: 558:     WPUB = 0xFF;
  4842  0F7D  3001               	movlw	1
  4843  0F7E  00F6               	movwf	??_IOCB_interrupt
  4844  0F7F  0876               	movf	??_IOCB_interrupt,w
  4845  0F80  07FD               	addwf	_leer,f
  4846  0F81                     i1l266:	
  4847                           ;proyecto_final.c: 559: 
  4848                           
  4849                           
  4850                           ;proyecto_final.c: 561:     PORTB = 0xFF;
  4851  0F81  0808               	movf	8,w	;volatile
  4852  0F82  00F6               	movwf	??_IOCB_interrupt
  4853  0F83  1003               	clrc
  4854  0F84  0C76               	rrf	??_IOCB_interrupt,w
  4855  0F85  3E78               	addlw	120
  4856  0F86  0095               	movwf	21	;volatile
  4857  0F87                     i1l1844:
  4858                           
  4859                           ;proyecto_final.c: 562: 
  4860  0F87  1808               	btfsc	8,0	;volatile
  4861  0F88  2F8A               	goto	u142_21
  4862  0F89  2F8E               	goto	u142_20
  4863  0F8A                     u142_21:
  4864  0F8A  1283               	bcf	3,5	;RP0=0, select bank0
  4865  0F8B  1303               	bcf	3,6	;RP1=0, select bank0
  4866  0F8C  1697               	bsf	23,5	;volatile
  4867  0F8D  2F91               	goto	u143_24
  4868  0F8E                     u142_20:
  4869  0F8E  1283               	bcf	3,5	;RP0=0, select bank0
  4870  0F8F  1303               	bcf	3,6	;RP1=0, select bank0
  4871  0F90  1297               	bcf	23,5	;volatile
  4872  0F91                     u143_24:
  4873                           
  4874                           ;proyecto_final.c: 563:     PORTE = 0x00;
  4875  0F91  1683               	bsf	3,5	;RP0=1, select bank1
  4876  0F92  1303               	bcf	3,6	;RP1=0, select bank1
  4877  0F93  081E               	movf	30,w	;volatile
  4878  0F94  00F6               	movwf	??_IOCB_interrupt
  4879  0F95  3007               	movlw	7
  4880  0F96                     u144_25:
  4881  0F96  1003               	clrc
  4882  0F97  0CF6               	rrf	??_IOCB_interrupt,f
  4883  0F98  3EFF               	addlw	-1
  4884  0F99  1D03               	skipz
  4885  0F9A  2F96               	goto	u144_25
  4886  0F9B  0876               	movf	??_IOCB_interrupt,w
  4887  0F9C  00F7               	movwf	??_IOCB_interrupt+1
  4888  0F9D  0EF7               	swapf	??_IOCB_interrupt+1,f
  4889  0F9E  1283               	bcf	3,5	;RP0=0, select bank0
  4890  0F9F  1303               	bcf	3,6	;RP1=0, select bank0
  4891  0FA0  0817               	movf	23,w	;volatile
  4892  0FA1  0677               	xorwf	??_IOCB_interrupt+1,w
  4893  0FA2  39EF               	andlw	-17
  4894  0FA3  0677               	xorwf	??_IOCB_interrupt+1,w
  4895  0FA4  0097               	movwf	23	;volatile
  4896  0FA5                     i1l1846:
  4897                           
  4898                           ;proyecto_final.c: 565:     PORTC = 0x00;
  4899  0FA5  301A               	movlw	26
  4900  0FA6  00F7               	movwf	??_IOCB_interrupt+1
  4901  0FA7  30F8               	movlw	248
  4902  0FA8  00F6               	movwf	??_IOCB_interrupt
  4903  0FA9                     u255_27:
  4904  0FA9  0BF6               	decfsz	??_IOCB_interrupt,f
  4905  0FAA  2FA9               	goto	u255_27
  4906  0FAB  0BF7               	decfsz	??_IOCB_interrupt+1,f
  4907  0FAC  2FA9               	goto	u255_27
  4908  0FAD  0000               	nop
  4909  0FAE                     i1l1848:
  4910                           
  4911                           ;proyecto_final.c: 567: 
  4912  0FAE  087D               	movf	_leer,w
  4913  0FAF  00F6               	movwf	??_IOCB_interrupt
  4914  0FB0  01F7               	clrf	??_IOCB_interrupt+1
  4915  0FB1  0876               	movf	??_IOCB_interrupt,w
  4916  0FB2  00F0               	movwf	readFromEEPROM@address
  4917  0FB3  0877               	movf	??_IOCB_interrupt+1,w
  4918  0FB4  00F1               	movwf	readFromEEPROM@address+1
  4919  0FB5  120A  158A  24D4  120A  158A  	fcall	_readFromEEPROM
  4920  0FBA  0870               	movf	?_readFromEEPROM,w
  4921  0FBB  1283               	bcf	3,5	;RP0=0, select bank0
  4922  0FBC  1303               	bcf	3,6	;RP1=0, select bank0
  4923  0FBD  0088               	movwf	8	;volatile
  4924  0FBE                     i1l1850:
  4925                           
  4926                           ;proyecto_final.c: 569: 
  4927  0FBE  3017               	movlw	23
  4928  0FBF  067D               	xorwf	_leer,w
  4929  0FC0  1D03               	btfss	3,2
  4930  0FC1  2FC3               	goto	u145_21
  4931  0FC2  2FC4               	goto	u145_20
  4932  0FC3                     u145_21:
  4933  0FC3  2FC9               	goto	i1l1854
  4934  0FC4                     u145_20:
  4935  0FC4                     i1l1852:
  4936                           
  4937                           ;proyecto_final.c: 570:     ADCON1bits.ADFM = 0;
  4938  0FC4  3010               	movlw	16
  4939  0FC5  00F6               	movwf	??_IOCB_interrupt
  4940  0FC6  0876               	movf	??_IOCB_interrupt,w
  4941  0FC7  00FD               	movwf	_leer
  4942                           
  4943                           ;proyecto_final.c: 571:     ADCON1bits.VCFG0 = 0;
  4944  0FC8  2FCD               	goto	i1l268
  4945  0FC9                     i1l1854:
  4946                           
  4947                           ;proyecto_final.c: 572:     ADCON1bits.VCFG1 = 0;
  4948  0FC9  3001               	movlw	1
  4949  0FCA  00F6               	movwf	??_IOCB_interrupt
  4950  0FCB  0876               	movf	??_IOCB_interrupt,w
  4951  0FCC  07FD               	addwf	_leer,f
  4952  0FCD                     i1l268:	
  4953                           ;proyecto_final.c: 573: 
  4954                           
  4955                           
  4956                           ;proyecto_final.c: 575:     ADCON0bits.CHS = 5;
  4957  0FCD  0808               	movf	8,w	;volatile
  4958  0FCE  00F6               	movwf	??_IOCB_interrupt
  4959  0FCF  1003               	clrc
  4960  0FD0  0C76               	rrf	??_IOCB_interrupt,w
  4961  0FD1  3E80               	addlw	128
  4962  0FD2  009B               	movwf	27	;volatile
  4963  0FD3                     i1l1856:
  4964                           
  4965                           ;proyecto_final.c: 576:     _delay((unsigned long)((50)*(8000000/4000000.0)));
  4966  0FD3  1808               	btfsc	8,0	;volatile
  4967  0FD4  2FD6               	goto	u146_21
  4968  0FD5  2FDA               	goto	u146_20
  4969  0FD6                     u146_21:
  4970  0FD6  1283               	bcf	3,5	;RP0=0, select bank0
  4971  0FD7  1303               	bcf	3,6	;RP1=0, select bank0
  4972  0FD8  169D               	bsf	29,5	;volatile
  4973  0FD9  2FDD               	goto	u147_24
  4974  0FDA                     u146_20:
  4975  0FDA  1283               	bcf	3,5	;RP0=0, select bank0
  4976  0FDB  1303               	bcf	3,6	;RP1=0, select bank0
  4977  0FDC  129D               	bcf	29,5	;volatile
  4978  0FDD                     u147_24:
  4979                           
  4980                           ;proyecto_final.c: 577:     ADCON0bits.ADON = 1;
  4981  0FDD  1683               	bsf	3,5	;RP0=1, select bank1
  4982  0FDE  1303               	bcf	3,6	;RP1=0, select bank1
  4983  0FDF  081E               	movf	30,w	;volatile
  4984  0FE0  00F6               	movwf	??_IOCB_interrupt
  4985  0FE1  3007               	movlw	7
  4986  0FE2                     u148_25:
  4987  0FE2  1003               	clrc
  4988  0FE3  0CF6               	rrf	??_IOCB_interrupt,f
  4989  0FE4  3EFF               	addlw	-1
  4990  0FE5  1D03               	skipz
  4991  0FE6  2FE2               	goto	u148_25
  4992  0FE7  0876               	movf	??_IOCB_interrupt,w
  4993  0FE8  00F7               	movwf	??_IOCB_interrupt+1
  4994  0FE9  0EF7               	swapf	??_IOCB_interrupt+1,f
  4995  0FEA  1283               	bcf	3,5	;RP0=0, select bank0
  4996  0FEB  1303               	bcf	3,6	;RP1=0, select bank0
  4997  0FEC  081D               	movf	29,w	;volatile
  4998  0FED  0677               	xorwf	??_IOCB_interrupt+1,w
  4999  0FEE  39EF               	andlw	-17
  5000  0FEF  0677               	xorwf	??_IOCB_interrupt+1,w
  5001  0FF0  009D               	movwf	29	;volatile
  5002  0FF1                     i1l1858:
  5003                           
  5004                           ;proyecto_final.c: 580:     PR2 = 250;
  5005  0FF1  3033               	movlw	51
  5006  0FF2  00F8               	movwf	??_IOCB_interrupt+2
  5007  0FF3  30BB               	movlw	187
  5008  0FF4  00F7               	movwf	??_IOCB_interrupt+1
  5009  0FF5  30DF               	movlw	223
  5010  0FF6  00F6               	movwf	??_IOCB_interrupt
  5011  0FF7                     u256_27:
  5012  0FF7  0BF6               	decfsz	??_IOCB_interrupt,f
  5013  0FF8  2FF7               	goto	u256_27
  5014  0FF9  0BF7               	decfsz	??_IOCB_interrupt+1,f
  5015  0FFA  2FF7               	goto	u256_27
  5016  0FFB  0BF8               	decfsz	??_IOCB_interrupt+2,f
  5017  0FFC  2FF7               	goto	u256_27
  5018  0FFD  2FFE               	nop2
  5019  0FFE                     i1l1860:
  5020                           
  5021                           ;proyecto_final.c: 584: 
  5022  0FFE  100B               	bcf	11,0	;volatile
  5023  0FFF                     i1l269:
  5024  0FFF  0008               	return
  5025  1000                     __end_of_IOCB_interrupt:
  5026                           
  5027                           	psect	text14
  5028  0CD4                     __ptext14:	
  5029 ;; *************** function _readFromEEPROM *****************
  5030 ;; Defined at:
  5031 ;;		line 446 in file "proyecto_final.c"
  5032 ;; Parameters:    Size  Location     Type
  5033 ;;  address         2    0[COMMON] int 
  5034 ;; Auto vars:     Size  Location     Type
  5035 ;;  data            2    4[COMMON] int 
  5036 ;; Return value:  Size  Location     Type
  5037 ;;                  2    0[COMMON] int 
  5038 ;; Registers used:
  5039 ;;		wreg
  5040 ;; Tracked objects:
  5041 ;;		On entry : 0/0
  5042 ;;		On exit  : 0/0
  5043 ;;		Unchanged: 0/0
  5044 ;; Data sizes:     COMMON   BANK0   BANK1   BANK3   BANK2
  5045 ;;      Params:         2       0       0       0       0
  5046 ;;      Locals:         2       0       0       0       0
  5047 ;;      Temps:          2       0       0       0       0
  5048 ;;      Totals:         6       0       0       0       0
  5049 ;;Total ram usage:        6 bytes
  5050 ;; Hardware stack levels used:    1
  5051 ;; This function calls:
  5052 ;;		Nothing
  5053 ;; This function is called by:
  5054 ;;		_IOCB_interrupt
  5055 ;; This function uses a non-reentrant model
  5056 ;;
  5057                           
  5058                           
  5059                           ;psect for function _readFromEEPROM
  5060  0CD4                     _readFromEEPROM:
  5061  0CD4                     i1l1652:	
  5062                           ;incstack = 0
  5063                           ; Regs used in _readFromEEPROM: [wreg]
  5064                           
  5065                           
  5066                           ;proyecto_final.c: 447:             PORTAbits.RA4 = 1;
  5067  0CD4  0870               	movf	readFromEEPROM@address,w
  5068  0CD5  1283               	bcf	3,5	;RP0=0, select bank2
  5069  0CD6  1703               	bsf	3,6	;RP1=1, select bank2
  5070  0CD7  008D               	movwf	13	;volatile
  5071  0CD8                     i1l1654:
  5072                           
  5073                           ;proyecto_final.c: 448:             _delay((unsigned long)((800)*(8000000/4000.0)));
  5074  0CD8  1683               	bsf	3,5	;RP0=1, select bank3
  5075  0CD9  1703               	bsf	3,6	;RP1=1, select bank3
  5076  0CDA  138C               	bcf	12,7	;volsfr
  5077  0CDB                     i1l1656:
  5078                           
  5079                           ;proyecto_final.c: 449:             PORTA = 8;
  5080  0CDB  140C               	bsf	12,0	;volsfr
  5081                           
  5082                           ;proyecto_final.c: 450: 
  5083  0CDC  1283               	bcf	3,5	;RP0=0, select bank2
  5084  0CDD  1703               	bsf	3,6	;RP1=1, select bank2
  5085  0CDE  080C               	movf	12,w	;volatile
  5086  0CDF  00F2               	movwf	??_readFromEEPROM
  5087  0CE0  01F3               	clrf	??_readFromEEPROM+1
  5088  0CE1  0872               	movf	??_readFromEEPROM,w
  5089  0CE2  00F4               	movwf	readFromEEPROM@data
  5090  0CE3  0873               	movf	??_readFromEEPROM+1,w
  5091  0CE4  00F5               	movwf	readFromEEPROM@data+1
  5092                           
  5093                           ;proyecto_final.c: 452:         else {
  5094  0CE5  0875               	movf	readFromEEPROM@data+1,w
  5095  0CE6  00F1               	movwf	?_readFromEEPROM+1
  5096  0CE7  0874               	movf	readFromEEPROM@data,w
  5097  0CE8  00F0               	movwf	?_readFromEEPROM
  5098  0CE9                     i1l239:
  5099  0CE9  0008               	return
  5100  0CEA                     __end_of_readFromEEPROM:
  5101  007E                     btemp	set	126	;btemp
  5102  007E                     wtemp0	set	126
  5103                           
  5104                           	psect	config
  5105                           
  5106                           ;Config register CONFIG1 @ 0x2007
  5107                           ;	Oscillator Selection bits
  5108                           ;	FOSC = INTRC_NOCLKOUT, INTOSCIO oscillator: I/O function on RA6/OSC2/CLKOUT pin, I/O f
      +                          unction on RA7/OSC1/CLKIN
  5109                           ;	Watchdog Timer Enable bit
  5110                           ;	WDTE = OFF, WDT disabled and can be enabled by SWDTEN bit of the WDTCON register
  5111                           ;	Power-up Timer Enable bit
  5112                           ;	PWRTE = ON, PWRT enabled
  5113                           ;	RE3/MCLR pin function select bit
  5114                           ;	MCLRE = OFF, RE3/MCLR pin function is digital input, MCLR internally tied to VDD
  5115                           ;	Code Protection bit
  5116                           ;	CP = OFF, Program memory code protection is disabled
  5117                           ;	Data Code Protection bit
  5118                           ;	CPD = OFF, Data memory code protection is disabled
  5119                           ;	Brown Out Reset Selection bits
  5120                           ;	BOREN = OFF, BOR disabled
  5121                           ;	Internal External Switchover bit
  5122                           ;	IESO = OFF, Internal/External Switchover mode is disabled
  5123                           ;	Fail-Safe Clock Monitor Enabled bit
  5124                           ;	FCMEN = OFF, Fail-Safe Clock Monitor is disabled
  5125                           ;	Low Voltage Programming Enable bit
  5126                           ;	LVP = OFF, RB3 pin has digital I/O, HV on MCLR must be used for programming
  5127                           ;	In-Circuit Debugger Mode bit
  5128                           ;	DEBUG = 0x1, unprogrammed default
  5129  2007                     	org	8199
  5130  2007  20C4               	dw	8388
  5131                           
  5132                           ;Config register CONFIG2 @ 0x2008
  5133                           ;	Brown-out Reset Selection bit
  5134                           ;	BOR4V = BOR40V, Brown-out Reset set to 4.0V
  5135                           ;	Flash Program Memory Self Write Enable bits
  5136                           ;	WRT = OFF, Write protection off
  5137  2008                     	org	8200
  5138  2008  3FFF               	dw	16383

Data Sizes:
    Strings     589
    Constant    1
    Data        5
    BSS         32
    Persistent  0
    Stack       0

Auto Spaces:
    Space          Size  Autos    Used
    COMMON           14     13      14
    BANK0            80     16      52
    BANK1            80      0       0
    BANK3            96      0       0
    BANK2            96      0       0

Pointer List with Targets:

    strlen@s	PTR const unsigned char  size(2) Largest target is 69
		 -> STR_18(CODE[49]), STR_17(CODE[32]), STR_16(CODE[69]), STR_15(CODE[42]), 
		 -> STR_14(CODE[52]), STR_13(CODE[55]), STR_12(CODE[45]), STR_11(CODE[39]), 
		 -> STR_10(CODE[45]), STR_9(CODE[38]), STR_8(CODE[30]), STR_7(CODE[25]), 
		 -> STR_6(CODE[18]), STR_5(CODE[19]), STR_4(CODE[19]), STR_3(CODE[27]), 
		 -> STR_2(CODE[30]), STR_1(CODE[49]), 

    strlen@cp	PTR const unsigned char  size(2) Largest target is 69
		 -> STR_18(CODE[49]), STR_17(CODE[32]), STR_16(CODE[69]), STR_15(CODE[42]), 
		 -> STR_14(CODE[52]), STR_13(CODE[55]), STR_12(CODE[45]), STR_11(CODE[39]), 
		 -> STR_10(CODE[45]), STR_9(CODE[38]), STR_8(CODE[30]), STR_7(CODE[25]), 
		 -> STR_6(CODE[18]), STR_5(CODE[19]), STR_4(CODE[19]), STR_3(CODE[27]), 
		 -> STR_2(CODE[30]), STR_1(CODE[49]), 

    showString@var	PTR unsigned char  size(2) Largest target is 69
		 -> STR_18(CODE[49]), STR_17(CODE[32]), STR_16(CODE[69]), STR_15(CODE[42]), 
		 -> STR_14(CODE[52]), STR_13(CODE[55]), STR_12(CODE[45]), STR_11(CODE[39]), 
		 -> STR_10(CODE[45]), STR_9(CODE[38]), STR_8(CODE[30]), STR_7(CODE[25]), 
		 -> STR_6(CODE[18]), STR_5(CODE[19]), STR_4(CODE[19]), STR_3(CODE[27]), 
		 -> STR_2(CODE[30]), STR_1(CODE[49]), 


Critical Paths under _main in COMMON

    None.

Critical Paths under _isr in COMMON

    _isr->_IOCB_interrupt
    _IOCB_interrupt->_readFromEEPROM

Critical Paths under _main in BANK0

    _main->_showString
    _showString->_strlen
    _setup->_config_io

Critical Paths under _isr in BANK0

    None.

Critical Paths under _main in BANK1

    None.

Critical Paths under _isr in BANK1

    None.

Critical Paths under _main in BANK3

    None.

Critical Paths under _isr in BANK3

    None.

Critical Paths under _main in BANK2

    None.

Critical Paths under _isr in BANK2

    None.

Call Graph Tables:

 ---------------------------------------------------------------------------------
 (Depth) Function   	        Calls       Base Space   Used Autos Params    Refs
 ---------------------------------------------------------------------------------
 (0) _main                                                 5     5      0    3466
                                             11 BANK0      5     5      0
                            ___awdiv
                             ___wmul
                       _dec_to_ascii
                              _setup
                         _showString
                      _writeToEEPROM
 ---------------------------------------------------------------------------------
 (1) _writeToEEPROM                                        4     0      4     348
                                              0 BANK0      4     0      4
 ---------------------------------------------------------------------------------
 (1) _showString                                           7     5      2    1624
                                              4 BANK0      7     5      2
                             _strlen
 ---------------------------------------------------------------------------------
 (2) _strlen                                               4     2      2     166
                                              0 BANK0      4     2      2
 ---------------------------------------------------------------------------------
 (1) _setup                                                0     0      0       0
                  _config_int_enable
                          _config_io
                        _config_iocb
                       _config_reloj
 ---------------------------------------------------------------------------------
 (2) _config_reloj                                         0     0      0       0
 ---------------------------------------------------------------------------------
 (2) _config_iocb                                          0     0      0       0
 ---------------------------------------------------------------------------------
 (2) _config_io                                            1     1      0       0
                                              0 BANK0      1     1      0
 ---------------------------------------------------------------------------------
 (2) _config_int_enable                                    0     0      0       0
 ---------------------------------------------------------------------------------
 (1) _dec_to_ascii                                         2     0      2     448
                                              0 BANK0      2     0      2
 ---------------------------------------------------------------------------------
 (1) ___wmul                                               6     2      4     396
                                              0 BANK0      6     2      4
 ---------------------------------------------------------------------------------
 (1) ___awdiv                                              9     5      4     604
                                              0 BANK0      9     5      4
 ---------------------------------------------------------------------------------
 Estimated maximum stack depth 2
 ---------------------------------------------------------------------------------
 (Depth) Function   	        Calls       Base Space   Used Autos Params    Refs
 ---------------------------------------------------------------------------------
 (3) _isr                                                  4     4      0     197
                                              9 COMMON     4     4      0
                     _IOCB_interrupt
 ---------------------------------------------------------------------------------
 (4) _IOCB_interrupt                                       3     3      0     197
                                              6 COMMON     3     3      0
                     _readFromEEPROM
 ---------------------------------------------------------------------------------
 (5) _readFromEEPROM                                       6     4      2     197
                                              0 COMMON     6     4      2
 ---------------------------------------------------------------------------------
 Estimated maximum stack depth 5
 ---------------------------------------------------------------------------------

 Call Graph Graphs:

 _main (ROOT)
   ___awdiv
   ___wmul
   _dec_to_ascii
   _setup
     _config_int_enable
     _config_io
     _config_iocb
     _config_reloj
   _showString
     _strlen
   _writeToEEPROM

 _isr (ROOT)
   _IOCB_interrupt
     _readFromEEPROM

 Address spaces:
Name               Size   Autos  Total    Cost      Usage
BANK3               60      0       0       9        0.0%
BITBANK3            60      0       0       8        0.0%
SFR3                 0      0       0       4        0.0%
BITSFR3              0      0       0       4        0.0%
BANK2               60      0       0      11        0.0%
BITBANK2            60      0       0      10        0.0%
SFR2                 0      0       0       5        0.0%
BITSFR2              0      0       0       5        0.0%
BANK1               50      0       0       7        0.0%
BITBANK1            50      0       0       6        0.0%
SFR1                 0      0       0       2        0.0%
BITSFR1              0      0       0       2        0.0%
BANK0               50     10      34       5       65.0%
BITBANK0            50      0       0       4        0.0%
SFR0                 0      0       0       1        0.0%
BITSFR0              0      0       0       1        0.0%
COMMON               E      D       E       1      100.0%
BITCOMMON            E      0       0       0        0.0%
CODE                 0      0       0       0        0.0%
DATA                 0      0      42      12        0.0%
ABS                  0      0      42       3        0.0%
NULL                 0      0       0       0        0.0%
STACK                0      0       0       2        0.0%
EEDATA             100      0       0       0        0.0%


Microchip Technology PIC Macro Assembler V2.31 build 20201012212115 
Symbol Table                                                                                   Thu Jun 03 20:46:23 2021

                         pc 0002                ___awdiv@sign 0046                          fsr 0004  
       ___wmul@multiplicand 0042                         l212 0ED4                         l225 0ED4  
                       l233 0CD3                         l236 04F8                         l272 04FF  
                       l281 0CBE                         l290 0D89                         l275 0E42  
                       l195 0316                         l187 02D7                         l284 0CAD  
                       l277 0E46                         l278 0E5B                         l376 0D1C  
                       l529 0DF2                         l378 0D34                         l830 0D0D  
                       _PR2 0092                         _isr 0760                         fsr0 0004  
                       indf 0000  __size_of_config_int_enable 0011               showString@var 0044  
                      l2000 017C                        l2010 01B5                        l2002 0186  
                      l2100 02FE                        l2020 01D1                        l2012 01BA  
                      l2004 019A                        l2110 0314                        l2102 0304  
                      l2030 01FD                        l2014 01C0                        l2022 01E5  
                      l2006 01A3                        l2200 048D                        l2120 032D  
                      l2104 0306                        l2040 0229                        l2024 01EB  
                      l2032 0211                        l2016 01C1                        l2008 01B4  
                      l2210 04B7                        l2202 0496                        l2122 032E  
                      l2106 030C                        l2130 0356                        l2050 025E  
                      l2034 0217                        l2042 023D                        l2026 01ED  
                      l2018 01C7                        l2212 04C4                        l2204 049B  
                      l2140 036E                        l2132 035C                        l2124 032F  
                      l2116 031C                        l2108 030E                        l2060 0276  
                      l2052 025F                        l2036 0219                        l2028 01F3  
                      l2044 023E                        l2214 04CD                        l2206 04A3  
                      l2150 039E                        l2142 0375                        l2134 0360  
                      l2126 0346                        l2118 032A                        l2070 029D  
                      l2062 027C                        l2054 0264                        l2046 0244  
                      l2038 021F                        l1600 0E1C                        l2216 04D2  
                      l2208 04AE                        l2160 03EC                        l2152 03B5  
                      l2144 037E                        l2136 0364                        l2128 0353  
                      l2080 02C5                        l2072 02A4                        l2064 0282  
                      l2056 026A                        l2048 0258                        l1610 0E32  
                      l1602 0E23                        l2218 04DA                        l2170 042F  
                      l2162 03FB                        l2154 03C8                        l2146 0385  
                      l2138 036B                        l2082 02C7                        l2066 0293  
                      l2074 02A6                        l2058 0270                        l2090 02D8  
                      l1700 0E6F                        l1620 0E3D                        l1612 0E36  
                      l1604 0E26                        l2172 043A                        l2164 0406  
                      l2156 03DF                        l2148 038B                        l2092 02DE  
                      l2084 02CE                        l2076 02AC                        l2068 029B  
                      l2180 044E                        l1630 0E4E                        l1622 0E3E  
                      l1614 0E38                        l1606 0E2A                        l2190 046B  
                      l2182 0454                        l2174 043E                        l2166 0415  
                      l2158 03E3                        l2094 02F2                        l2078 02BD  
                      l2086 02D0                        l1640 0E58                        l1632 0E52  
                      l1624 0E3F                        l1616 0E3A                        l1608 0E2E  
                      l2192 046F                        l2184 045A                        l2176 0449  
                      l2168 0420                        l2096 02F8                        l2088 02D6  
                      l1730 0E98                        l1722 0E8C                        l1714 0E80  
                      l1706 0E74                        l1634 0E53                        l1626 0E40  
                      l1618 0E3C                        l2194 0473                        l2186 0463  
                      l2098 02F9                        l1900 0DB7                        l1740 0EAB  
                      l1732 0E9F                        l1724 0E93                        l1716 0E87  
                      l1708 0E7B                        l1644 0CAE                        l1636 0E56  
                      l1628 0E41                        l1580 0DFD                        l1572 04F9  
                      l1660 0CEA                        l2196 0479                        l2188 0467  
                      l1910 0DD7                        l1902 0DBB                        l1638 0E57  
                      l1590 0E0D                        l1582 0DFF                        l1574 0DF3  
                      l1646 0CA8                        l1670 0CBF                        l1662 0CF1  
                      l2198 0480                        l1912 0DDE                        l1904 0DBF  
                      l1592 0E10                        l1584 0E02                        l1576 0DF6  
                      l1648 0CAC                        l1672 0CC4                        l1664 0CF7  
                      l1680 0D3A                        l1906 0DD0                        l1914 0DE4  
                      l1762 0EC8                        l1754 0EBC                        l1746 0EB0  
                      l1738 0EA4                        l1690 0E5C                        l1594 0E11  
                      l1586 0E05                        l1578 0DF8                        l1674 0CC9  
                      l1666 0D05                        l1682 0D52                        l1770 04EC  
                      l1930 004F                        l1922 003A                        l1916 0DE9  
                      l1908 0DD6                        l1764 0ECF                        l1756 0EC3  
                      l1748 0EB7                        l1692 0E64                        l1596 0E12  
                      l1588 0E08                        l1684 0D5C                        l1780 04F7  
                      l1772 04EF                        l1940 006F                        l1932 0054  
                      l1924 003F                        l1918 0DEE                        l1870 0D23  
                      l1598 0E18                        l1686 0D64                        l1678 0D35  
                      l1774 04F0                        l1950 008C                        l1942 0076  
                      l1934 005D                        l1926 0042                        l1880 0D8D  
                      l1872 0D2A                        l1864 0D0E                        l1688 0D79  
                      l1776 04F5                        l1768 04E0                        l1960 00A2  
                      l1952 0090                        l1936 0062                        l1928 0046  
                      l1944 0079                        l1890 0DA1                        l1882 0D91  
                      l1874 0D30                        l1866 0D12                        l1698 0E69  
                      l1778 04F6                        l1970 0111                        l1962 00ED  
                      l1954 0096                        l1946 007D                        l1938 006B  
                      l1892 0DA5                        l1884 0D96                        l1868 0D16  
                      l1980 0124                        l1972 0112                        l1964 00F1  
                      l1956 009A                        l1948 0083                        l1894 0DA7  
                      l1886 0D98                        l1878 0D8A                        l1990 0150  
                      l1982 012E                        l1974 0117                        l1966 00F7  
                      l1958 009C                        l1896 0DAD                        l1888 0D9C  
                      l1992 015A                        l1976 011D                        l1984 0142  
                      l1968 010B                        l1898 0DB0                        l1986 0148  
                      l1994 016E                        l1978 011E                        l1996 0174  
                      l1988 014A                        l1998 0176                        ?_isr 0070  
                      STR_1 05C3                        STR_2 06D6                        STR_3 06F4  
                      STR_4 073B                        STR_5 0728                        STR_6 074E  
                      STR_7 070F                        STR_8 06B8                        STR_9 0672  
                      u1200 0D44                        u2000 026A                        u2001 0269  
                      u1210 0D79                        u2010 0276                        u1211 0D78  
                      u2011 0275                        u1300 0EC3                        u1220 0E64  
                      u2100 02FE                        u2020 0282                        u1301 0EC2  
                      u1221 0E63                        u2101 02FD                        u2021 0281  
                      u1310 0ECF                        u1230 0E6F                        u2110 0304  
                      u2030 029B                        u1311 0ECE                        u1231 0E6E  
                      u1215 0D75                        u2111 0303                        u2031 029A  
                      u1240 0E7B                        u2200 0479                        u2120 030C  
                      u2040 02A4                        u1241 0E7A                        u2201 0478  
                      u2121 030B                        u2041 02A3                        u1250 0E87  
                      u2210 0496                        u2130 0314                        u2050 02AC  
                      u1251 0E86                        u2211 0495                        u2131 0313  
                      u2051 02AB                        u1260 0E93                        u1180 0E46  
                      u2220 04CD                        u2140 0353                        u2060 02C5  
                      _IOCB 0096                        u1261 0E92                        u1181 0E45  
                      u2221 04CC                        u2141 0352                        u2061 02C4  
                      u1270 0E9F                        u1190 0D05                        u2150 035C  
                      u2070 02CE                        u1271 0E9E                        u1191 0D04  
                      u2151 035B                        u2071 02CD                        u1520 0D30  
                      u1280 0EAB                        u2160 0454                        u2080 02D6  
                      u1521 0D2F                        u1505 0D1D                        u1281 0EAA  
                      u2161 0453                        u2145 034F                        u2081 02D5  
                      u1610 0DE4                        u1530 0D91                        u1290 0EB7  
                      u2170 045A                        u2090 02DE                        u1611 0DE3  
                      u1531 0D90                        u1515 0D24                        u1291 0EB6  
                      u2171 0459                        u2091 02DD                        u1620 0DE9  
                      u1540 0D9C                        u2180 046B                        u1700 00A2  
                      u1621 0DE8                        u1605 0DD8                        u1541 0D9B  
                      u2181 046A                        u1701 00A1                        u1550 0DAD  
                      u2190 0473                        u1710 00F7                        u1630 0046  
                      u1551 0DAC                        u2191 0472                        u2407 0368  
                      u1711 00F6                        u1631 0045                        u1720 0117  
                      u1640 004F                        u2417 0372                        u1721 0116  
                      u1641 004E                        u1570 0DBF                        u1490 0D16  
                      u1810 0174                        u1730 011D                        u1650 005D  
                      u1571 0DBE                        u1491 0D15                        u2507 0E20  
                      u2427 0382                        u1811 0173                        u1731 011C  
                      u1651 005C                        u1900 01EB                        u1820 0183  
                      u1740 012B                        u1660 006B                        u1565 0DB1  
                      u2437 0401                        u1901 01EA                        u1821 017F  
                      u1805 0161                        u1741 0127                        u2357 0073  
                      u1661 006A                        u1590 0DD0                        u1910 01FA  
                      u1670 007D                        u1591 0DCF                        u2447 041B  
                      u2367 028C                        u1911 01F6                        u1671 007C  
                      u1680 0083                        u1585 0DC0                        u2457 0435  
                      u2377 02B6                        u1681 0082                        u1850 01BA  
                      u1834 0186                        u1770 0148                        u1754 012E  
                      u1690 0096                        u1595 0DCC                        u2467 0444  
                      u2387 0324                        u1851 01B9                        u1771 0147  
                      u1691 0095                        u1940 0217                        u1924 01FD  
                      u1860 01C0                        u1780 0157                        u2477 04A9  
                      u2397 0338                        u1941 0216                        u1861 01BF  
                      u1845 018D                        u1781 0153                        u1765 0135  
                      u1950 0226                        u1870 01CE                        u2487 0D58  
                      u1951 0222                        u1935 0204                        u1871 01CA  
                      u2497 0D81                        u1794 015A                        u1980 0244  
                      u1964 0229                        u1884 01D1                        u1981 0243  
                      u1990 0264                        u1991 0263                        u1975 0230  
                      u1895 01D8                        _WPUB 0095                        _data 0512  
                      _flag 0052                        _main 003A                        _leer 007D  
                      btemp 007E              ??_config_reloj 0040                        start 000C  
            _IOCB_interrupt 0ED5                       ??_isr 0079                       ?_main 0070  
           __end_of___awdiv 0DF3                       _EEADR 010D                       STR_10 05F4  
                     _EEDAT 010C                       STR_11 064B                       STR_12 05F4  
                     STR_13 0558                       STR_14 058F                       STR_15 0621  
                     STR_16 0513                       STR_17 0698                       STR_18 05C3  
                     _ANSEL 0188             ___awdiv@divisor 0040                       i1l252 07F0  
                     i1l239 0CE9                       i1l266 0F81                       i1l268 0FCD  
                     i1l269 0FFF             ___awdiv@counter 0045                       _RCREG 001A  
                     _SPBRG 0099                       _PORTA 0005                       _PORTB 0006  
                     _PORTC 0007                       _PORTD 0008                       _PORTE 0009  
                     _TRISA 0085                       _TRISB 0086                       _TRISC 0087  
                     _TRISD 0088                       _TRISE 0089                       _TXREG 0019  
                     _flag2 003B                       _setup 0CBF                       _texto 0020  
                     main@i 004E                       pclath 000A                       status 0003  
                     wtemp0 007E      __end_of_IOCB_interrupt 1000             __initialization 000F  
              __end_of_data 0513                __end_of_main 04E0          readFromEEPROM@data 0074  
     readFromEEPROM@address 0070                      ??_main 004B                      _ADRESH 001E  
                    _ADRESL 009E                      _EEDATA 010C                      _CCPR1L 0015  
                    _CCPR2L 001B                      _EECON2 018D            ___awdiv@dividend 0042  
                    ?_setup 0070                      _ANSELH 0189                      i1l2220 0760  
                    i1l2230 0777                      i1l2222 0764                      i1l2232 0780  
                    i1l2240 07AB                      i1l2224 0769                      i1l2250 07D1  
                    i1l2242 07B4                      i1l2234 0786                      i1l2226 076F  
                    i1l2252 07DB                      i1l2244 07BC                      i1l2236 078C  
                    i1l2228 0773                      i1l2246 07C5                      i1l2254 07EF  
                    i1l2238 0796                      i1l1800 0F0D                      i1l2248 07CB  
                    i1l1810 0F38                      i1l1802 0F13                      i1l1652 0CD4  
                    i1l1820 0F47                      i1l1804 0F15                      i1l1812 0F3B  
                    i1l1654 0CD8                      i1l1830 0F57                      i1l1822 0F4B  
                    i1l1814 0F3F                      i1l1806 0F28                      i1l1656 0CDB  
                    i1l1840 0F78                      i1l1832 0F5B                      i1l1824 0F51  
                    i1l1816 0F45                      i1l1808 0F2A                      i1l1850 0FBE  
                    i1l1842 0F7D                      i1l1834 0F5E                      i1l1826 0F52  
                    i1l1818 0F46                      i1l1852 0FC4                      i1l1844 0F87  
                    i1l1836 0F62                      i1l1860 0FFE                      i1l1828 0F53  
                    i1l1854 0FC9                      i1l1846 0FA5                      i1l1838 0F72  
                    i1l1790 0EE3                      i1l1856 0FD3                      i1l1848 0FAE  
                    i1l1792 0EF6                      i1l1784 0ED5                      i1l1858 0FF1  
                    i1l1794 0EF8                      i1l1786 0EDB                      i1l1796 0F06  
                    i1l1788 0EE1                      i1l1798 0F09                      u140_20 0F62  
                    u132_20 0EDB                      u140_21 0F61                      u132_21 0EDA  
                    u141_20 0F78                      u133_20 0EE1                      u141_21 0F77  
                    u133_21 0EE0                      u142_20 0F8E                      u134_20 0F0D  
                    u230_20 07B4                      u142_21 0F8A                      u134_21 0F0C  
                    u230_21 07B3                      u135_20 0F13                      u231_20 07C5  
                    u223_20 0764                      u135_21 0F12                      u231_21 07C4  
                    u223_21 0763                      u143_24 0F91                      u136_20 0F3F  
                    u232_20 07D8                      u224_20 076F                      u136_21 0F3E  
                    u232_21 07D4                      u224_21 076E                      u144_25 0F96  
                    u145_20 0FC4                      u137_20 0F4B                      u225_20 0777  
                    u145_21 0FC3                      u137_21 0F4A                      u225_21 0776  
                    u233_24 07DB                      u146_20 0FDA                      u138_20 0F57  
                    u226_20 0780                      u146_21 0FD6                      u138_21 0F56  
                    u226_21 077F                      u234_25 07E0                      u139_20 0F5B  
                    u227_20 0793                      u139_21 0F5A                      u227_21 078F  
                    u147_24 0FDD                      u251_27 0EEA                      u228_24 0796  
                    u148_25 0FE2                      u252_27 0EFF                      u229_25 079B  
                    u253_27 0F1C                      u254_27 0F31                      u255_27 0FA9  
                    u256_27 0FF7                      _SPBRGH 009A       __size_of_dec_to_ascii 0079  
           ?_IOCB_interrupt 0070           writeToEEPROM@data 0040                      ___wmul 0D0E  
      __size_of_config_iocb 0006                   ??___awdiv 0044            ___awdiv@quotient 0047  
                    _opcion 003F                      _strlen 0CEA                __pdataCOMMON 007D  
      __end_of_config_reloj 0500                      saved_w 007E                _dec_to_ascii 0E5C  
    __size_of_writeToEEPROM 0019     __end_of__initialization 0036              __pcstackCOMMON 0070  
              __pidataBANK0 0CA4               __end_of_setup 0CD4     __size_of_readFromEEPROM 0016  
            _OPTION_REGbits 0081          __size_of_config_io 0069                     ??_setup 0041  
                __pbssBANK0 0020                  __pmaintext 003A                     ?___wmul 0040  
             _writeToEEPROM 04E0                  __pintentry 0004               _addressEEPROM 0050  
                   ?_strlen 0040                     _RB3_old 002F                  __stringtab 0500  
            ?_writeToEEPROM 0040           __end_of_config_io 0E5C                     ___awdiv 0D8A  
           __size_of___wmul 0027       __size_of_config_reloj 0007                     __ptext1 04E0  
                   __ptext2 0D35                     __ptext3 0CEA                     __ptext4 0CBF  
                   __ptext5 04F9                     __ptext6 0CA8                     __ptext7 0DF3  
                   __ptext8 0CAE                     __ptext9 0E5C          _temporal_posicion1 003E  
        _temporal_posicion2 003D             __size_of_strlen 0024                   _T2CONbits 0012  
              __size_of_isr 0097                     clrloop0 07F8        end_of_initialization 0036  
          ??_IOCB_interrupt 0076                _config_reloj 04F9                   _RCSTAbits 0018  
              __pstringtext 0500                     strlen@s 0040              _readFromEEPROM 0CD4  
                 _PORTAbits 0005                   _PORTBbits 0006                  _showString 0D35  
                 _PORTDbits 0008                 showString@i 0049                 _CCP1CONbits 0017  
               _CCP2CONbits 001D                   _TXSTAbits 0098               ??_config_iocb 0040  
           ??_writeToEEPROM 0044      __end_of_readFromEEPROM 0CEA              __end_of___wmul 0D35  
      writeToEEPROM@address 0042               __pidataCOMMON 07FF                 _BAUDCTLbits 0187  
            __end_of_strlen 0D0E         start_initialization 000F                 __end_of_isr 07F7  
                  ??___wmul 0044             ?_readFromEEPROM 0070                 __pdataBANK0 0050  
            _valor_centenas 0035         __end_of_config_iocb 0CAE                 ?_showString 0044  
                  ??_strlen 0042                   ___latbits 0002               __pcstackBANK0 0040  
            _valor_unidades 0031                    ?___awdiv 0040                   _eepromVal 002D  
                 _config_io 0DF3              __size_of_setup 0015                   _parpadear 002B  
         interrupt_function 0004              ___wmul@product 0044         __size_of_showString 0055  
                 clear_ram0 07F7                    _PIE1bits 008C                 _config_iocb 0CA8  
                  _PIR1bits 000C                   _valor_pot 0039                  ?_config_io 0070  
                _ADCON0bits 001F                 __stringbase 0512                  _ADCON1bits 009F  
         ___wmul@multiplier 0040               ?_dec_to_ascii 0040                  _EECON1bits 018C  
             _valor_decenas 0033            __size_of___awdiv 0069          __end_of__stringtab 0512  
            ??_dec_to_ascii 0042                    __ptext10 0D0E                    __ptext11 0D8A  
                  __ptext12 0760                    __ptext13 0ED5                    __ptext14 0CD4  
           dec_to_ascii@val 0040           _config_int_enable 0CAE          ?_config_int_enable 0070  
             __size_of_main 04A6         ??_config_int_enable 0040            ??_readFromEEPROM 0072  
                  _var_temp 0037       __end_of_writeToEEPROM 04F9     __size_of_IOCB_interrupt 012B  
               ??_config_io 0040                ??_showString 0046                  _INTCONbits 000B  
 __end_of_config_int_enable 0CBF                    intlevel1 0000          __end_of_showString 0D8A  
                 stringcode 050A                  _OSCCONbits 008F                    strlen@cp 0042  
                  stringtab 0500               ?_config_reloj 0070                ?_config_iocb 0070  
      __end_of_dec_to_ascii 0ED5  
