

Microchip MPLAB XC8 Assembler V2.31 build 20201012212115 
                                                                                               Fri Jun 04 17:04:07 2021

Microchip MPLAB XC8 C Compiler v2.31 (Free license) build 20201012212115 Og1 
     1                           	processor	16F887
     2                           	pagewidth 120
     3                           	opt	flic
     4                           	psect	idataCOMMON,global,class=CODE,delta=2,noexec
     5                           	psect	idataBANK0,global,class=CODE,delta=2,noexec
     6                           	psect	strings,global,class=STRING,delta=2,noexec
     7                           	psect	stringtext,global,reloc=256,class=STRCODE,delta=2,noexec
     8                           	psect	cinit,global,class=CODE,merge=1,delta=2
     9                           	psect	dataCOMMON,global,class=COMMON,space=1,delta=1,noexec
    10                           	psect	bssBANK0,global,class=BANK0,space=1,delta=1,noexec
    11                           	psect	dataBANK0,global,class=BANK0,space=1,delta=1,noexec
    12                           	psect	clrtext,global,class=CODE,delta=2
    13                           	psect	cstackCOMMON,global,class=COMMON,space=1,delta=1,noexec
    14                           	psect	cstackBANK0,global,class=BANK0,space=1,delta=1,noexec
    15                           	psect	maintext,global,class=CODE,split=1,delta=2
    16                           	psect	text1,local,class=CODE,merge=1,delta=2
    17                           	psect	text2,local,class=CODE,merge=1,delta=2
    18                           	psect	text3,local,class=CODE,merge=1,delta=2,group=2
    19                           	psect	text4,local,class=CODE,merge=1,delta=2
    20                           	psect	text5,local,class=CODE,merge=1,delta=2
    21                           	psect	text6,local,class=CODE,merge=1,delta=2
    22                           	psect	text7,local,class=CODE,merge=1,delta=2
    23                           	psect	text8,local,class=CODE,merge=1,delta=2
    24                           	psect	text9,local,class=CODE,merge=1,delta=2
    25                           	psect	text10,local,class=CODE,merge=1,delta=2,group=1
    26                           	psect	text11,local,class=CODE,merge=1,delta=2,group=1
    27                           	psect	text12,local,class=CODE,merge=1,delta=2
    28                           	psect	intentry,global,class=CODE,delta=2
    29                           	psect	text13,local,class=CODE,merge=1,delta=2
    30                           	psect	text14,local,class=CODE,merge=1,delta=2
    31                           	psect	config,global,abs,ovrld,class=CONFIG,space=4,delta=2,noexec
    32                           	dabs	1,0x7E,2
    33  0000                     
    34                           ; Version 2.20
    35                           ; Generated 12/02/2020 GMT
    36                           ; 
    37                           ; Copyright © 2020, Microchip Technology Inc. and its subsidiaries ("Microchip")
    38                           ; All rights reserved.
    39                           ; 
    40                           ; This software is developed by Microchip Technology Inc. and its subsidiaries ("Microch
      +                          ip").
    41                           ; 
    42                           ; Redistribution and use in source and binary forms, with or without modification, are
    43                           ; permitted provided that the following conditions are met:
    44                           ; 
    45                           ;     1. Redistributions of source code must retain the above copyright notice, this lis
      +                          t of
    46                           ;        conditions and the following disclaimer.
    47                           ; 
    48                           ;     2. Redistributions in binary form must reproduce the above copyright notice, this 
      +                          list
    49                           ;        of conditions and the following disclaimer in the documentation and/or other
    50                           ;        materials provided with the distribution.
    51                           ; 
    52                           ;     3. Microchip's name may not be used to endorse or promote products derived from th
      +                          is
    53                           ;        software without specific prior written permission.
    54                           ; 
    55                           ; THIS SOFTWARE IS PROVIDED BY MICROCHIP "AS IS" AND ANY EXPRESS OR IMPLIED WARRANTIES,
    56                           ; INCLUDING, BUT NOT LIMITED TO, THE IMPLIED WARRANTIES OF MERCHANTABILITY AND FITNESS F
      +                          OR
    57                           ; PURPOSE ARE DISCLAIMED.  IN NO EVENT SHALL MICROCHIP BE LIABLE FOR ANY DIRECT, INDIREC
      +                          T,
    58                           ; INCIDENTAL, SPECIAL, EXEMPLARY, OR CONSEQUENTIAL DAMAGES (INCLUDING BUT NOT LIMITED TO
    59                           ; PROCUREMENT OF SUBSTITUTE GOODS OR SERVICES; LOSS OF USE, DATA OR PROFITS; OR BUSINESS
    60                           ; INTERRUPTION) HOWSOEVER CAUSED AND ON ANY THEORY OF LIABILITY, WHETHER IN CONTRACT, ST
      +                          RICT
    61                           ; LIABILITY, OR TORT (INCLUDING NEGLIGENCE OR OTHERWISE) ARISING IN ANY WAY OUT OF THE U
      +                          SE OF
    62                           ; THIS SOFTWARE, EVEN IF ADVISED OF THE POSSIBILITY OF SUCH DAMAGE.
    63                           ; 
    64                           ; 
    65                           ; Code-generator required, PIC16F887 Definitions
    66                           ; 
    67                           ; SFR Addresses
    68  0000                     	;# 
    69  0001                     	;# 
    70  0002                     	;# 
    71  0003                     	;# 
    72  0004                     	;# 
    73  0005                     	;# 
    74  0006                     	;# 
    75  0007                     	;# 
    76  0008                     	;# 
    77  0009                     	;# 
    78  000A                     	;# 
    79  000B                     	;# 
    80  000C                     	;# 
    81  000D                     	;# 
    82  000E                     	;# 
    83  000E                     	;# 
    84  000F                     	;# 
    85  0010                     	;# 
    86  0011                     	;# 
    87  0012                     	;# 
    88  0013                     	;# 
    89  0014                     	;# 
    90  0015                     	;# 
    91  0015                     	;# 
    92  0016                     	;# 
    93  0017                     	;# 
    94  0018                     	;# 
    95  0019                     	;# 
    96  001A                     	;# 
    97  001B                     	;# 
    98  001B                     	;# 
    99  001C                     	;# 
   100  001D                     	;# 
   101  001E                     	;# 
   102  001F                     	;# 
   103  0081                     	;# 
   104  0085                     	;# 
   105  0086                     	;# 
   106  0087                     	;# 
   107  0088                     	;# 
   108  0089                     	;# 
   109  008C                     	;# 
   110  008D                     	;# 
   111  008E                     	;# 
   112  008F                     	;# 
   113  0090                     	;# 
   114  0091                     	;# 
   115  0092                     	;# 
   116  0093                     	;# 
   117  0093                     	;# 
   118  0093                     	;# 
   119  0094                     	;# 
   120  0095                     	;# 
   121  0096                     	;# 
   122  0097                     	;# 
   123  0098                     	;# 
   124  0099                     	;# 
   125  009A                     	;# 
   126  009B                     	;# 
   127  009C                     	;# 
   128  009D                     	;# 
   129  009E                     	;# 
   130  009F                     	;# 
   131  0105                     	;# 
   132  0107                     	;# 
   133  0108                     	;# 
   134  0109                     	;# 
   135  010C                     	;# 
   136  010C                     	;# 
   137  010D                     	;# 
   138  010E                     	;# 
   139  010F                     	;# 
   140  0185                     	;# 
   141  0187                     	;# 
   142  0188                     	;# 
   143  0189                     	;# 
   144  018C                     	;# 
   145  018D                     	;# 
   146  0000                     	;# 
   147  0001                     	;# 
   148  0002                     	;# 
   149  0003                     	;# 
   150  0004                     	;# 
   151  0005                     	;# 
   152  0006                     	;# 
   153  0007                     	;# 
   154  0008                     	;# 
   155  0009                     	;# 
   156  000A                     	;# 
   157  000B                     	;# 
   158  000C                     	;# 
   159  000D                     	;# 
   160  000E                     	;# 
   161  000E                     	;# 
   162  000F                     	;# 
   163  0010                     	;# 
   164  0011                     	;# 
   165  0012                     	;# 
   166  0013                     	;# 
   167  0014                     	;# 
   168  0015                     	;# 
   169  0015                     	;# 
   170  0016                     	;# 
   171  0017                     	;# 
   172  0018                     	;# 
   173  0019                     	;# 
   174  001A                     	;# 
   175  001B                     	;# 
   176  001B                     	;# 
   177  001C                     	;# 
   178  001D                     	;# 
   179  001E                     	;# 
   180  001F                     	;# 
   181  0081                     	;# 
   182  0085                     	;# 
   183  0086                     	;# 
   184  0087                     	;# 
   185  0088                     	;# 
   186  0089                     	;# 
   187  008C                     	;# 
   188  008D                     	;# 
   189  008E                     	;# 
   190  008F                     	;# 
   191  0090                     	;# 
   192  0091                     	;# 
   193  0092                     	;# 
   194  0093                     	;# 
   195  0093                     	;# 
   196  0093                     	;# 
   197  0094                     	;# 
   198  0095                     	;# 
   199  0096                     	;# 
   200  0097                     	;# 
   201  0098                     	;# 
   202  0099                     	;# 
   203  009A                     	;# 
   204  009B                     	;# 
   205  009C                     	;# 
   206  009D                     	;# 
   207  009E                     	;# 
   208  009F                     	;# 
   209  0105                     	;# 
   210  0107                     	;# 
   211  0108                     	;# 
   212  0109                     	;# 
   213  010C                     	;# 
   214  010C                     	;# 
   215  010D                     	;# 
   216  010E                     	;# 
   217  010F                     	;# 
   218  0185                     	;# 
   219  0187                     	;# 
   220  0188                     	;# 
   221  0189                     	;# 
   222  018C                     	;# 
   223  018D                     	;# 
   224                           
   225                           	psect	idataCOMMON
   226  07FD                     __pidataCOMMON:
   227                           
   228                           ;initializer for _leer
   229  07FD  3410               	retlw	16
   230                           
   231                           	psect	idataBANK0
   232  0CB3                     __pidataBANK0:
   233                           
   234                           ;initializer for _addressEEPROM
   235  0CB3  3410               	retlw	16
   236  0CB4  3400               	retlw	0
   237                           
   238                           ;initializer for _flag
   239  0CB5  3401               	retlw	1
   240  0CB6  3400               	retlw	0
   241  0018                     _RCSTAbits	set	24
   242  0012                     _T2CONbits	set	18
   243  0007                     _PORTC	set	7
   244  0009                     _PORTE	set	9
   245  0006                     _PORTB	set	6
   246  001A                     _RCREG	set	26
   247  000B                     _INTCONbits	set	11
   248  0006                     _PORTBbits	set	6
   249  0019                     _TXREG	set	25
   250  001E                     _ADRESH	set	30
   251  0005                     _PORTAbits	set	5
   252  0005                     _PORTA	set	5
   253  001D                     _CCP2CONbits	set	29
   254  001B                     _CCPR2L	set	27
   255  0008                     _PORTDbits	set	8
   256  0017                     _CCP1CONbits	set	23
   257  0015                     _CCPR1L	set	21
   258  0008                     _PORTD	set	8
   259  000C                     _PIR1bits	set	12
   260  001F                     _ADCON0bits	set	31
   261  0096                     _IOCB	set	150
   262  008C                     _PIE1bits	set	140
   263  009A                     _SPBRGH	set	154
   264  0099                     _SPBRG	set	153
   265  0098                     _TXSTAbits	set	152
   266  0092                     _PR2	set	146
   267  009F                     _ADCON1bits	set	159
   268  0095                     _WPUB	set	149
   269  0081                     _OPTION_REGbits	set	129
   270  0087                     _TRISC	set	135
   271  0088                     _TRISD	set	136
   272  0089                     _TRISE	set	137
   273  0085                     _TRISA	set	133
   274  0086                     _TRISB	set	134
   275  008F                     _OSCCONbits	set	143
   276  009E                     _ADRESL	set	158
   277  010C                     _EEDATA	set	268
   278  010C                     _EEDAT	set	268
   279  010D                     _EEADR	set	269
   280  0187                     _BAUDCTLbits	set	391
   281  0188                     _ANSEL	set	392
   282  0189                     _ANSELH	set	393
   283  018D                     _EECON2	set	397
   284  018C                     _EECON1bits	set	396
   285                           
   286                           	psect	strings
   287  0800                     __pstrings:
   288  0800                     stringtab:
   289  0800                     __stringtab:
   290                           
   291                           ;	String table - string pointers are 2 bytes each
   292  0800  1BFF               	btfsc	btemp+1,7
   293  0801  280A               	ljmp	stringcode
   294  0802  1383               	bcf	3,7
   295  0803  187F               	btfsc	btemp+1,0
   296  0804  1783               	bsf	3,7
   297  0805  0800               	movf	0,w
   298  0806  0A84               	incf	4,f
   299  0807  1903               	skipnz
   300  0808  0AFF               	incf	btemp+1,f
   301  0809  0008               	return
   302  080A                     stringcode:
   303  080A  087F               	movf	btemp+1,w
   304  080B  397F               	andlw	127
   305  080C  008A               	movwf	10
   306  080D  0804               	movf	4,w
   307  080E  0A84               	incf	4,f
   308  080F  1903               	skipnz
   309  0810  0AFF               	incf	btemp+1,f
   310  0811  0082               	movwf	2
   311  0812                     __stringbase:
   312  0812                     __end_of__stringtab:
   313                           
   314                           	psect	stringtext
   315  0500                     __pstringtext:
   316  0500                     STR_16:
   317  0500  3431               	retlw	49	;'1'
   318  0501  342E               	retlw	46	;'.'
   319  0502  3445               	retlw	69	;'E'
   320  0503  346E               	retlw	110	;'n'
   321  0504  3463               	retlw	99	;'c'
   322  0505  3465               	retlw	101	;'e'
   323  0506  346E               	retlw	110	;'n'
   324  0507  3464               	retlw	100	;'d'
   325  0508  3465               	retlw	101	;'e'
   326  0509  3472               	retlw	114	;'r'
   327  050A  3420               	retlw	32	;' '
   328  050B  346C               	retlw	108	;'l'
   329  050C  3465               	retlw	101	;'e'
   330  050D  3464               	retlw	100	;'d'
   331  050E  3473               	retlw	115	;'s'
   332  050F  3420               	retlw	32	;' '
   333  0510  3464               	retlw	100	;'d'
   334  0511  3465               	retlw	101	;'e'
   335  0512  346C               	retlw	108	;'l'
   336  0513  3461               	retlw	97	;'a'
   337  0514  346E               	retlw	110	;'n'
   338  0515  3474               	retlw	116	;'t'
   339  0516  3465               	retlw	101	;'e'
   340  0517  3472               	retlw	114	;'r'
   341  0518  3461               	retlw	97	;'a'
   342  0519  3473               	retlw	115	;'s'
   343  051A  3420               	retlw	32	;' '
   344  051B  3432               	retlw	50	;'2'
   345  051C  342E               	retlw	46	;'.'
   346  051D  3445               	retlw	69	;'E'
   347  051E  346E               	retlw	110	;'n'
   348  051F  3463               	retlw	99	;'c'
   349  0520  3465               	retlw	101	;'e'
   350  0521  346E               	retlw	110	;'n'
   351  0522  3464               	retlw	100	;'d'
   352  0523  3465               	retlw	101	;'e'
   353  0524  3472               	retlw	114	;'r'
   354  0525  3420               	retlw	32	;' '
   355  0526  346C               	retlw	108	;'l'
   356  0527  3465               	retlw	101	;'e'
   357  0528  3464               	retlw	100	;'d'
   358  0529  3473               	retlw	115	;'s'
   359  052A  3420               	retlw	32	;' '
   360  052B  3474               	retlw	116	;'t'
   361  052C  3472               	retlw	114	;'r'
   362  052D  3461               	retlw	97	;'a'
   363  052E  3473               	retlw	115	;'s'
   364  052F  3465               	retlw	101	;'e'
   365  0530  3472               	retlw	114	;'r'
   366  0531  3461               	retlw	97	;'a'
   367  0532  3473               	retlw	115	;'s'
   368  0533  3420               	retlw	32	;' '
   369  0534  3433               	retlw	51	;'3'
   370  0535  342E               	retlw	46	;'.'
   371  0536  3450               	retlw	80	;'P'
   372  0537  3461               	retlw	97	;'a'
   373  0538  3472               	retlw	114	;'r'
   374  0539  3470               	retlw	112	;'p'
   375  053A  3461               	retlw	97	;'a'
   376  053B  3464               	retlw	100	;'d'
   377  053C  3465               	retlw	101	;'e'
   378  053D  3461               	retlw	97	;'a'
   379  053E  3472               	retlw	114	;'r'
   380  053F  3420               	retlw	32	;' '
   381  0540  346C               	retlw	108	;'l'
   382  0541  3465               	retlw	101	;'e'
   383  0542  3464               	retlw	100	;'d'
   384  0543  3473               	retlw	115	;'s'
   385  0544  3400               	retlw	0
   386  0545                     STR_13:
   387  0545  3445               	retlw	69	;'E'
   388  0546  346C               	retlw	108	;'l'
   389  0547  3469               	retlw	105	;'i'
   390  0548  346A               	retlw	106	;'j'
   391  0549  3461               	retlw	97	;'a'
   392  054A  3420               	retlw	32	;' '
   393  054B  346C               	retlw	108	;'l'
   394  054C  3461               	retlw	97	;'a'
   395  054D  3420               	retlw	32	;' '
   396  054E  3461               	retlw	97	;'a'
   397  054F  3463               	retlw	99	;'c'
   398  0550  3463               	retlw	99	;'c'
   399  0551  3469               	retlw	105	;'i'
   400  0552  346F               	retlw	111	;'o'
   401  0553  346E               	retlw	110	;'n'
   402  0554  3420               	retlw	32	;' '
   403  0555  3471               	retlw	113	;'q'
   404  0556  3475               	retlw	117	;'u'
   405  0557  3465               	retlw	101	;'e'
   406  0558  3420               	retlw	32	;' '
   407  0559  3464               	retlw	100	;'d'
   408  055A  3465               	retlw	101	;'e'
   409  055B  3473               	retlw	115	;'s'
   410  055C  3465               	retlw	101	;'e'
   411  055D  3461               	retlw	97	;'a'
   412  055E  3420               	retlw	32	;' '
   413  055F  3472               	retlw	114	;'r'
   414  0560  3465               	retlw	101	;'e'
   415  0561  3461               	retlw	97	;'a'
   416  0562  346C               	retlw	108	;'l'
   417  0563  3469               	retlw	105	;'i'
   418  0564  347A               	retlw	122	;'z'
   419  0565  3461               	retlw	97	;'a'
   420  0566  3472               	retlw	114	;'r'
   421  0567  3420               	retlw	32	;' '
   422  0568  3470               	retlw	112	;'p'
   423  0569  3461               	retlw	97	;'a'
   424  056A  3472               	retlw	114	;'r'
   425  056B  3461               	retlw	97	;'a'
   426  056C  3420               	retlw	32	;' '
   427  056D  346D               	retlw	109	;'m'
   428  056E  346F               	retlw	111	;'o'
   429  056F  3476               	retlw	118	;'v'
   430  0570  3465               	retlw	101	;'e'
   431  0571  3472               	retlw	114	;'r'
   432  0572  3420               	retlw	32	;' '
   433  0573  3465               	retlw	101	;'e'
   434  0574  346C               	retlw	108	;'l'
   435  0575  3420               	retlw	32	;' '
   436  0576  3463               	retlw	99	;'c'
   437  0577  3461               	retlw	97	;'a'
   438  0578  3472               	retlw	114	;'r'
   439  0579  3472               	retlw	114	;'r'
   440  057A  346F               	retlw	111	;'o'
   441  057B  3400               	retlw	0
   442  057C                     STR_14:
   443  057C  3431               	retlw	49	;'1'
   444  057D  342E               	retlw	46	;'.'
   445  057E  3446               	retlw	70	;'F'
   446  057F  346F               	retlw	111	;'o'
   447  0580  3472               	retlw	114	;'r'
   448  0581  3462               	retlw	98	;'b'
   449  0582  3461               	retlw	97	;'a'
   450  0583  3463               	retlw	99	;'c'
   451  0584  346B               	retlw	107	;'k'
   452  0585  3420               	retlw	32	;' '
   453  0586  3432               	retlw	50	;'2'
   454  0587  342E               	retlw	46	;'.'
   455  0588  3446               	retlw	70	;'F'
   456  0589  346F               	retlw	111	;'o'
   457  058A  3472               	retlw	114	;'r'
   458  058B  3477               	retlw	119	;'w'
   459  058C  3461               	retlw	97	;'a'
   460  058D  3472               	retlw	114	;'r'
   461  058E  3464               	retlw	100	;'d'
   462  058F  3420               	retlw	32	;' '
   463  0590  3433               	retlw	51	;'3'
   464  0591  342E               	retlw	46	;'.'
   465  0592  3454               	retlw	84	;'T'
   466  0593  3475               	retlw	117	;'u'
   467  0594  3472               	retlw	114	;'r'
   468  0595  346E               	retlw	110	;'n'
   469  0596  3420               	retlw	32	;' '
   470  0597  3472               	retlw	114	;'r'
   471  0598  3469               	retlw	105	;'i'
   472  0599  3467               	retlw	103	;'g'
   473  059A  3474               	retlw	116	;'t'
   474  059B  3468               	retlw	104	;'h'
   475  059C  3420               	retlw	32	;' '
   476  059D  3434               	retlw	52	;'4'
   477  059E  342E               	retlw	46	;'.'
   478  059F  3454               	retlw	84	;'T'
   479  05A0  3475               	retlw	117	;'u'
   480  05A1  3472               	retlw	114	;'r'
   481  05A2  346E               	retlw	110	;'n'
   482  05A3  3420               	retlw	32	;' '
   483  05A4  346C               	retlw	108	;'l'
   484  05A5  3465               	retlw	101	;'e'
   485  05A6  3466               	retlw	102	;'f'
   486  05A7  3474               	retlw	116	;'t'
   487  05A8  3420               	retlw	32	;' '
   488  05A9  3435               	retlw	53	;'5'
   489  05AA  342E               	retlw	46	;'.'
   490  05AB  3453               	retlw	83	;'S'
   491  05AC  3474               	retlw	116	;'t'
   492  05AD  346F               	retlw	111	;'o'
   493  05AE  3470               	retlw	112	;'p'
   494  05AF  3400               	retlw	0
   495  05B0                     STR_1:
   496  05B0  3449               	retlw	73	;'I'
   497  05B1  346E               	retlw	110	;'n'
   498  05B2  3467               	retlw	103	;'g'
   499  05B3  3472               	retlw	114	;'r'
   500  05B4  3465               	retlw	101	;'e'
   501  05B5  3473               	retlw	115	;'s'
   502  05B6  3465               	retlw	101	;'e'
   503  05B7  3420               	retlw	32	;' '
   504  05B8  3431               	retlw	49	;'1'
   505  05B9  3420               	retlw	32	;' '
   506  05BA  3473               	retlw	115	;'s'
   507  05BB  3469               	retlw	105	;'i'
   508  05BC  3420               	retlw	32	;' '
   509  05BD  3464               	retlw	100	;'d'
   510  05BE  3465               	retlw	101	;'e'
   511  05BF  3473               	retlw	115	;'s'
   512  05C0  3465               	retlw	101	;'e'
   513  05C1  3461               	retlw	97	;'a'
   514  05C2  3420               	retlw	32	;' '
   515  05C3  3469               	retlw	105	;'i'
   516  05C4  346E               	retlw	110	;'n'
   517  05C5  3467               	retlw	103	;'g'
   518  05C6  3472               	retlw	114	;'r'
   519  05C7  3465               	retlw	101	;'e'
   520  05C8  3473               	retlw	115	;'s'
   521  05C9  3461               	retlw	97	;'a'
   522  05CA  3472               	retlw	114	;'r'
   523  05CB  3420               	retlw	32	;' '
   524  05CC  3461               	retlw	97	;'a'
   525  05CD  3420               	retlw	32	;' '
   526  05CE  346D               	retlw	109	;'m'
   527  05CF  346F               	retlw	111	;'o'
   528  05D0  3464               	retlw	100	;'d'
   529  05D1  346F               	retlw	111	;'o'
   530  05D2  3420               	retlw	32	;' '
   531  05D3  3463               	retlw	99	;'c'
   532  05D4  346F               	retlw	111	;'o'
   533  05D5  346E               	retlw	110	;'n'
   534  05D6  3474               	retlw	116	;'t'
   535  05D7  3472               	retlw	114	;'r'
   536  05D8  346F               	retlw	111	;'o'
   537  05D9  346C               	retlw	108	;'l'
   538  05DA  3420               	retlw	32	;' '
   539  05DB  3455               	retlw	85	;'U'
   540  05DC  3453               	retlw	83	;'S'
   541  05DD  3441               	retlw	65	;'A'
   542  05DE  3452               	retlw	82	;'R'
   543  05DF  3454               	retlw	84	;'T'
   544  05E0  3400               	retlw	0
   545  05E1                     STR_10:
   546  05E1  3449               	retlw	73	;'I'
   547  05E2  346E               	retlw	110	;'n'
   548  05E3  3467               	retlw	103	;'g'
   549  05E4  3472               	retlw	114	;'r'
   550  05E5  3465               	retlw	101	;'e'
   551  05E6  3473               	retlw	115	;'s'
   552  05E7  3465               	retlw	101	;'e'
   553  05E8  343A               	retlw	58	;':'
   554  05E9  3420               	retlw	32	;' '
   555  05EA  3431               	retlw	49	;'1'
   556  05EB  342D               	retlw	45	;'-'
   557  05EC  342E               	retlw	46	;'.'
   558  05ED  3430               	retlw	48	;'0'
   559  05EE  3467               	retlw	103	;'g'
   560  05EF  3472               	retlw	114	;'r'
   561  05F0  3461               	retlw	97	;'a'
   562  05F1  3464               	retlw	100	;'d'
   563  05F2  346F               	retlw	111	;'o'
   564  05F3  3473               	retlw	115	;'s'
   565  05F4  3420               	retlw	32	;' '
   566  05F5  3432               	retlw	50	;'2'
   567  05F6  342D               	retlw	45	;'-'
   568  05F7  342E               	retlw	46	;'.'
   569  05F8  3439               	retlw	57	;'9'
   570  05F9  3430               	retlw	48	;'0'
   571  05FA  3467               	retlw	103	;'g'
   572  05FB  3472               	retlw	114	;'r'
   573  05FC  3461               	retlw	97	;'a'
   574  05FD  3464               	retlw	100	;'d'
   575  05FE  346F               	retlw	111	;'o'
   576  05FF  3473               	retlw	115	;'s'
   577  0600  3420               	retlw	32	;' '
   578  0601  3433               	retlw	51	;'3'
   579  0602  342D               	retlw	45	;'-'
   580  0603  342E               	retlw	46	;'.'
   581  0604  3431               	retlw	49	;'1'
   582  0605  3438               	retlw	56	;'8'
   583  0606  3430               	retlw	48	;'0'
   584  0607  3467               	retlw	103	;'g'
   585  0608  3472               	retlw	114	;'r'
   586  0609  3461               	retlw	97	;'a'
   587  060A  3464               	retlw	100	;'d'
   588  060B  346F               	retlw	111	;'o'
   589  060C  3473               	retlw	115	;'s'
   590  060D  3400               	retlw	0
   591  060E                     STR_15:
   592  060E  3449               	retlw	73	;'I'
   593  060F  346E               	retlw	110	;'n'
   594  0610  3467               	retlw	103	;'g'
   595  0611  3472               	retlw	114	;'r'
   596  0612  3465               	retlw	101	;'e'
   597  0613  3473               	retlw	115	;'s'
   598  0614  3465               	retlw	101	;'e'
   599  0615  3420               	retlw	32	;' '
   600  0616  346C               	retlw	108	;'l'
   601  0617  3461               	retlw	97	;'a'
   602  0618  3420               	retlw	32	;' '
   603  0619  3461               	retlw	97	;'a'
   604  061A  3463               	retlw	99	;'c'
   605  061B  3463               	retlw	99	;'c'
   606  061C  3469               	retlw	105	;'i'
   607  061D  346F               	retlw	111	;'o'
   608  061E  346E               	retlw	110	;'n'
   609  061F  3420               	retlw	32	;' '
   610  0620  3461               	retlw	97	;'a'
   611  0621  3420               	retlw	32	;' '
   612  0622  3472               	retlw	114	;'r'
   613  0623  3465               	retlw	101	;'e'
   614  0624  3461               	retlw	97	;'a'
   615  0625  346C               	retlw	108	;'l'
   616  0626  3469               	retlw	105	;'i'
   617  0627  347A               	retlw	122	;'z'
   618  0628  3461               	retlw	97	;'a'
   619  0629  3472               	retlw	114	;'r'
   620  062A  3420               	retlw	32	;' '
   621  062B  3463               	retlw	99	;'c'
   622  062C  346F               	retlw	111	;'o'
   623  062D  346E               	retlw	110	;'n'
   624  062E  3420               	retlw	32	;' '
   625  062F  346C               	retlw	108	;'l'
   626  0630  346F               	retlw	111	;'o'
   627  0631  3473               	retlw	115	;'s'
   628  0632  3420               	retlw	32	;' '
   629  0633  346C               	retlw	108	;'l'
   630  0634  3465               	retlw	101	;'e'
   631  0635  3464               	retlw	100	;'d'
   632  0636  3473               	retlw	115	;'s'
   633  0637  3400               	retlw	0
   634  0638                     STR_11:
   635  0638  3445               	retlw	69	;'E'
   636  0639  346C               	retlw	108	;'l'
   637  063A  3469               	retlw	105	;'i'
   638  063B  346A               	retlw	106	;'j'
   639  063C  3461               	retlw	97	;'a'
   640  063D  3420               	retlw	32	;' '
   641  063E  346C               	retlw	108	;'l'
   642  063F  3461               	retlw	97	;'a'
   643  0640  3420               	retlw	32	;' '
   644  0641  3470               	retlw	112	;'p'
   645  0642  346F               	retlw	111	;'o'
   646  0643  3473               	retlw	115	;'s'
   647  0644  3469               	retlw	105	;'i'
   648  0645  3463               	retlw	99	;'c'
   649  0646  3469               	retlw	105	;'i'
   650  0647  346F               	retlw	111	;'o'
   651  0648  346E               	retlw	110	;'n'
   652  0649  3420               	retlw	32	;' '
   653  064A  3464               	retlw	100	;'d'
   654  064B  3465               	retlw	101	;'e'
   655  064C  346C               	retlw	108	;'l'
   656  064D  3420               	retlw	32	;' '
   657  064E  3473               	retlw	115	;'s'
   658  064F  3465               	retlw	101	;'e'
   659  0650  3472               	retlw	114	;'r'
   660  0651  3476               	retlw	118	;'v'
   661  0652  346F               	retlw	111	;'o'
   662  0653  3420               	retlw	32	;' '
   663  0654  3432               	retlw	50	;'2'
   664  0655  3420               	retlw	32	;' '
   665  0656  3428               	retlw	40	;'('
   666  0657  3461               	retlw	97	;'a'
   667  0658  3472               	retlw	114	;'r'
   668  0659  3472               	retlw	114	;'r'
   669  065A  3469               	retlw	105	;'i'
   670  065B  3462               	retlw	98	;'b'
   671  065C  3461               	retlw	97	;'a'
   672  065D  3429               	retlw	41	;')'
   673  065E  3400               	retlw	0
   674  065F                     STR_9:
   675  065F  3445               	retlw	69	;'E'
   676  0660  346C               	retlw	108	;'l'
   677  0661  3469               	retlw	105	;'i'
   678  0662  346A               	retlw	106	;'j'
   679  0663  3461               	retlw	97	;'a'
   680  0664  3420               	retlw	32	;' '
   681  0665  346C               	retlw	108	;'l'
   682  0666  3461               	retlw	97	;'a'
   683  0667  3420               	retlw	32	;' '
   684  0668  3470               	retlw	112	;'p'
   685  0669  346F               	retlw	111	;'o'
   686  066A  3473               	retlw	115	;'s'
   687  066B  3469               	retlw	105	;'i'
   688  066C  3463               	retlw	99	;'c'
   689  066D  3469               	retlw	105	;'i'
   690  066E  346F               	retlw	111	;'o'
   691  066F  346E               	retlw	110	;'n'
   692  0670  3420               	retlw	32	;' '
   693  0671  3464               	retlw	100	;'d'
   694  0672  3465               	retlw	101	;'e'
   695  0673  346C               	retlw	108	;'l'
   696  0674  3420               	retlw	32	;' '
   697  0675  3473               	retlw	115	;'s'
   698  0676  3465               	retlw	101	;'e'
   699  0677  3472               	retlw	114	;'r'
   700  0678  3476               	retlw	118	;'v'
   701  0679  346F               	retlw	111	;'o'
   702  067A  3420               	retlw	32	;' '
   703  067B  3431               	retlw	49	;'1'
   704  067C  3420               	retlw	32	;' '
   705  067D  3428               	retlw	40	;'('
   706  067E  3461               	retlw	97	;'a'
   707  067F  3462               	retlw	98	;'b'
   708  0680  3461               	retlw	97	;'a'
   709  0681  346A               	retlw	106	;'j'
   710  0682  346F               	retlw	111	;'o'
   711  0683  3429               	retlw	41	;')'
   712  0684  3400               	retlw	0
   713  0685                     STR_17:
   714  0685  3445               	retlw	69	;'E'
   715  0686  346C               	retlw	108	;'l'
   716  0687  3420               	retlw	32	;' '
   717  0688  3476               	retlw	118	;'v'
   718  0689  3461               	retlw	97	;'a'
   719  068A  346C               	retlw	108	;'l'
   720  068B  346F               	retlw	111	;'o'
   721  068C  3472               	retlw	114	;'r'
   722  068D  3420               	retlw	32	;' '
   723  068E  3465               	retlw	101	;'e'
   724  068F  346E               	retlw	110	;'n'
   725  0690  3420               	retlw	32	;' '
   726  0691  3464               	retlw	100	;'d'
   727  0692  3465               	retlw	101	;'e'
   728  0693  3463               	retlw	99	;'c'
   729  0694  3469               	retlw	105	;'i'
   730  0695  346D               	retlw	109	;'m'
   731  0696  3461               	retlw	97	;'a'
   732  0697  346C               	retlw	108	;'l'
   733  0698  3420               	retlw	32	;' '
   734  0699  3464               	retlw	100	;'d'
   735  069A  3465               	retlw	101	;'e'
   736  069B  346C               	retlw	108	;'l'
   737  069C  3420               	retlw	32	;' '
   738  069D  3470               	retlw	112	;'p'
   739  069E  346F               	retlw	111	;'o'
   740  069F  3474               	retlw	116	;'t'
   741  06A0  3420               	retlw	32	;' '
   742  06A1  3465               	retlw	101	;'e'
   743  06A2  3473               	retlw	115	;'s'
   744  06A3  343A               	retlw	58	;':'
   745  06A4  3400               	retlw	0
   746  06A5                     STR_8:
   747  06A5  3428               	retlw	40	;'('
   748  06A6  3435               	retlw	53	;'5'
   749  06A7  3429               	retlw	41	;')'
   750  06A8  3453               	retlw	83	;'S'
   751  06A9  3461               	retlw	97	;'a'
   752  06AA  346C               	retlw	108	;'l'
   753  06AB  3469               	retlw	105	;'i'
   754  06AC  3472               	retlw	114	;'r'
   755  06AD  3420               	retlw	32	;' '
   756  06AE  3464               	retlw	100	;'d'
   757  06AF  3465               	retlw	101	;'e'
   758  06B0  3420               	retlw	32	;' '
   759  06B1  3463               	retlw	99	;'c'
   760  06B2  346F               	retlw	111	;'o'
   761  06B3  346E               	retlw	110	;'n'
   762  06B4  3474               	retlw	116	;'t'
   763  06B5  3472               	retlw	114	;'r'
   764  06B6  346F               	retlw	111	;'o'
   765  06B7  346C               	retlw	108	;'l'
   766  06B8  3420               	retlw	32	;' '
   767  06B9  3470               	retlw	112	;'p'
   768  06BA  346F               	retlw	111	;'o'
   769  06BB  3472               	retlw	114	;'r'
   770  06BC  3420               	retlw	32	;' '
   771  06BD  3455               	retlw	85	;'U'
   772  06BE  3453               	retlw	83	;'S'
   773  06BF  3441               	retlw	65	;'A'
   774  06C0  3452               	retlw	82	;'R'
   775  06C1  3454               	retlw	84	;'T'
   776  06C2  3400               	retlw	0
   777  06C3                     STR_2:
   778  06C3  3442               	retlw	66	;'B'
   779  06C4  3469               	retlw	105	;'i'
   780  06C5  3465               	retlw	101	;'e'
   781  06C6  346E               	retlw	110	;'n'
   782  06C7  3476               	retlw	118	;'v'
   783  06C8  3465               	retlw	101	;'e'
   784  06C9  346E               	retlw	110	;'n'
   785  06CA  3469               	retlw	105	;'i'
   786  06CB  3464               	retlw	100	;'d'
   787  06CC  346F               	retlw	111	;'o'
   788  06CD  3420               	retlw	32	;' '
   789  06CE  3461               	retlw	97	;'a'
   790  06CF  3420               	retlw	32	;' '
   791  06D0  346E               	retlw	110	;'n'
   792  06D1  3475               	retlw	117	;'u'
   793  06D2  3465               	retlw	101	;'e'
   794  06D3  3473               	retlw	115	;'s'
   795  06D4  3474               	retlw	116	;'t'
   796  06D5  3472               	retlw	114	;'r'
   797  06D6  346F               	retlw	111	;'o'
   798  06D7  3420               	retlw	32	;' '
   799  06D8  3470               	retlw	112	;'p'
   800  06D9  3472               	retlw	114	;'r'
   801  06DA  346F               	retlw	111	;'o'
   802  06DB  3467               	retlw	103	;'g'
   803  06DC  3472               	retlw	114	;'r'
   804  06DD  3461               	retlw	97	;'a'
   805  06DE  346D               	retlw	109	;'m'
   806  06DF  3461               	retlw	97	;'a'
   807  06E0  3400               	retlw	0
   808  06E1                     STR_3:
   809  06E1  3451               	retlw	81	;'Q'
   810  06E2  3475               	retlw	117	;'u'
   811  06E3  3465               	retlw	101	;'e'
   812  06E4  3420               	retlw	32	;' '
   813  06E5  3461               	retlw	97	;'a'
   814  06E6  3463               	retlw	99	;'c'
   815  06E7  3463               	retlw	99	;'c'
   816  06E8  3469               	retlw	105	;'i'
   817  06E9  346F               	retlw	111	;'o'
   818  06EA  346E               	retlw	110	;'n'
   819  06EB  3420               	retlw	32	;' '
   820  06EC  3464               	retlw	100	;'d'
   821  06ED  3465               	retlw	101	;'e'
   822  06EE  3473               	retlw	115	;'s'
   823  06EF  3465               	retlw	101	;'e'
   824  06F0  3461               	retlw	97	;'a'
   825  06F1  3420               	retlw	32	;' '
   826  06F2  3465               	retlw	101	;'e'
   827  06F3  346A               	retlw	106	;'j'
   828  06F4  3465               	retlw	101	;'e'
   829  06F5  3463               	retlw	99	;'c'
   830  06F6  3475               	retlw	117	;'u'
   831  06F7  3474               	retlw	116	;'t'
   832  06F8  3461               	retlw	97	;'a'
   833  06F9  3472               	retlw	114	;'r'
   834  06FA  343F               	retlw	63	;'?'
   835  06FB  3400               	retlw	0
   836  06FC                     STR_7:
   837  06FC  3428               	retlw	40	;'('
   838  06FD  3434               	retlw	52	;'4'
   839  06FE  3429               	retlw	41	;')'
   840  06FF  344D               	retlw	77	;'M'
   841  0700  346F               	retlw	111	;'o'
   842  0701  3473               	retlw	115	;'s'
   843  0702  3474               	retlw	116	;'t'
   844  0703  3472               	retlw	114	;'r'
   845  0704  3461               	retlw	97	;'a'
   846  0705  3472               	retlw	114	;'r'
   847  0706  3420               	retlw	32	;' '
   848  0707  3470               	retlw	112	;'p'
   849  0708  346F               	retlw	111	;'o'
   850  0709  3474               	retlw	116	;'t'
   851  070A  3465               	retlw	101	;'e'
   852  070B  346E               	retlw	110	;'n'
   853  070C  3463               	retlw	99	;'c'
   854  070D  3469               	retlw	105	;'i'
   855  070E  346F               	retlw	111	;'o'
   856  070F  346D               	retlw	109	;'m'
   857  0710  3465               	retlw	101	;'e'
   858  0711  3474               	retlw	116	;'t'
   859  0712  3472               	retlw	114	;'r'
   860  0713  346F               	retlw	111	;'o'
   861  0714  3400               	retlw	0
   862  0715                     STR_5:
   863  0715  3428               	retlw	40	;'('
   864  0716  3432               	retlw	50	;'2'
   865  0717  3429               	retlw	41	;')'
   866  0718  3443               	retlw	67	;'C'
   867  0719  346F               	retlw	111	;'o'
   868  071A  346E               	retlw	110	;'n'
   869  071B  3474               	retlw	116	;'t'
   870  071C  3472               	retlw	114	;'r'
   871  071D  346F               	retlw	111	;'o'
   872  071E  346C               	retlw	108	;'l'
   873  071F  3461               	retlw	97	;'a'
   874  0720  3472               	retlw	114	;'r'
   875  0721  3420               	retlw	32	;' '
   876  0722  3443               	retlw	67	;'C'
   877  0723  3461               	retlw	97	;'a'
   878  0724  3472               	retlw	114	;'r'
   879  0725  3472               	retlw	114	;'r'
   880  0726  346F               	retlw	111	;'o'
   881  0727  3400               	retlw	0
   882  0728                     STR_4:
   883  0728  3428               	retlw	40	;'('
   884  0729  3431               	retlw	49	;'1'
   885  072A  3429               	retlw	41	;')'
   886  072B  3443               	retlw	67	;'C'
   887  072C  346F               	retlw	111	;'o'
   888  072D  346E               	retlw	110	;'n'
   889  072E  3474               	retlw	116	;'t'
   890  072F  3472               	retlw	114	;'r'
   891  0730  346F               	retlw	111	;'o'
   892  0731  346C               	retlw	108	;'l'
   893  0732  3461               	retlw	97	;'a'
   894  0733  3472               	retlw	114	;'r'
   895  0734  3420               	retlw	32	;' '
   896  0735  3442               	retlw	66	;'B'
   897  0736  3472               	retlw	114	;'r'
   898  0737  3461               	retlw	97	;'a'
   899  0738  347A               	retlw	122	;'z'
   900  0739  346F               	retlw	111	;'o'
   901  073A  3400               	retlw	0
   902  073B                     STR_6:
   903  073B  3428               	retlw	40	;'('
   904  073C  3433               	retlw	51	;'3'
   905  073D  3429               	retlw	41	;')'
   906  073E  3443               	retlw	67	;'C'
   907  073F  346F               	retlw	111	;'o'
   908  0740  346E               	retlw	110	;'n'
   909  0741  3474               	retlw	116	;'t'
   910  0742  3472               	retlw	114	;'r'
   911  0743  346F               	retlw	111	;'o'
   912  0744  346C               	retlw	108	;'l'
   913  0745  3461               	retlw	97	;'a'
   914  0746  3472               	retlw	114	;'r'
   915  0747  3420               	retlw	32	;' '
   916  0748  344C               	retlw	76	;'L'
   917  0749  3445               	retlw	69	;'E'
   918  074A  3444               	retlw	68	;'D'
   919  074B  3473               	retlw	115	;'s'
   920  074C  3400               	retlw	0
   921  05B0                     
   922                           	psect	cinit
   923  000F                     start_initialization:	
   924                           ; #config settings
   925                           
   926  000F                     __initialization:
   927                           
   928                           ; Initialize objects allocated to BANK0
   929  000F  120A  158A  24B3  120A  118A  	fcall	__pidataBANK0	;fetch initializer
   930  0014  00C5               	movwf	__pdataBANK0& (0+127)
   931  0015  120A  158A  24B4  120A  118A  	fcall	__pidataBANK0+1	;fetch initializer
   932  001A  00C6               	movwf	(__pdataBANK0+1)& (0+127)
   933  001B  120A  158A  24B5  120A  118A  	fcall	__pidataBANK0+2	;fetch initializer
   934  0020  00C7               	movwf	(__pdataBANK0+2)& (0+127)
   935  0021  120A  158A  24B6  120A  118A  	fcall	__pidataBANK0+3	;fetch initializer
   936  0026  00C8               	movwf	(__pdataBANK0+3)& (0+127)
   937                           
   938                           ; Initialize objects allocated to COMMON
   939  0027  120A  118A  27FD  120A  118A  	fcall	__pidataCOMMON	;fetch initializer
   940  002C  00FD               	movwf	__pdataCOMMON& (0+127)
   941                           
   942                           ; Clear objects allocated to BANK0
   943  002D  1383               	bcf	3,7	;select IRP bank0
   944  002E  3020               	movlw	low __pbssBANK0
   945  002F  0084               	movwf	4
   946  0030  3035               	movlw	low (__pbssBANK0+21)
   947  0031  120A  118A  24F6  120A  118A  	fcall	clear_ram0
   948  0036                     end_of_initialization:	
   949                           ;End of C runtime variable initialization code
   950                           
   951  0036                     __end_of__initialization:
   952  0036  0183               	clrf	3
   953  0037  120A  118A  283A   	ljmp	_main	;jump to C main() function
   954                           
   955                           	psect	dataCOMMON
   956  007D                     __pdataCOMMON:
   957  007D                     _leer:
   958  007D                     	ds	1
   959                           
   960                           	psect	bssBANK0
   961  0020                     __pbssBANK0:
   962  0020                     _parpadear:
   963  0020                     	ds	2
   964  0022                     _eepromVal:
   965  0022                     	ds	2
   966  0024                     _RB3_old:
   967  0024                     	ds	2
   968  0026                     _valor_unidades:
   969  0026                     	ds	2
   970  0028                     _valor_decenas:
   971  0028                     	ds	2
   972  002A                     _valor_centenas:
   973  002A                     	ds	2
   974  002C                     _var_temp:
   975  002C                     	ds	2
   976  002E                     _valor_pot:
   977  002E                     	ds	2
   978  0030                     _flag2:
   979  0030                     	ds	2
   980  0032                     _temporal_posicion2:
   981  0032                     	ds	1
   982  0033                     _temporal_posicion1:
   983  0033                     	ds	1
   984  0034                     _opcion:
   985  0034                     	ds	1
   986                           
   987                           	psect	dataBANK0
   988  0045                     __pdataBANK0:
   989  0045                     _addressEEPROM:
   990  0045                     	ds	2
   991  0047                     _flag:
   992  0047                     	ds	2
   993                           
   994                           	psect	clrtext
   995  04F6                     clear_ram0:	
   996                           ;	Called with FSR containing the base address, and
   997                           ;	W with the last address+1
   998                           
   999  04F6  0064               	clrwdt	;clear the watchdog before getting into this loop
  1000  04F7                     clrloop0:
  1001  04F7  0180               	clrf	0	;clear RAM location pointed to by FSR
  1002  04F8  0A84               	incf	4,f	;increment pointer
  1003  04F9  0604               	xorwf	4,w	;XOR with final address
  1004  04FA  1903               	btfsc	3,2	;have we reached the end yet?
  1005  04FB  3400               	retlw	0	;all done for this memory range, return
  1006  04FC  0604               	xorwf	4,w	;XOR again to restore value
  1007  04FD  2CF7               	goto	clrloop0	;do the next byte
  1008                           
  1009                           	psect	cstackCOMMON
  1010  0070                     __pcstackCOMMON:
  1011  0070                     ?_setup:
  1012  0070                     ?_config_reloj:	
  1013                           ; 1 bytes @ 0x0
  1014                           
  1015  0070                     ?_config_io:	
  1016                           ; 1 bytes @ 0x0
  1017                           
  1018  0070                     ?_config_int_enable:	
  1019                           ; 1 bytes @ 0x0
  1020                           
  1021  0070                     ?_config_iocb:	
  1022                           ; 1 bytes @ 0x0
  1023                           
  1024  0070                     ?_IOCB_interrupt:	
  1025                           ; 1 bytes @ 0x0
  1026                           
  1027  0070                     ?_main:	
  1028                           ; 1 bytes @ 0x0
  1029                           
  1030  0070                     ?_isr:	
  1031                           ; 1 bytes @ 0x0
  1032                           
  1033  0070                     ?_readFromEEPROM:	
  1034                           ; 1 bytes @ 0x0
  1035                           
  1036  0070                     readFromEEPROM@address:	
  1037                           ; 2 bytes @ 0x0
  1038                           
  1039                           
  1040                           ; 2 bytes @ 0x0
  1041  0070                     	ds	2
  1042  0072                     ??_readFromEEPROM:
  1043                           
  1044                           ; 1 bytes @ 0x2
  1045  0072                     	ds	2
  1046  0074                     readFromEEPROM@data:
  1047                           
  1048                           ; 2 bytes @ 0x4
  1049  0074                     	ds	2
  1050  0076                     ??_IOCB_interrupt:
  1051                           
  1052                           ; 1 bytes @ 0x6
  1053  0076                     	ds	3
  1054  0079                     ??_isr:
  1055                           
  1056                           ; 1 bytes @ 0x9
  1057  0079                     	ds	4
  1058                           
  1059                           	psect	cstackBANK0
  1060  0035                     __pcstackBANK0:
  1061  0035                     ?_writeToEEPROM:
  1062  0035                     ??_config_reloj:	
  1063                           ; 1 bytes @ 0x0
  1064                           
  1065  0035                     ??_config_io:	
  1066                           ; 1 bytes @ 0x0
  1067                           
  1068  0035                     ??_config_int_enable:	
  1069                           ; 1 bytes @ 0x0
  1070                           
  1071  0035                     ??_config_iocb:	
  1072                           ; 1 bytes @ 0x0
  1073                           
  1074  0035                     ?_dec_to_ascii:	
  1075                           ; 1 bytes @ 0x0
  1076                           
  1077  0035                     ?_strlen:	
  1078                           ; 2 bytes @ 0x0
  1079                           
  1080  0035                     ?___wmul:	
  1081                           ; 2 bytes @ 0x0
  1082                           
  1083  0035                     ?___awdiv:	
  1084                           ; 2 bytes @ 0x0
  1085                           
  1086  0035                     dec_to_ascii@val:	
  1087                           ; 2 bytes @ 0x0
  1088                           
  1089  0035                     writeToEEPROM@data:	
  1090                           ; 2 bytes @ 0x0
  1091                           
  1092  0035                     ___wmul@multiplier:	
  1093                           ; 2 bytes @ 0x0
  1094                           
  1095  0035                     ___awdiv@divisor:	
  1096                           ; 2 bytes @ 0x0
  1097                           
  1098  0035                     strlen@s:	
  1099                           ; 2 bytes @ 0x0
  1100                           
  1101                           
  1102                           ; 2 bytes @ 0x0
  1103  0035                     	ds	1
  1104  0036                     ??_setup:
  1105                           
  1106                           ; 1 bytes @ 0x1
  1107  0036                     	ds	1
  1108  0037                     ??_dec_to_ascii:
  1109  0037                     ??_strlen:	
  1110                           ; 1 bytes @ 0x2
  1111                           
  1112  0037                     writeToEEPROM@address:	
  1113                           ; 1 bytes @ 0x2
  1114                           
  1115  0037                     ___wmul@multiplicand:	
  1116                           ; 2 bytes @ 0x2
  1117                           
  1118  0037                     ___awdiv@dividend:	
  1119                           ; 2 bytes @ 0x2
  1120                           
  1121  0037                     strlen@cp:	
  1122                           ; 2 bytes @ 0x2
  1123                           
  1124                           
  1125                           ; 2 bytes @ 0x2
  1126  0037                     	ds	2
  1127  0039                     ?_showString:
  1128  0039                     ??_writeToEEPROM:	
  1129                           ; 1 bytes @ 0x4
  1130                           
  1131  0039                     ??___wmul:	
  1132                           ; 1 bytes @ 0x4
  1133                           
  1134  0039                     ??___awdiv:	
  1135                           ; 1 bytes @ 0x4
  1136                           
  1137  0039                     showString@var:	
  1138                           ; 1 bytes @ 0x4
  1139                           
  1140  0039                     ___wmul@product:	
  1141                           ; 2 bytes @ 0x4
  1142                           
  1143                           
  1144                           ; 2 bytes @ 0x4
  1145  0039                     	ds	1
  1146  003A                     ___awdiv@counter:
  1147                           
  1148                           ; 1 bytes @ 0x5
  1149  003A                     	ds	1
  1150  003B                     ??_showString:
  1151  003B                     ___awdiv@sign:	
  1152                           ; 1 bytes @ 0x6
  1153                           
  1154                           
  1155                           ; 1 bytes @ 0x6
  1156  003B                     	ds	1
  1157  003C                     ___awdiv@quotient:
  1158                           
  1159                           ; 2 bytes @ 0x7
  1160  003C                     	ds	2
  1161  003E                     showString@i:
  1162                           
  1163                           ; 2 bytes @ 0x9
  1164  003E                     	ds	2
  1165  0040                     ??_main:
  1166                           
  1167                           ; 1 bytes @ 0xB
  1168  0040                     	ds	3
  1169  0043                     main@i:
  1170                           
  1171                           ; 2 bytes @ 0xE
  1172  0043                     	ds	2
  1173                           
  1174                           	psect	maintext
  1175  003A                     __pmaintext:	
  1176 ;;
  1177 ;;Main: autosize = 0, tempsize = 3, incstack = 0, save=0
  1178 ;;
  1179 ;; *************** function _main *****************
  1180 ;; Defined at:
  1181 ;;		line 110 in file "proyecto_final.c"
  1182 ;; Parameters:    Size  Location     Type
  1183 ;;		None
  1184 ;; Auto vars:     Size  Location     Type
  1185 ;;  i               2   14[BANK0 ] int 
  1186 ;; Return value:  Size  Location     Type
  1187 ;;                  1    wreg      void 
  1188 ;; Registers used:
  1189 ;;		wreg, fsr0l, fsr0h, status,2, status,0, btemp+1, pclath, cstack
  1190 ;; Tracked objects:
  1191 ;;		On entry : B00/0
  1192 ;;		On exit  : 0/0
  1193 ;;		Unchanged: 0/0
  1194 ;; Data sizes:     COMMON   BANK0   BANK1   BANK3   BANK2
  1195 ;;      Params:         0       0       0       0       0
  1196 ;;      Locals:         0       2       0       0       0
  1197 ;;      Temps:          0       3       0       0       0
  1198 ;;      Totals:         0       5       0       0       0
  1199 ;;Total ram usage:        5 bytes
  1200 ;; Hardware stack levels required when called:    5
  1201 ;; This function calls:
  1202 ;;		___awdiv
  1203 ;;		___wmul
  1204 ;;		_dec_to_ascii
  1205 ;;		_setup
  1206 ;;		_showString
  1207 ;;		_writeToEEPROM
  1208 ;; This function is called by:
  1209 ;;		Startup code after reset
  1210 ;; This function uses a non-reentrant model
  1211 ;;
  1212                           
  1213                           
  1214                           ;psect for function _main
  1215  003A                     _main:
  1216  003A                     l1918:	
  1217                           ;incstack = 0
  1218                           ; Regs used in _main: [wreg-fsr0h+status,2+status,0+btemp+1+pclath+cstack]
  1219                           
  1220                           
  1221                           ;proyecto_final.c: 112:     setup();
  1222  003A  120A  158A  24D5  120A  118A  	fcall	_setup
  1223  003F                     l1920:
  1224                           
  1225                           ;proyecto_final.c: 115:     ADCON0bits.GO = 1;
  1226  003F  1283               	bcf	3,5	;RP0=0, select bank0
  1227  0040  1303               	bcf	3,6	;RP1=0, select bank0
  1228  0041  149F               	bsf	31,1	;volatile
  1229  0042                     l1922:
  1230                           
  1231                           ;proyecto_final.c: 117:     {;proyecto_final.c: 120:         if(ADCON0bits.GO == 0){
  1232  0042  189F               	btfsc	31,1	;volatile
  1233  0043  2845               	goto	u1631
  1234  0044  2846               	goto	u1630
  1235  0045                     u1631:
  1236  0045  2879               	goto	l1940
  1237  0046                     u1630:
  1238  0046                     l1924:
  1239                           
  1240                           ;proyecto_final.c: 121:             if (ADCON0bits.CHS == 5){
  1241  0046  0C1F               	rrf	31,w	;volatile
  1242  0047  00C0               	movwf	??_main
  1243  0048  0C40               	rrf	??_main,w
  1244  0049  390F               	andlw	15
  1245  004A  3A05               	xorlw	5
  1246  004B  1D03               	skipz
  1247  004C  284E               	goto	u1641
  1248  004D  284F               	goto	u1640
  1249  004E                     u1641:
  1250  004E  2854               	goto	l1928
  1251  004F                     u1640:
  1252  004F                     l1926:
  1253                           
  1254                           ;proyecto_final.c: 122:                 ADCON0bits.CHS = 6;}
  1255  004F  081F               	movf	31,w	;volatile
  1256  0050  39C3               	andlw	-61
  1257  0051  3818               	iorlw	24
  1258  0052  009F               	movwf	31	;volatile
  1259  0053  286F               	goto	l1936
  1260  0054                     l1928:
  1261  0054  0C1F               	rrf	31,w	;volatile
  1262  0055  00C0               	movwf	??_main
  1263  0056  0C40               	rrf	??_main,w
  1264  0057  390F               	andlw	15
  1265  0058  3A06               	xorlw	6
  1266  0059  1D03               	skipz
  1267  005A  285C               	goto	u1651
  1268  005B  285D               	goto	u1650
  1269  005C                     u1651:
  1270  005C  2862               	goto	l1932
  1271  005D                     u1650:
  1272  005D                     l1930:
  1273                           
  1274                           ;proyecto_final.c: 124:                 ADCON0bits.CHS = 5;}
  1275  005D  081F               	movf	31,w	;volatile
  1276  005E  39C3               	andlw	-61
  1277  005F  3814               	iorlw	20
  1278  0060  009F               	movwf	31	;volatile
  1279  0061  286F               	goto	l1936
  1280  0062                     l1932:
  1281  0062  0C1F               	rrf	31,w	;volatile
  1282  0063  00C0               	movwf	??_main
  1283  0064  0C40               	rrf	??_main,w
  1284  0065  390F               	andlw	15
  1285  0066  3A07               	xorlw	7
  1286  0067  1D03               	skipz
  1287  0068  286A               	goto	u1661
  1288  0069  286B               	goto	u1660
  1289  006A                     u1661:
  1290  006A  286F               	goto	l1936
  1291  006B                     u1660:
  1292  006B                     l1934:
  1293                           
  1294                           ;proyecto_final.c: 126:                 ADCON0bits.CHS = 5;}
  1295  006B  081F               	movf	31,w	;volatile
  1296  006C  39C3               	andlw	-61
  1297  006D  3814               	iorlw	20
  1298  006E  009F               	movwf	31	;volatile
  1299  006F                     l1936:
  1300                           
  1301                           ;proyecto_final.c: 127:             _delay((unsigned long)((50)*(8000000/4000000.0)));
  1302  006F  3020               	movlw	32
  1303  0070  1283               	bcf	3,5	;RP0=0, select bank0
  1304  0071  1303               	bcf	3,6	;RP1=0, select bank0
  1305  0072  00C0               	movwf	??_main
  1306  0073                     u2357:
  1307  0073  0BC0               	decfsz	??_main,f
  1308  0074  2873               	goto	u2357
  1309  0075  0000               	nop
  1310  0076                     l1938:
  1311                           
  1312                           ;proyecto_final.c: 128:             ADCON0bits.GO = 1;
  1313  0076  1283               	bcf	3,5	;RP0=0, select bank0
  1314  0077  1303               	bcf	3,6	;RP1=0, select bank0
  1315  0078  149F               	bsf	31,1	;volatile
  1316  0079                     l1940:
  1317                           
  1318                           ;proyecto_final.c: 134:         if (PIR1bits.TXIF){
  1319  0079  1E0C               	btfss	12,4	;volatile
  1320  007A  287C               	goto	u1671
  1321  007B  287D               	goto	u1670
  1322  007C                     u1671:
  1323  007C  2C67               	goto	l2184
  1324  007D                     u1670:
  1325  007D                     l1942:
  1326                           
  1327                           ;proyecto_final.c: 136:             if(flag){
  1328  007D  0847               	movf	_flag,w
  1329  007E  0448               	iorwf	_flag+1,w
  1330  007F  1903               	btfsc	3,2
  1331  0080  2882               	goto	u1681
  1332  0081  2883               	goto	u1680
  1333  0082                     u1681:
  1334  0082  2890               	goto	l1948
  1335  0083                     u1680:
  1336  0083                     l1944:
  1337                           
  1338                           ;proyecto_final.c: 137:                 showString("Ingrese 1 si desea ingresar a modo c
      +                          ontrol USART");
  1339  0083  30B0               	movlw	low (STR_1| (0+32768))
  1340  0084  00B9               	movwf	showString@var
  1341  0085  3085               	movlw	high (STR_1| (0+32768))
  1342  0086  00BA               	movwf	showString@var+1
  1343  0087  120A  158A  2535  120A  118A  	fcall	_showString
  1344  008C                     l1946:
  1345                           
  1346                           ;proyecto_final.c: 138:                 flag = 0;
  1347  008C  1283               	bcf	3,5	;RP0=0, select bank0
  1348  008D  1303               	bcf	3,6	;RP1=0, select bank0
  1349  008E  01C7               	clrf	_flag
  1350  008F  01C8               	clrf	_flag+1
  1351  0090                     l1948:
  1352                           
  1353                           ;proyecto_final.c: 141:                 if(opcion == 49){
  1354  0090  3031               	movlw	49
  1355  0091  0634               	xorwf	_opcion,w
  1356  0092  1D03               	btfss	3,2
  1357  0093  2895               	goto	u1691
  1358  0094  2896               	goto	u1690
  1359  0095                     u1691:
  1360  0095  2C67               	goto	l2184
  1361  0096                     u1690:
  1362  0096                     l1950:
  1363                           
  1364                           ;proyecto_final.c: 142:                     flag = 1;
  1365  0096  3001               	movlw	1
  1366  0097  00C7               	movwf	_flag
  1367  0098  3000               	movlw	0
  1368  0099  00C8               	movwf	_flag+1
  1369  009A                     l1952:
  1370                           
  1371                           ;proyecto_final.c: 143:                     opcion = 0;
  1372  009A  01B4               	clrf	_opcion
  1373                           
  1374                           ;proyecto_final.c: 146:                     while(opcion != 53){
  1375  009B  2C4E               	goto	l2176
  1376  009C                     l1954:
  1377                           
  1378                           ;proyecto_final.c: 149:                         if(flag){
  1379  009C  0847               	movf	_flag,w
  1380  009D  0448               	iorwf	_flag+1,w
  1381  009E  1903               	btfsc	3,2
  1382  009F  28A1               	goto	u1701
  1383  00A0  28A2               	goto	u1700
  1384  00A1                     u1701:
  1385  00A1  28F1               	goto	l1960
  1386  00A2                     u1700:
  1387  00A2                     l1956:
  1388                           
  1389                           ;proyecto_final.c: 150:                             showString("Bienvenido a nuestro pro
      +                          grama");
  1390  00A2  30C3               	movlw	low (STR_2| (0+32768))
  1391  00A3  00B9               	movwf	showString@var
  1392  00A4  3086               	movlw	high (STR_2| (0+32768))
  1393  00A5  00BA               	movwf	showString@var+1
  1394  00A6  120A  158A  2535  120A  118A  	fcall	_showString
  1395                           
  1396                           ;proyecto_final.c: 151:                             showString("Que accion desea ejecuta
      +                          r?");
  1397  00AB  30E1               	movlw	low (STR_3| (0+32768))
  1398  00AC  1283               	bcf	3,5	;RP0=0, select bank0
  1399  00AD  1303               	bcf	3,6	;RP1=0, select bank0
  1400  00AE  00B9               	movwf	showString@var
  1401  00AF  3086               	movlw	high (STR_3| (0+32768))
  1402  00B0  00BA               	movwf	showString@var+1
  1403  00B1  120A  158A  2535  120A  118A  	fcall	_showString
  1404                           
  1405                           ;proyecto_final.c: 152:                             showString("(1)Controlar Brazo");
  1406  00B6  3028               	movlw	low (STR_4| (0+32768))
  1407  00B7  1283               	bcf	3,5	;RP0=0, select bank0
  1408  00B8  1303               	bcf	3,6	;RP1=0, select bank0
  1409  00B9  00B9               	movwf	showString@var
  1410  00BA  3087               	movlw	high (STR_4| (0+32768))
  1411  00BB  00BA               	movwf	showString@var+1
  1412  00BC  120A  158A  2535  120A  118A  	fcall	_showString
  1413                           
  1414                           ;proyecto_final.c: 153:                             showString("(2)Controlar Carro");
  1415  00C1  3015               	movlw	low (STR_5| (0+32768))
  1416  00C2  1283               	bcf	3,5	;RP0=0, select bank0
  1417  00C3  1303               	bcf	3,6	;RP1=0, select bank0
  1418  00C4  00B9               	movwf	showString@var
  1419  00C5  3087               	movlw	high (STR_5| (0+32768))
  1420  00C6  00BA               	movwf	showString@var+1
  1421  00C7  120A  158A  2535  120A  118A  	fcall	_showString
  1422                           
  1423                           ;proyecto_final.c: 154:                             showString("(3)Controlar LEDs");
  1424  00CC  303B               	movlw	low (STR_6| (0+32768))
  1425  00CD  1283               	bcf	3,5	;RP0=0, select bank0
  1426  00CE  1303               	bcf	3,6	;RP1=0, select bank0
  1427  00CF  00B9               	movwf	showString@var
  1428  00D0  3087               	movlw	high (STR_6| (0+32768))
  1429  00D1  00BA               	movwf	showString@var+1
  1430  00D2  120A  158A  2535  120A  118A  	fcall	_showString
  1431                           
  1432                           ;proyecto_final.c: 155:                             showString("(4)Mostrar potenciometro
      +                          ");
  1433  00D7  30FC               	movlw	low (STR_7| (0+32768))
  1434  00D8  1283               	bcf	3,5	;RP0=0, select bank0
  1435  00D9  1303               	bcf	3,6	;RP1=0, select bank0
  1436  00DA  00B9               	movwf	showString@var
  1437  00DB  3086               	movlw	high (STR_7| (0+32768))
  1438  00DC  00BA               	movwf	showString@var+1
  1439  00DD  120A  158A  2535  120A  118A  	fcall	_showString
  1440                           
  1441                           ;proyecto_final.c: 156:                             showString("(5)Salir de control por 
      +                          USART");
  1442  00E2  30A5               	movlw	low (STR_8| (0+32768))
  1443  00E3  1283               	bcf	3,5	;RP0=0, select bank0
  1444  00E4  1303               	bcf	3,6	;RP1=0, select bank0
  1445  00E5  00B9               	movwf	showString@var
  1446  00E6  3086               	movlw	high (STR_8| (0+32768))
  1447  00E7  00BA               	movwf	showString@var+1
  1448  00E8  120A  158A  2535  120A  118A  	fcall	_showString
  1449  00ED                     l1958:
  1450                           
  1451                           ;proyecto_final.c: 157:                             flag = 0;
  1452  00ED  1283               	bcf	3,5	;RP0=0, select bank0
  1453  00EE  1303               	bcf	3,6	;RP1=0, select bank0
  1454  00EF  01C7               	clrf	_flag
  1455  00F0  01C8               	clrf	_flag+1
  1456  00F1                     l1960:
  1457                           
  1458                           ;proyecto_final.c: 161:                         if(opcion==49){
  1459  00F1  3031               	movlw	49
  1460  00F2  0634               	xorwf	_opcion,w
  1461  00F3  1D03               	btfss	3,2
  1462  00F4  28F6               	goto	u1711
  1463  00F5  28F7               	goto	u1710
  1464  00F6                     u1711:
  1465  00F6  2A3E               	goto	l2040
  1466  00F7                     u1710:
  1467  00F7                     l1962:
  1468                           
  1469                           ;proyecto_final.c: 162:                             showString("Elija la posicion del se
      +                          rvo 1 (abajo)");
  1470  00F7  305F               	movlw	low (STR_9| (0+32768))
  1471  00F8  00B9               	movwf	showString@var
  1472  00F9  3086               	movlw	high (STR_9| (0+32768))
  1473  00FA  00BA               	movwf	showString@var+1
  1474  00FB  120A  158A  2535  120A  118A  	fcall	_showString
  1475                           
  1476                           ;proyecto_final.c: 163:                             showString("Ingrese: 1-.0grados 2-.9
      +                          0grados 3-.180grados");
  1477  0100  30E1               	movlw	low (STR_10| (0+32768))
  1478  0101  1283               	bcf	3,5	;RP0=0, select bank0
  1479  0102  1303               	bcf	3,6	;RP1=0, select bank0
  1480  0103  00B9               	movwf	showString@var
  1481  0104  3085               	movlw	high (STR_10| (0+32768))
  1482  0105  00BA               	movwf	showString@var+1
  1483  0106  120A  158A  2535  120A  118A  	fcall	_showString
  1484  010B                     l1964:
  1485                           
  1486                           ;proyecto_final.c: 165:                             flag = 1;
  1487  010B  3001               	movlw	1
  1488  010C  1283               	bcf	3,5	;RP0=0, select bank0
  1489  010D  1303               	bcf	3,6	;RP1=0, select bank0
  1490  010E  00C7               	movwf	_flag
  1491  010F  3000               	movlw	0
  1492  0110  00C8               	movwf	_flag+1
  1493  0111                     l1966:
  1494                           
  1495                           ;proyecto_final.c: 166:                             opcion = 0;
  1496  0111  01B4               	clrf	_opcion
  1497  0112                     l1968:	
  1498                           ;proyecto_final.c: 168:                             while(!opcion){
  1499                           
  1500                           
  1501                           ;proyecto_final.c: 168:                             while(!opcion){
  1502  0112  0834               	movf	_opcion,w
  1503  0113  1903               	btfsc	3,2
  1504  0114  2916               	goto	u1721
  1505  0115  2917               	goto	u1720
  1506  0116                     u1721:
  1507  0116  2912               	goto	l1968
  1508  0117                     u1720:
  1509  0117                     l1970:
  1510                           
  1511                           ;proyecto_final.c: 173:                             if(opcion==49){
  1512  0117  3031               	movlw	49
  1513  0118  0634               	xorwf	_opcion,w
  1514  0119  1D03               	btfss	3,2
  1515  011A  291C               	goto	u1731
  1516  011B  291D               	goto	u1730
  1517  011C                     u1731:
  1518  011C  2942               	goto	l1980
  1519  011D                     u1730:
  1520  011D                     l1972:
  1521                           
  1522                           ;proyecto_final.c: 174:                                 PORTD = (0);
  1523  011D  0188               	clrf	8	;volatile
  1524  011E                     l1974:
  1525                           
  1526                           ;proyecto_final.c: 176:                                 CCPR1L = (PORTD>>1) + 128;
  1527  011E  0808               	movf	8,w	;volatile
  1528  011F  00C0               	movwf	??_main
  1529  0120  1003               	clrc
  1530  0121  0C40               	rrf	??_main,w
  1531  0122  3E80               	addlw	128
  1532  0123  0095               	movwf	21	;volatile
  1533  0124                     l1976:
  1534                           
  1535                           ;proyecto_final.c: 177:                                 CCP1CONbits.DC1B1 = PORTDbits.RD
      +                          0;
  1536  0124  1808               	btfsc	8,0	;volatile
  1537  0125  2927               	goto	u1741
  1538  0126  292B               	goto	u1740
  1539  0127                     u1741:
  1540  0127  1283               	bcf	3,5	;RP0=0, select bank0
  1541  0128  1303               	bcf	3,6	;RP1=0, select bank0
  1542  0129  1697               	bsf	23,5	;volatile
  1543  012A  292E               	goto	u1754
  1544  012B                     u1740:
  1545  012B  1283               	bcf	3,5	;RP0=0, select bank0
  1546  012C  1303               	bcf	3,6	;RP1=0, select bank0
  1547  012D  1297               	bcf	23,5	;volatile
  1548  012E                     u1754:
  1549  012E                     l1978:
  1550                           
  1551                           ;proyecto_final.c: 178:                                 CCP1CONbits.DC1B0 = ADRESL>>7;
  1552  012E  1683               	bsf	3,5	;RP0=1, select bank1
  1553  012F  1303               	bcf	3,6	;RP1=0, select bank1
  1554  0130  081E               	movf	30,w	;volatile
  1555  0131  1283               	bcf	3,5	;RP0=0, select bank0
  1556  0132  1303               	bcf	3,6	;RP1=0, select bank0
  1557  0133  00C0               	movwf	??_main
  1558  0134  3007               	movlw	7
  1559  0135                     u1765:
  1560  0135  1003               	clrc
  1561  0136  0CC0               	rrf	??_main,f
  1562  0137  3EFF               	addlw	-1
  1563  0138  1D03               	skipz
  1564  0139  2935               	goto	u1765
  1565  013A  0840               	movf	??_main,w
  1566  013B  00C1               	movwf	??_main+1
  1567  013C  0EC1               	swapf	??_main+1,f
  1568  013D  0817               	movf	23,w	;volatile
  1569  013E  0641               	xorwf	??_main+1,w
  1570  013F  39EF               	andlw	-17
  1571  0140  0641               	xorwf	??_main+1,w
  1572  0141  0097               	movwf	23	;volatile
  1573  0142                     l1980:
  1574                           
  1575                           ;proyecto_final.c: 180:                             if(opcion==50){
  1576  0142  3032               	movlw	50
  1577  0143  0634               	xorwf	_opcion,w
  1578  0144  1D03               	btfss	3,2
  1579  0145  2947               	goto	u1771
  1580  0146  2948               	goto	u1770
  1581  0147                     u1771:
  1582  0147  296E               	goto	l1990
  1583  0148                     u1770:
  1584  0148                     l1982:
  1585                           
  1586                           ;proyecto_final.c: 181:                                 PORTD = (128);
  1587  0148  3080               	movlw	128
  1588  0149  0088               	movwf	8	;volatile
  1589  014A                     l1984:
  1590                           
  1591                           ;proyecto_final.c: 183:                                 CCPR1L = (PORTD>>1) + 128;
  1592  014A  0808               	movf	8,w	;volatile
  1593  014B  00C0               	movwf	??_main
  1594  014C  1003               	clrc
  1595  014D  0C40               	rrf	??_main,w
  1596  014E  3E80               	addlw	128
  1597  014F  0095               	movwf	21	;volatile
  1598  0150                     l1986:
  1599                           
  1600                           ;proyecto_final.c: 184:                                 CCP1CONbits.DC1B1 = PORTDbits.RD
      +                          0;
  1601  0150  1808               	btfsc	8,0	;volatile
  1602  0151  2953               	goto	u1781
  1603  0152  2957               	goto	u1780
  1604  0153                     u1781:
  1605  0153  1283               	bcf	3,5	;RP0=0, select bank0
  1606  0154  1303               	bcf	3,6	;RP1=0, select bank0
  1607  0155  1697               	bsf	23,5	;volatile
  1608  0156  295A               	goto	u1794
  1609  0157                     u1780:
  1610  0157  1283               	bcf	3,5	;RP0=0, select bank0
  1611  0158  1303               	bcf	3,6	;RP1=0, select bank0
  1612  0159  1297               	bcf	23,5	;volatile
  1613  015A                     u1794:
  1614  015A                     l1988:
  1615                           
  1616                           ;proyecto_final.c: 185:                                 CCP1CONbits.DC1B0 = ADRESL>>7;
  1617  015A  1683               	bsf	3,5	;RP0=1, select bank1
  1618  015B  1303               	bcf	3,6	;RP1=0, select bank1
  1619  015C  081E               	movf	30,w	;volatile
  1620  015D  1283               	bcf	3,5	;RP0=0, select bank0
  1621  015E  1303               	bcf	3,6	;RP1=0, select bank0
  1622  015F  00C0               	movwf	??_main
  1623  0160  3007               	movlw	7
  1624  0161                     u1805:
  1625  0161  1003               	clrc
  1626  0162  0CC0               	rrf	??_main,f
  1627  0163  3EFF               	addlw	-1
  1628  0164  1D03               	skipz
  1629  0165  2961               	goto	u1805
  1630  0166  0840               	movf	??_main,w
  1631  0167  00C1               	movwf	??_main+1
  1632  0168  0EC1               	swapf	??_main+1,f
  1633  0169  0817               	movf	23,w	;volatile
  1634  016A  0641               	xorwf	??_main+1,w
  1635  016B  39EF               	andlw	-17
  1636  016C  0641               	xorwf	??_main+1,w
  1637  016D  0097               	movwf	23	;volatile
  1638  016E                     l1990:
  1639                           
  1640                           ;proyecto_final.c: 187:                             if(opcion==51){
  1641  016E  3033               	movlw	51
  1642  016F  0634               	xorwf	_opcion,w
  1643  0170  1D03               	btfss	3,2
  1644  0171  2973               	goto	u1811
  1645  0172  2974               	goto	u1810
  1646  0173                     u1811:
  1647  0173  299A               	goto	l2000
  1648  0174                     u1810:
  1649  0174                     l1992:
  1650                           
  1651                           ;proyecto_final.c: 188:                                 PORTD = (255);
  1652  0174  30FF               	movlw	255
  1653  0175  0088               	movwf	8	;volatile
  1654  0176                     l1994:
  1655                           
  1656                           ;proyecto_final.c: 190:                                 CCPR1L = (PORTD>>1) + 120;
  1657  0176  0808               	movf	8,w	;volatile
  1658  0177  00C0               	movwf	??_main
  1659  0178  1003               	clrc
  1660  0179  0C40               	rrf	??_main,w
  1661  017A  3E78               	addlw	120
  1662  017B  0095               	movwf	21	;volatile
  1663  017C                     l1996:
  1664                           
  1665                           ;proyecto_final.c: 191:                                 CCP1CONbits.DC1B1 = PORTDbits.RD
      +                          0;
  1666  017C  1808               	btfsc	8,0	;volatile
  1667  017D  297F               	goto	u1821
  1668  017E  2983               	goto	u1820
  1669  017F                     u1821:
  1670  017F  1283               	bcf	3,5	;RP0=0, select bank0
  1671  0180  1303               	bcf	3,6	;RP1=0, select bank0
  1672  0181  1697               	bsf	23,5	;volatile
  1673  0182  2986               	goto	u1834
  1674  0183                     u1820:
  1675  0183  1283               	bcf	3,5	;RP0=0, select bank0
  1676  0184  1303               	bcf	3,6	;RP1=0, select bank0
  1677  0185  1297               	bcf	23,5	;volatile
  1678  0186                     u1834:
  1679  0186                     l1998:
  1680                           
  1681                           ;proyecto_final.c: 192:                                 CCP1CONbits.DC1B0 = ADRESL>>7;
  1682  0186  1683               	bsf	3,5	;RP0=1, select bank1
  1683  0187  1303               	bcf	3,6	;RP1=0, select bank1
  1684  0188  081E               	movf	30,w	;volatile
  1685  0189  1283               	bcf	3,5	;RP0=0, select bank0
  1686  018A  1303               	bcf	3,6	;RP1=0, select bank0
  1687  018B  00C0               	movwf	??_main
  1688  018C  3007               	movlw	7
  1689  018D                     u1845:
  1690  018D  1003               	clrc
  1691  018E  0CC0               	rrf	??_main,f
  1692  018F  3EFF               	addlw	-1
  1693  0190  1D03               	skipz
  1694  0191  298D               	goto	u1845
  1695  0192  0840               	movf	??_main,w
  1696  0193  00C1               	movwf	??_main+1
  1697  0194  0EC1               	swapf	??_main+1,f
  1698  0195  0817               	movf	23,w	;volatile
  1699  0196  0641               	xorwf	??_main+1,w
  1700  0197  39EF               	andlw	-17
  1701  0198  0641               	xorwf	??_main+1,w
  1702  0199  0097               	movwf	23	;volatile
  1703  019A                     l2000:
  1704                           
  1705                           ;proyecto_final.c: 195:                             showString("Elija la posicion del se
      +                          rvo 2 (arriba)");
  1706  019A  3038               	movlw	low (STR_11| (0+32768))
  1707  019B  00B9               	movwf	showString@var
  1708  019C  3086               	movlw	high (STR_11| (0+32768))
  1709  019D  00BA               	movwf	showString@var+1
  1710  019E  120A  158A  2535  120A  118A  	fcall	_showString
  1711  01A3                     l2002:
  1712                           
  1713                           ;proyecto_final.c: 196:                             showString("Ingrese: 1-.0grados 2-.9
      +                          0grados 3-.180grados");
  1714  01A3  30E1               	movlw	low (STR_10| (0+32768))
  1715  01A4  1283               	bcf	3,5	;RP0=0, select bank0
  1716  01A5  1303               	bcf	3,6	;RP1=0, select bank0
  1717  01A6  00B9               	movwf	showString@var
  1718  01A7  3085               	movlw	high (STR_10| (0+32768))
  1719  01A8  00BA               	movwf	showString@var+1
  1720  01A9  120A  158A  2535  120A  118A  	fcall	_showString
  1721                           
  1722                           ;proyecto_final.c: 198:                             flag = 1;
  1723  01AE  3001               	movlw	1
  1724  01AF  1283               	bcf	3,5	;RP0=0, select bank0
  1725  01B0  1303               	bcf	3,6	;RP1=0, select bank0
  1726  01B1  00C7               	movwf	_flag
  1727  01B2  3000               	movlw	0
  1728  01B3  00C8               	movwf	_flag+1
  1729  01B4                     l2004:
  1730                           
  1731                           ;proyecto_final.c: 199:                             opcion = 0;
  1732  01B4  01B4               	clrf	_opcion
  1733  01B5                     l2006:	
  1734                           ;proyecto_final.c: 201:                             while(!opcion){
  1735                           
  1736                           
  1737                           ;proyecto_final.c: 201:                             while(!opcion){
  1738  01B5  0834               	movf	_opcion,w
  1739  01B6  1903               	btfsc	3,2
  1740  01B7  29B9               	goto	u1851
  1741  01B8  29BA               	goto	u1850
  1742  01B9                     u1851:
  1743  01B9  29B5               	goto	l2006
  1744  01BA                     u1850:
  1745  01BA                     l2008:
  1746                           
  1747                           ;proyecto_final.c: 206:                             if(opcion==49){
  1748  01BA  3031               	movlw	49
  1749  01BB  0634               	xorwf	_opcion,w
  1750  01BC  1D03               	btfss	3,2
  1751  01BD  29BF               	goto	u1861
  1752  01BE  29C0               	goto	u1860
  1753  01BF                     u1861:
  1754  01BF  29E5               	goto	l2018
  1755  01C0                     u1860:
  1756  01C0                     l2010:
  1757                           
  1758                           ;proyecto_final.c: 207:                                 PORTD = (0);
  1759  01C0  0188               	clrf	8	;volatile
  1760  01C1                     l2012:
  1761                           
  1762                           ;proyecto_final.c: 209:                                 CCPR2L = (PORTD>>1) + 128;
  1763  01C1  0808               	movf	8,w	;volatile
  1764  01C2  00C0               	movwf	??_main
  1765  01C3  1003               	clrc
  1766  01C4  0C40               	rrf	??_main,w
  1767  01C5  3E80               	addlw	128
  1768  01C6  009B               	movwf	27	;volatile
  1769  01C7                     l2014:
  1770                           
  1771                           ;proyecto_final.c: 210:                                 CCP2CONbits.DC2B1 = PORTDbits.RD
      +                          0;
  1772  01C7  1808               	btfsc	8,0	;volatile
  1773  01C8  29CA               	goto	u1871
  1774  01C9  29CE               	goto	u1870
  1775  01CA                     u1871:
  1776  01CA  1283               	bcf	3,5	;RP0=0, select bank0
  1777  01CB  1303               	bcf	3,6	;RP1=0, select bank0
  1778  01CC  169D               	bsf	29,5	;volatile
  1779  01CD  29D1               	goto	u1884
  1780  01CE                     u1870:
  1781  01CE  1283               	bcf	3,5	;RP0=0, select bank0
  1782  01CF  1303               	bcf	3,6	;RP1=0, select bank0
  1783  01D0  129D               	bcf	29,5	;volatile
  1784  01D1                     u1884:
  1785  01D1                     l2016:
  1786                           
  1787                           ;proyecto_final.c: 211:                                 CCP2CONbits.DC2B0 = ADRESL>>7;
  1788  01D1  1683               	bsf	3,5	;RP0=1, select bank1
  1789  01D2  1303               	bcf	3,6	;RP1=0, select bank1
  1790  01D3  081E               	movf	30,w	;volatile
  1791  01D4  1283               	bcf	3,5	;RP0=0, select bank0
  1792  01D5  1303               	bcf	3,6	;RP1=0, select bank0
  1793  01D6  00C0               	movwf	??_main
  1794  01D7  3007               	movlw	7
  1795  01D8                     u1895:
  1796  01D8  1003               	clrc
  1797  01D9  0CC0               	rrf	??_main,f
  1798  01DA  3EFF               	addlw	-1
  1799  01DB  1D03               	skipz
  1800  01DC  29D8               	goto	u1895
  1801  01DD  0840               	movf	??_main,w
  1802  01DE  00C1               	movwf	??_main+1
  1803  01DF  0EC1               	swapf	??_main+1,f
  1804  01E0  081D               	movf	29,w	;volatile
  1805  01E1  0641               	xorwf	??_main+1,w
  1806  01E2  39EF               	andlw	-17
  1807  01E3  0641               	xorwf	??_main+1,w
  1808  01E4  009D               	movwf	29	;volatile
  1809  01E5                     l2018:
  1810                           
  1811                           ;proyecto_final.c: 213:                             if(opcion==50){
  1812  01E5  3032               	movlw	50
  1813  01E6  0634               	xorwf	_opcion,w
  1814  01E7  1D03               	btfss	3,2
  1815  01E8  29EA               	goto	u1901
  1816  01E9  29EB               	goto	u1900
  1817  01EA                     u1901:
  1818  01EA  2A11               	goto	l2028
  1819  01EB                     u1900:
  1820  01EB                     l2020:
  1821                           
  1822                           ;proyecto_final.c: 214:                                 PORTD = (128);
  1823  01EB  3080               	movlw	128
  1824  01EC  0088               	movwf	8	;volatile
  1825  01ED                     l2022:
  1826                           
  1827                           ;proyecto_final.c: 216:                                 CCPR2L = (PORTD>>1) + 128;
  1828  01ED  0808               	movf	8,w	;volatile
  1829  01EE  00C0               	movwf	??_main
  1830  01EF  1003               	clrc
  1831  01F0  0C40               	rrf	??_main,w
  1832  01F1  3E80               	addlw	128
  1833  01F2  009B               	movwf	27	;volatile
  1834  01F3                     l2024:
  1835                           
  1836                           ;proyecto_final.c: 217:                                 CCP2CONbits.DC2B1 = PORTDbits.RD
      +                          0;
  1837  01F3  1808               	btfsc	8,0	;volatile
  1838  01F4  29F6               	goto	u1911
  1839  01F5  29FA               	goto	u1910
  1840  01F6                     u1911:
  1841  01F6  1283               	bcf	3,5	;RP0=0, select bank0
  1842  01F7  1303               	bcf	3,6	;RP1=0, select bank0
  1843  01F8  169D               	bsf	29,5	;volatile
  1844  01F9  29FD               	goto	u1924
  1845  01FA                     u1910:
  1846  01FA  1283               	bcf	3,5	;RP0=0, select bank0
  1847  01FB  1303               	bcf	3,6	;RP1=0, select bank0
  1848  01FC  129D               	bcf	29,5	;volatile
  1849  01FD                     u1924:
  1850  01FD                     l2026:
  1851                           
  1852                           ;proyecto_final.c: 218:                                 CCP2CONbits.DC2B0 = ADRESL>>7;
  1853  01FD  1683               	bsf	3,5	;RP0=1, select bank1
  1854  01FE  1303               	bcf	3,6	;RP1=0, select bank1
  1855  01FF  081E               	movf	30,w	;volatile
  1856  0200  1283               	bcf	3,5	;RP0=0, select bank0
  1857  0201  1303               	bcf	3,6	;RP1=0, select bank0
  1858  0202  00C0               	movwf	??_main
  1859  0203  3007               	movlw	7
  1860  0204                     u1935:
  1861  0204  1003               	clrc
  1862  0205  0CC0               	rrf	??_main,f
  1863  0206  3EFF               	addlw	-1
  1864  0207  1D03               	skipz
  1865  0208  2A04               	goto	u1935
  1866  0209  0840               	movf	??_main,w
  1867  020A  00C1               	movwf	??_main+1
  1868  020B  0EC1               	swapf	??_main+1,f
  1869  020C  081D               	movf	29,w	;volatile
  1870  020D  0641               	xorwf	??_main+1,w
  1871  020E  39EF               	andlw	-17
  1872  020F  0641               	xorwf	??_main+1,w
  1873  0210  009D               	movwf	29	;volatile
  1874  0211                     l2028:
  1875                           
  1876                           ;proyecto_final.c: 220:                             if(opcion==51){
  1877  0211  3033               	movlw	51
  1878  0212  0634               	xorwf	_opcion,w
  1879  0213  1D03               	btfss	3,2
  1880  0214  2A16               	goto	u1941
  1881  0215  2A17               	goto	u1940
  1882  0216                     u1941:
  1883  0216  2A3D               	goto	l2038
  1884  0217                     u1940:
  1885  0217                     l2030:
  1886                           
  1887                           ;proyecto_final.c: 221:                                 PORTD = (255);
  1888  0217  30FF               	movlw	255
  1889  0218  0088               	movwf	8	;volatile
  1890  0219                     l2032:
  1891                           
  1892                           ;proyecto_final.c: 223:                                 CCPR2L = (PORTD>>1) + 120;
  1893  0219  0808               	movf	8,w	;volatile
  1894  021A  00C0               	movwf	??_main
  1895  021B  1003               	clrc
  1896  021C  0C40               	rrf	??_main,w
  1897  021D  3E78               	addlw	120
  1898  021E  009B               	movwf	27	;volatile
  1899  021F                     l2034:
  1900                           
  1901                           ;proyecto_final.c: 224:                                 CCP2CONbits.DC2B1 = PORTDbits.RD
      +                          0;
  1902  021F  1808               	btfsc	8,0	;volatile
  1903  0220  2A22               	goto	u1951
  1904  0221  2A26               	goto	u1950
  1905  0222                     u1951:
  1906  0222  1283               	bcf	3,5	;RP0=0, select bank0
  1907  0223  1303               	bcf	3,6	;RP1=0, select bank0
  1908  0224  169D               	bsf	29,5	;volatile
  1909  0225  2A29               	goto	u1964
  1910  0226                     u1950:
  1911  0226  1283               	bcf	3,5	;RP0=0, select bank0
  1912  0227  1303               	bcf	3,6	;RP1=0, select bank0
  1913  0228  129D               	bcf	29,5	;volatile
  1914  0229                     u1964:
  1915  0229                     l2036:
  1916                           
  1917                           ;proyecto_final.c: 225:                                 CCP2CONbits.DC2B0 = ADRESL>>7;
  1918  0229  1683               	bsf	3,5	;RP0=1, select bank1
  1919  022A  1303               	bcf	3,6	;RP1=0, select bank1
  1920  022B  081E               	movf	30,w	;volatile
  1921  022C  1283               	bcf	3,5	;RP0=0, select bank0
  1922  022D  1303               	bcf	3,6	;RP1=0, select bank0
  1923  022E  00C0               	movwf	??_main
  1924  022F  3007               	movlw	7
  1925  0230                     u1975:
  1926  0230  1003               	clrc
  1927  0231  0CC0               	rrf	??_main,f
  1928  0232  3EFF               	addlw	-1
  1929  0233  1D03               	skipz
  1930  0234  2A30               	goto	u1975
  1931  0235  0840               	movf	??_main,w
  1932  0236  00C1               	movwf	??_main+1
  1933  0237  0EC1               	swapf	??_main+1,f
  1934  0238  081D               	movf	29,w	;volatile
  1935  0239  0641               	xorwf	??_main+1,w
  1936  023A  39EF               	andlw	-17
  1937  023B  0641               	xorwf	??_main+1,w
  1938  023C  009D               	movwf	29	;volatile
  1939  023D                     l2038:
  1940                           
  1941                           ;proyecto_final.c: 229:                             opcion = 0;
  1942  023D  01B4               	clrf	_opcion
  1943  023E                     l2040:
  1944                           
  1945                           ;proyecto_final.c: 233:                         if(opcion==50){
  1946  023E  3032               	movlw	50
  1947  023F  0634               	xorwf	_opcion,w
  1948  0240  1D03               	btfss	3,2
  1949  0241  2A43               	goto	u1981
  1950  0242  2A44               	goto	u1980
  1951  0243                     u1981:
  1952  0243  2AD8               	goto	l2086
  1953  0244                     u1980:
  1954  0244                     l2042:
  1955                           
  1956                           ;proyecto_final.c: 235:                             showString("Elija la accion que dese
      +                          a realizar para mover el carro");
  1957  0244  3045               	movlw	low (STR_13| (0+32768))
  1958  0245  00B9               	movwf	showString@var
  1959  0246  3085               	movlw	high (STR_13| (0+32768))
  1960  0247  00BA               	movwf	showString@var+1
  1961  0248  120A  158A  2535  120A  118A  	fcall	_showString
  1962                           
  1963                           ;proyecto_final.c: 236:                             showString("1.Forback 2.Forward 3.Tu
      +                          rn rigth 4.Turn left 5.Stop");
  1964  024D  307C               	movlw	low (STR_14| (0+32768))
  1965  024E  1283               	bcf	3,5	;RP0=0, select bank0
  1966  024F  1303               	bcf	3,6	;RP1=0, select bank0
  1967  0250  00B9               	movwf	showString@var
  1968  0251  3085               	movlw	high (STR_14| (0+32768))
  1969  0252  00BA               	movwf	showString@var+1
  1970  0253  120A  158A  2535  120A  118A  	fcall	_showString
  1971  0258                     l2044:
  1972                           
  1973                           ;proyecto_final.c: 238:                             flag = 1;
  1974  0258  3001               	movlw	1
  1975  0259  1283               	bcf	3,5	;RP0=0, select bank0
  1976  025A  1303               	bcf	3,6	;RP1=0, select bank0
  1977  025B  00C7               	movwf	_flag
  1978  025C  3000               	movlw	0
  1979  025D  00C8               	movwf	_flag+1
  1980  025E                     l2046:
  1981                           
  1982                           ;proyecto_final.c: 239:                             opcion = 0;
  1983  025E  01B4               	clrf	_opcion
  1984  025F                     l2048:	
  1985                           ;proyecto_final.c: 241:                             while(!opcion){
  1986                           
  1987                           
  1988                           ;proyecto_final.c: 241:                             while(!opcion){
  1989  025F  0834               	movf	_opcion,w
  1990  0260  1903               	btfsc	3,2
  1991  0261  2A63               	goto	u1991
  1992  0262  2A64               	goto	u1990
  1993  0263                     u1991:
  1994  0263  2A5F               	goto	l2048
  1995  0264                     u1990:
  1996  0264                     l2050:
  1997                           
  1998                           ;proyecto_final.c: 246:                             if(opcion==49){
  1999  0264  3031               	movlw	49
  2000  0265  0634               	xorwf	_opcion,w
  2001  0266  1D03               	btfss	3,2
  2002  0267  2A69               	goto	u2001
  2003  0268  2A6A               	goto	u2000
  2004  0269                     u2001:
  2005  0269  2A70               	goto	l2054
  2006  026A                     u2000:
  2007  026A                     l2052:
  2008                           
  2009                           ;proyecto_final.c: 247:                                 PORTA = 8;
  2010  026A  3008               	movlw	8
  2011  026B  0085               	movwf	5	;volatile
  2012                           
  2013                           ;proyecto_final.c: 248:                                 flag =1;
  2014  026C  3001               	movlw	1
  2015  026D  00C7               	movwf	_flag
  2016  026E  3000               	movlw	0
  2017  026F  00C8               	movwf	_flag+1
  2018  0270                     l2054:
  2019                           
  2020                           ;proyecto_final.c: 250:                             if(opcion==50){
  2021  0270  3032               	movlw	50
  2022  0271  0634               	xorwf	_opcion,w
  2023  0272  1D03               	btfss	3,2
  2024  0273  2A75               	goto	u2011
  2025  0274  2A76               	goto	u2010
  2026  0275                     u2011:
  2027  0275  2A7C               	goto	l2058
  2028  0276                     u2010:
  2029  0276                     l2056:
  2030                           
  2031                           ;proyecto_final.c: 252:                                 PORTA = 4;
  2032  0276  3004               	movlw	4
  2033  0277  0085               	movwf	5	;volatile
  2034                           
  2035                           ;proyecto_final.c: 253:                                 flag =2;
  2036  0278  3002               	movlw	2
  2037  0279  00C7               	movwf	_flag
  2038  027A  3000               	movlw	0
  2039  027B  00C8               	movwf	_flag+1
  2040  027C                     l2058:
  2041                           
  2042                           ;proyecto_final.c: 257:                             if(opcion==51){
  2043  027C  3033               	movlw	51
  2044  027D  0634               	xorwf	_opcion,w
  2045  027E  1D03               	btfss	3,2
  2046  027F  2A81               	goto	u2021
  2047  0280  2A82               	goto	u2020
  2048  0281                     u2021:
  2049  0281  2AA6               	goto	l2070
  2050  0282                     u2020:
  2051  0282                     l2060:
  2052                           
  2053                           ;proyecto_final.c: 258:                                 PORTA = 9;
  2054  0282  3009               	movlw	9
  2055  0283  0085               	movwf	5	;volatile
  2056                           
  2057                           ;proyecto_final.c: 259:                                 _delay((unsigned long)((800)*(80
      +                          00000/4000.0)));
  2058  0284  3009               	movlw	9
  2059  0285  1283               	bcf	3,5	;RP0=0, select bank0
  2060  0286  1303               	bcf	3,6	;RP1=0, select bank0
  2061  0287  00C2               	movwf	??_main+2
  2062  0288  301E               	movlw	30
  2063  0289  00C1               	movwf	??_main+1
  2064  028A  30E3               	movlw	227
  2065  028B  00C0               	movwf	??_main
  2066  028C                     u2367:
  2067  028C  0BC0               	decfsz	??_main,f
  2068  028D  2A8C               	goto	u2367
  2069  028E  0BC1               	decfsz	??_main+1,f
  2070  028F  2A8C               	goto	u2367
  2071  0290  0BC2               	decfsz	??_main+2,f
  2072  0291  2A8C               	goto	u2367
  2073  0292  2A93               	nop2
  2074  0293                     l2062:
  2075                           
  2076                           ;proyecto_final.c: 260:                                 if(flag ==1){
  2077  0293  1283               	bcf	3,5	;RP0=0, select bank0
  2078  0294  1303               	bcf	3,6	;RP1=0, select bank0
  2079  0295  0347               	decf	_flag,w
  2080  0296  0448               	iorwf	_flag+1,w
  2081  0297  1D03               	btfss	3,2
  2082  0298  2A9A               	goto	u2031
  2083  0299  2A9B               	goto	u2030
  2084  029A                     u2031:
  2085  029A  2A9D               	goto	l2066
  2086  029B                     u2030:
  2087  029B                     l2064:
  2088                           
  2089                           ;proyecto_final.c: 261:                                     PORTA = 8;
  2090  029B  3008               	movlw	8
  2091  029C  0085               	movwf	5	;volatile
  2092  029D                     l2066:
  2093                           
  2094                           ;proyecto_final.c: 263:                                 if(flag ==2){
  2095  029D  3002               	movlw	2
  2096  029E  0647               	xorwf	_flag,w
  2097  029F  0448               	iorwf	_flag+1,w
  2098  02A0  1D03               	btfss	3,2
  2099  02A1  2AA3               	goto	u2041
  2100  02A2  2AA4               	goto	u2040
  2101  02A3                     u2041:
  2102  02A3  2AA6               	goto	l2070
  2103  02A4                     u2040:
  2104  02A4                     l2068:
  2105                           
  2106                           ;proyecto_final.c: 264:                                     PORTA = 4;
  2107  02A4  3004               	movlw	4
  2108  02A5  0085               	movwf	5	;volatile
  2109  02A6                     l2070:
  2110                           
  2111                           ;proyecto_final.c: 267:                             if(opcion==52){
  2112  02A6  3034               	movlw	52
  2113  02A7  0634               	xorwf	_opcion,w
  2114  02A8  1D03               	btfss	3,2
  2115  02A9  2AAB               	goto	u2051
  2116  02AA  2AAC               	goto	u2050
  2117  02AB                     u2051:
  2118  02AB  2AD0               	goto	l2082
  2119  02AC                     u2050:
  2120  02AC                     l2072:
  2121                           
  2122                           ;proyecto_final.c: 268:                                 PORTA = 10;
  2123  02AC  300A               	movlw	10
  2124  02AD  0085               	movwf	5	;volatile
  2125                           
  2126                           ;proyecto_final.c: 269:                                 _delay((unsigned long)((800)*(80
      +                          00000/4000.0)));
  2127  02AE  3009               	movlw	9
  2128  02AF  1283               	bcf	3,5	;RP0=0, select bank0
  2129  02B0  1303               	bcf	3,6	;RP1=0, select bank0
  2130  02B1  00C2               	movwf	??_main+2
  2131  02B2  301E               	movlw	30
  2132  02B3  00C1               	movwf	??_main+1
  2133  02B4  30E3               	movlw	227
  2134  02B5  00C0               	movwf	??_main
  2135  02B6                     u2377:
  2136  02B6  0BC0               	decfsz	??_main,f
  2137  02B7  2AB6               	goto	u2377
  2138  02B8  0BC1               	decfsz	??_main+1,f
  2139  02B9  2AB6               	goto	u2377
  2140  02BA  0BC2               	decfsz	??_main+2,f
  2141  02BB  2AB6               	goto	u2377
  2142  02BC  2ABD               	nop2
  2143  02BD                     l2074:
  2144                           
  2145                           ;proyecto_final.c: 270:                                 if(flag ==1){
  2146  02BD  1283               	bcf	3,5	;RP0=0, select bank0
  2147  02BE  1303               	bcf	3,6	;RP1=0, select bank0
  2148  02BF  0347               	decf	_flag,w
  2149  02C0  0448               	iorwf	_flag+1,w
  2150  02C1  1D03               	btfss	3,2
  2151  02C2  2AC4               	goto	u2061
  2152  02C3  2AC5               	goto	u2060
  2153  02C4                     u2061:
  2154  02C4  2AC7               	goto	l2078
  2155  02C5                     u2060:
  2156  02C5                     l2076:
  2157                           
  2158                           ;proyecto_final.c: 271:                                     PORTA = 8;
  2159  02C5  3008               	movlw	8
  2160  02C6  0085               	movwf	5	;volatile
  2161  02C7                     l2078:
  2162                           
  2163                           ;proyecto_final.c: 273:                                 if(flag ==2){
  2164  02C7  3002               	movlw	2
  2165  02C8  0647               	xorwf	_flag,w
  2166  02C9  0448               	iorwf	_flag+1,w
  2167  02CA  1D03               	btfss	3,2
  2168  02CB  2ACD               	goto	u2071
  2169  02CC  2ACE               	goto	u2070
  2170  02CD                     u2071:
  2171  02CD  2AD0               	goto	l2082
  2172  02CE                     u2070:
  2173  02CE                     l2080:
  2174                           
  2175                           ;proyecto_final.c: 274:                                     PORTA = 4;
  2176  02CE  3004               	movlw	4
  2177  02CF  0085               	movwf	5	;volatile
  2178  02D0                     l2082:
  2179                           
  2180                           ;proyecto_final.c: 279:                             if(opcion==53){
  2181  02D0  3035               	movlw	53
  2182  02D1  0634               	xorwf	_opcion,w
  2183  02D2  1D03               	btfss	3,2
  2184  02D3  2AD5               	goto	u2081
  2185  02D4  2AD6               	goto	u2080
  2186  02D5                     u2081:
  2187  02D5  2AD7               	goto	l183
  2188  02D6                     u2080:
  2189  02D6                     l2084:
  2190                           
  2191                           ;proyecto_final.c: 280:                                 PORTA = 0;
  2192  02D6  0185               	clrf	5	;volatile
  2193  02D7                     l183:	
  2194                           ;proyecto_final.c: 281:                             }
  2195                           
  2196                           
  2197                           ;proyecto_final.c: 284:                             opcion = 0;
  2198  02D7  01B4               	clrf	_opcion
  2199  02D8                     l2086:
  2200                           
  2201                           ;proyecto_final.c: 290:                         if (opcion==51){
  2202  02D8  3033               	movlw	51
  2203  02D9  0634               	xorwf	_opcion,w
  2204  02DA  1D03               	btfss	3,2
  2205  02DB  2ADD               	goto	u2091
  2206  02DC  2ADE               	goto	u2090
  2207  02DD                     u2091:
  2208  02DD  2B56               	goto	l2126
  2209  02DE                     u2090:
  2210  02DE                     l2088:
  2211                           
  2212                           ;proyecto_final.c: 291:                             showString("Ingrese la accion a real
      +                          izar con los leds");
  2213  02DE  300E               	movlw	low (STR_15| (0+32768))
  2214  02DF  00B9               	movwf	showString@var
  2215  02E0  3086               	movlw	high (STR_15| (0+32768))
  2216  02E1  00BA               	movwf	showString@var+1
  2217  02E2  120A  158A  2535  120A  118A  	fcall	_showString
  2218                           
  2219                           ;proyecto_final.c: 292:                             showString("1.Encender leds delanter
      +                          as 2.Encender leds traseras 3.Parpadear leds");
  2220  02E7  3000               	movlw	low (STR_16| (0+32768))
  2221  02E8  1283               	bcf	3,5	;RP0=0, select bank0
  2222  02E9  1303               	bcf	3,6	;RP1=0, select bank0
  2223  02EA  00B9               	movwf	showString@var
  2224  02EB  3085               	movlw	high (STR_16| (0+32768))
  2225  02EC  00BA               	movwf	showString@var+1
  2226  02ED  120A  158A  2535  120A  118A  	fcall	_showString
  2227  02F2                     l2090:
  2228                           
  2229                           ;proyecto_final.c: 294:                             flag = 1;
  2230  02F2  3001               	movlw	1
  2231  02F3  1283               	bcf	3,5	;RP0=0, select bank0
  2232  02F4  1303               	bcf	3,6	;RP1=0, select bank0
  2233  02F5  00C7               	movwf	_flag
  2234  02F6  3000               	movlw	0
  2235  02F7  00C8               	movwf	_flag+1
  2236  02F8                     l2092:
  2237                           
  2238                           ;proyecto_final.c: 295:                             opcion = 0;
  2239  02F8  01B4               	clrf	_opcion
  2240  02F9                     l2094:	
  2241                           ;proyecto_final.c: 297:                             while(!opcion){
  2242                           
  2243                           
  2244                           ;proyecto_final.c: 297:                             while(!opcion){
  2245  02F9  0834               	movf	_opcion,w
  2246  02FA  1903               	btfsc	3,2
  2247  02FB  2AFD               	goto	u2101
  2248  02FC  2AFE               	goto	u2100
  2249  02FD                     u2101:
  2250  02FD  2AF9               	goto	l2094
  2251  02FE                     u2100:
  2252  02FE                     l2096:
  2253                           
  2254                           ;proyecto_final.c: 303:                             if(opcion==49){
  2255  02FE  3031               	movlw	49
  2256  02FF  0634               	xorwf	_opcion,w
  2257  0300  1D03               	btfss	3,2
  2258  0301  2B03               	goto	u2111
  2259  0302  2B04               	goto	u2110
  2260  0303                     u2111:
  2261  0303  2B06               	goto	l2100
  2262  0304                     u2110:
  2263  0304                     l2098:
  2264                           
  2265                           ;proyecto_final.c: 304:                                 PORTAbits.RA4 = 1;
  2266  0304  1605               	bsf	5,4	;volatile
  2267                           
  2268                           ;proyecto_final.c: 305:                                 PORTAbits.RA5 = 1;
  2269  0305  1685               	bsf	5,5	;volatile
  2270  0306                     l2100:
  2271                           
  2272                           ;proyecto_final.c: 309:                             if(opcion==50){
  2273  0306  3032               	movlw	50
  2274  0307  0634               	xorwf	_opcion,w
  2275  0308  1D03               	btfss	3,2
  2276  0309  2B0B               	goto	u2121
  2277  030A  2B0C               	goto	u2120
  2278  030B                     u2121:
  2279  030B  2B0E               	goto	l2104
  2280  030C                     u2120:
  2281  030C                     l2102:
  2282                           
  2283                           ;proyecto_final.c: 310:                                 PORTAbits.RA6 = 1;
  2284  030C  1705               	bsf	5,6	;volatile
  2285                           
  2286                           ;proyecto_final.c: 311:                                 PORTAbits.RA7 = 1;
  2287  030D  1785               	bsf	5,7	;volatile
  2288  030E                     l2104:
  2289                           
  2290                           ;proyecto_final.c: 315:                             if(opcion==51){
  2291  030E  3033               	movlw	51
  2292  030F  0634               	xorwf	_opcion,w
  2293  0310  1D03               	btfss	3,2
  2294  0311  2B13               	goto	u2131
  2295  0312  2B14               	goto	u2130
  2296  0313                     u2131:
  2297  0313  2B53               	goto	l2124
  2298  0314                     u2130:
  2299  0314                     l2106:
  2300                           
  2301                           ;proyecto_final.c: 316:                                 int i;;proyecto_final.c: 317:   
      +                                                        for (i = 0; i < 3; i++) {
  2302  0314  01C3               	clrf	main@i
  2303  0315  01C4               	clrf	main@i+1
  2304  0316                     l191:
  2305                           
  2306                           ;proyecto_final.c: 319:                                    PORTAbits.RA4 = 1;
  2307  0316  1283               	bcf	3,5	;RP0=0, select bank0
  2308  0317  1303               	bcf	3,6	;RP1=0, select bank0
  2309  0318  1605               	bsf	5,4	;volatile
  2310                           
  2311                           ;proyecto_final.c: 320:                                    PORTAbits.RA5 = 1;
  2312  0319  1685               	bsf	5,5	;volatile
  2313                           
  2314                           ;proyecto_final.c: 321:                                    PORTAbits.RA6 = 1;
  2315  031A  1705               	bsf	5,6	;volatile
  2316                           
  2317                           ;proyecto_final.c: 322:                                    PORTAbits.RA7 = 1;
  2318  031B  1785               	bsf	5,7	;volatile
  2319  031C                     l2112:
  2320                           
  2321                           ;proyecto_final.c: 323:                                    _delay((unsigned long)((250)*
      +                          (8000000/4000.0)));
  2322  031C  3003               	movlw	3
  2323  031D  1283               	bcf	3,5	;RP0=0, select bank0
  2324  031E  1303               	bcf	3,6	;RP1=0, select bank0
  2325  031F  00C2               	movwf	??_main+2
  2326  0320  308A               	movlw	138
  2327  0321  00C1               	movwf	??_main+1
  2328  0322  3055               	movlw	85
  2329  0323  00C0               	movwf	??_main
  2330  0324                     u2387:
  2331  0324  0BC0               	decfsz	??_main,f
  2332  0325  2B24               	goto	u2387
  2333  0326  0BC1               	decfsz	??_main+1,f
  2334  0327  2B24               	goto	u2387
  2335  0328  0BC2               	decfsz	??_main+2,f
  2336  0329  2B24               	goto	u2387
  2337  032A                     l2114:
  2338                           
  2339                           ;proyecto_final.c: 324:                                    PORTAbits.RA4 = 0;
  2340  032A  1283               	bcf	3,5	;RP0=0, select bank0
  2341  032B  1303               	bcf	3,6	;RP1=0, select bank0
  2342  032C  1205               	bcf	5,4	;volatile
  2343  032D                     l2116:
  2344                           
  2345                           ;proyecto_final.c: 325:                                    PORTAbits.RA5 = 0;
  2346  032D  1285               	bcf	5,5	;volatile
  2347  032E                     l2118:
  2348                           
  2349                           ;proyecto_final.c: 326:                                    PORTAbits.RA6 = 0;
  2350  032E  1305               	bcf	5,6	;volatile
  2351  032F                     l2120:
  2352                           
  2353                           ;proyecto_final.c: 327:                                    PORTAbits.RA7 = 0;
  2354  032F  1385               	bcf	5,7	;volatile
  2355                           
  2356                           ;proyecto_final.c: 328:                                    _delay((unsigned long)((250)*
      +                          (8000000/4000.0)));
  2357  0330  3003               	movlw	3
  2358  0331  1283               	bcf	3,5	;RP0=0, select bank0
  2359  0332  1303               	bcf	3,6	;RP1=0, select bank0
  2360  0333  00C2               	movwf	??_main+2
  2361  0334  308A               	movlw	138
  2362  0335  00C1               	movwf	??_main+1
  2363  0336  3055               	movlw	85
  2364  0337  00C0               	movwf	??_main
  2365  0338                     u2397:
  2366  0338  0BC0               	decfsz	??_main,f
  2367  0339  2B38               	goto	u2397
  2368  033A  0BC1               	decfsz	??_main+1,f
  2369  033B  2B38               	goto	u2397
  2370  033C  0BC2               	decfsz	??_main+2,f
  2371  033D  2B38               	goto	u2397
  2372                           
  2373                           ;proyecto_final.c: 330:                                 }
  2374  033E  3001               	movlw	1
  2375  033F  1283               	bcf	3,5	;RP0=0, select bank0
  2376  0340  1303               	bcf	3,6	;RP1=0, select bank0
  2377  0341  07C3               	addwf	main@i,f
  2378  0342  1803               	skipnc
  2379  0343  0AC4               	incf	main@i+1,f
  2380  0344  3000               	movlw	0
  2381  0345  07C4               	addwf	main@i+1,f
  2382  0346                     l2122:
  2383  0346  0844               	movf	main@i+1,w
  2384  0347  3A80               	xorlw	128
  2385  0348  00FF               	movwf	btemp+1
  2386  0349  3080               	movlw	128
  2387  034A  027F               	subwf	btemp+1,w
  2388  034B  1D03               	skipz
  2389  034C  2B4F               	goto	u2145
  2390  034D  3003               	movlw	3
  2391  034E  0243               	subwf	main@i,w
  2392  034F                     u2145:
  2393  034F  1C03               	skipc
  2394  0350  2B52               	goto	u2141
  2395  0351  2B53               	goto	u2140
  2396  0352                     u2141:
  2397  0352  2B16               	goto	l191
  2398  0353                     u2140:
  2399  0353                     l2124:
  2400                           
  2401                           ;proyecto_final.c: 335:                             opcion = 0;
  2402  0353  1283               	bcf	3,5	;RP0=0, select bank0
  2403  0354  1303               	bcf	3,6	;RP1=0, select bank0
  2404  0355  01B4               	clrf	_opcion
  2405  0356                     l2126:
  2406                           
  2407                           ;proyecto_final.c: 339:                         if (opcion==52){
  2408  0356  3034               	movlw	52
  2409  0357  0634               	xorwf	_opcion,w
  2410  0358  1D03               	btfss	3,2
  2411  0359  2B5B               	goto	u2151
  2412  035A  2B5C               	goto	u2150
  2413  035B                     u2151:
  2414  035B  2C4E               	goto	l2176
  2415  035C                     u2150:
  2416  035C                     l2128:
  2417                           
  2418                           ;proyecto_final.c: 340:                             flag = 1;
  2419  035C  3001               	movlw	1
  2420  035D  00C7               	movwf	_flag
  2421  035E  3000               	movlw	0
  2422  035F  00C8               	movwf	_flag+1
  2423  0360                     l2130:
  2424                           
  2425                           ;proyecto_final.c: 343:                             ADCON0bits.CHS = 7;
  2426  0360  081F               	movf	31,w	;volatile
  2427  0361  39C3               	andlw	-61
  2428  0362  381C               	iorlw	28
  2429  0363  009F               	movwf	31	;volatile
  2430  0364                     l2132:
  2431                           
  2432                           ;proyecto_final.c: 344:                             _delay((unsigned long)((50)*(8000000
      +                          /4000000.0)));
  2433  0364  3020               	movlw	32
  2434  0365  1283               	bcf	3,5	;RP0=0, select bank0
  2435  0366  1303               	bcf	3,6	;RP1=0, select bank0
  2436  0367  00C0               	movwf	??_main
  2437  0368                     u2407:
  2438  0368  0BC0               	decfsz	??_main,f
  2439  0369  2B68               	goto	u2407
  2440  036A  0000               	nop
  2441  036B                     l2134:
  2442                           
  2443                           ;proyecto_final.c: 346:                             ADCON0bits.GO = 1;
  2444  036B  1283               	bcf	3,5	;RP0=0, select bank0
  2445  036C  1303               	bcf	3,6	;RP1=0, select bank0
  2446  036D  149F               	bsf	31,1	;volatile
  2447  036E                     l2136:
  2448                           
  2449                           ;proyecto_final.c: 347:                             _delay((unsigned long)((50)*(8000000
      +                          /4000000.0)));
  2450  036E  3020               	movlw	32
  2451  036F  1283               	bcf	3,5	;RP0=0, select bank0
  2452  0370  1303               	bcf	3,6	;RP1=0, select bank0
  2453  0371  00C0               	movwf	??_main
  2454  0372                     u2417:
  2455  0372  0BC0               	decfsz	??_main,f
  2456  0373  2B72               	goto	u2417
  2457  0374  0000               	nop
  2458  0375                     l2138:
  2459                           
  2460                           ;proyecto_final.c: 348:                             valor_pot = ADRESH;
  2461  0375  1283               	bcf	3,5	;RP0=0, select bank0
  2462  0376  1303               	bcf	3,6	;RP1=0, select bank0
  2463  0377  081E               	movf	30,w	;volatile
  2464  0378  00C0               	movwf	??_main
  2465  0379  01C1               	clrf	??_main+1
  2466  037A  0840               	movf	??_main,w
  2467  037B  00AE               	movwf	_valor_pot
  2468  037C  0841               	movf	??_main+1,w
  2469  037D  00AF               	movwf	_valor_pot+1
  2470  037E                     l2140:
  2471                           
  2472                           ;proyecto_final.c: 349:                             _delay((unsigned long)((50)*(8000000
      +                          /4000000.0)));
  2473  037E  3020               	movlw	32
  2474  037F  1283               	bcf	3,5	;RP0=0, select bank0
  2475  0380  1303               	bcf	3,6	;RP1=0, select bank0
  2476  0381  00C0               	movwf	??_main
  2477  0382                     u2427:
  2478  0382  0BC0               	decfsz	??_main,f
  2479  0383  2B82               	goto	u2427
  2480  0384  0000               	nop
  2481  0385                     l2142:
  2482                           
  2483                           ;proyecto_final.c: 352:                             var_temp = valor_pot;
  2484  0385  1283               	bcf	3,5	;RP0=0, select bank0
  2485  0386  1303               	bcf	3,6	;RP1=0, select bank0
  2486  0387  082F               	movf	_valor_pot+1,w
  2487  0388  00AD               	movwf	_var_temp+1
  2488  0389  082E               	movf	_valor_pot,w
  2489  038A  00AC               	movwf	_var_temp
  2490  038B                     l2144:
  2491                           
  2492                           ;proyecto_final.c: 353:                             valor_centenas = var_temp / 100;
  2493  038B  3064               	movlw	100
  2494  038C  00B5               	movwf	___awdiv@divisor
  2495  038D  3000               	movlw	0
  2496  038E  00B6               	movwf	___awdiv@divisor+1
  2497  038F  082D               	movf	_var_temp+1,w
  2498  0390  00B8               	movwf	___awdiv@dividend+1
  2499  0391  082C               	movf	_var_temp,w
  2500  0392  00B7               	movwf	___awdiv@dividend
  2501  0393  120A  158A  258A  120A  118A  	fcall	___awdiv
  2502  0398  1283               	bcf	3,5	;RP0=0, select bank0
  2503  0399  1303               	bcf	3,6	;RP1=0, select bank0
  2504  039A  0836               	movf	?___awdiv+1,w
  2505  039B  00AB               	movwf	_valor_centenas+1
  2506  039C  0835               	movf	?___awdiv,w
  2507  039D  00AA               	movwf	_valor_centenas
  2508  039E                     l2146:
  2509                           
  2510                           ;proyecto_final.c: 354:                             var_temp = var_temp - valor_centenas
      +                          *100;
  2511  039E  082B               	movf	_valor_centenas+1,w
  2512  039F  00B6               	movwf	___wmul@multiplier+1
  2513  03A0  082A               	movf	_valor_centenas,w
  2514  03A1  00B5               	movwf	___wmul@multiplier
  2515  03A2  309C               	movlw	156
  2516  03A3  00B7               	movwf	___wmul@multiplicand
  2517  03A4  30FF               	movlw	255
  2518  03A5  00B8               	movwf	___wmul@multiplicand+1
  2519  03A6  120A  158A  250E  120A  118A  	fcall	___wmul
  2520  03AB  1283               	bcf	3,5	;RP0=0, select bank0
  2521  03AC  1303               	bcf	3,6	;RP1=0, select bank0
  2522  03AD  082C               	movf	_var_temp,w
  2523  03AE  0735               	addwf	?___wmul,w
  2524  03AF  00AC               	movwf	_var_temp
  2525  03B0  082D               	movf	_var_temp+1,w
  2526  03B1  1803               	skipnc
  2527  03B2  0A2D               	incf	_var_temp+1,w
  2528  03B3  0736               	addwf	?___wmul+1,w
  2529  03B4  00AD               	movwf	_var_temp+1
  2530  03B5                     l2148:
  2531                           
  2532                           ;proyecto_final.c: 355:                             valor_decenas = var_temp / 10;
  2533  03B5  300A               	movlw	10
  2534  03B6  00B5               	movwf	___awdiv@divisor
  2535  03B7  3000               	movlw	0
  2536  03B8  00B6               	movwf	___awdiv@divisor+1
  2537  03B9  082D               	movf	_var_temp+1,w
  2538  03BA  00B8               	movwf	___awdiv@dividend+1
  2539  03BB  082C               	movf	_var_temp,w
  2540  03BC  00B7               	movwf	___awdiv@dividend
  2541  03BD  120A  158A  258A  120A  118A  	fcall	___awdiv
  2542  03C2  1283               	bcf	3,5	;RP0=0, select bank0
  2543  03C3  1303               	bcf	3,6	;RP1=0, select bank0
  2544  03C4  0836               	movf	?___awdiv+1,w
  2545  03C5  00A9               	movwf	_valor_decenas+1
  2546  03C6  0835               	movf	?___awdiv,w
  2547  03C7  00A8               	movwf	_valor_decenas
  2548  03C8                     l2150:
  2549                           
  2550                           ;proyecto_final.c: 356:                             var_temp = var_temp - valor_decenas*
      +                          10;
  2551  03C8  0829               	movf	_valor_decenas+1,w
  2552  03C9  00B6               	movwf	___wmul@multiplier+1
  2553  03CA  0828               	movf	_valor_decenas,w
  2554  03CB  00B5               	movwf	___wmul@multiplier
  2555  03CC  30F6               	movlw	246
  2556  03CD  00B7               	movwf	___wmul@multiplicand
  2557  03CE  30FF               	movlw	255
  2558  03CF  00B8               	movwf	___wmul@multiplicand+1
  2559  03D0  120A  158A  250E  120A  118A  	fcall	___wmul
  2560  03D5  1283               	bcf	3,5	;RP0=0, select bank0
  2561  03D6  1303               	bcf	3,6	;RP1=0, select bank0
  2562  03D7  082C               	movf	_var_temp,w
  2563  03D8  0735               	addwf	?___wmul,w
  2564  03D9  00AC               	movwf	_var_temp
  2565  03DA  082D               	movf	_var_temp+1,w
  2566  03DB  1803               	skipnc
  2567  03DC  0A2D               	incf	_var_temp+1,w
  2568  03DD  0736               	addwf	?___wmul+1,w
  2569  03DE  00AD               	movwf	_var_temp+1
  2570  03DF                     l2152:
  2571                           
  2572                           ;proyecto_final.c: 357:                             valor_unidades = var_temp;
  2573  03DF  082D               	movf	_var_temp+1,w
  2574  03E0  00A7               	movwf	_valor_unidades+1
  2575  03E1  082C               	movf	_var_temp,w
  2576  03E2  00A6               	movwf	_valor_unidades
  2577  03E3                     l2154:
  2578                           
  2579                           ;proyecto_final.c: 360:                             showString("El valor en decimal del 
      +                          pot es:");
  2580  03E3  3085               	movlw	low (STR_17| (0+32768))
  2581  03E4  00B9               	movwf	showString@var
  2582  03E5  3086               	movlw	high (STR_17| (0+32768))
  2583  03E6  00BA               	movwf	showString@var+1
  2584  03E7  120A  158A  2535  120A  118A  	fcall	_showString
  2585  03EC                     l2156:
  2586                           
  2587                           ;proyecto_final.c: 361:                             TXREG = dec_to_ascii(valor_centenas)
      +                          ;
  2588  03EC  1283               	bcf	3,5	;RP0=0, select bank0
  2589  03ED  1303               	bcf	3,6	;RP1=0, select bank0
  2590  03EE  082B               	movf	_valor_centenas+1,w
  2591  03EF  00B6               	movwf	dec_to_ascii@val+1
  2592  03F0  082A               	movf	_valor_centenas,w
  2593  03F1  00B5               	movwf	dec_to_ascii@val
  2594  03F2  120A  158A  265C  120A  118A  	fcall	_dec_to_ascii
  2595  03F7  1283               	bcf	3,5	;RP0=0, select bank0
  2596  03F8  1303               	bcf	3,6	;RP1=0, select bank0
  2597  03F9  0835               	movf	?_dec_to_ascii,w
  2598  03FA  0099               	movwf	25	;volatile
  2599  03FB                     l2158:
  2600                           
  2601                           ;proyecto_final.c: 362:                             _delay((unsigned long)((10)*(8000000
      +                          /4000.0)));
  2602  03FB  301A               	movlw	26
  2603  03FC  1283               	bcf	3,5	;RP0=0, select bank0
  2604  03FD  1303               	bcf	3,6	;RP1=0, select bank0
  2605  03FE  00C1               	movwf	??_main+1
  2606  03FF  30F7               	movlw	247
  2607  0400  00C0               	movwf	??_main
  2608  0401                     u2437:
  2609  0401  0BC0               	decfsz	??_main,f
  2610  0402  2C01               	goto	u2437
  2611  0403  0BC1               	decfsz	??_main+1,f
  2612  0404  2C01               	goto	u2437
  2613  0405  2C06               	nop2
  2614  0406                     l2160:
  2615                           
  2616                           ;proyecto_final.c: 363:                             TXREG = dec_to_ascii(valor_decenas);
  2617  0406  1283               	bcf	3,5	;RP0=0, select bank0
  2618  0407  1303               	bcf	3,6	;RP1=0, select bank0
  2619  0408  0829               	movf	_valor_decenas+1,w
  2620  0409  00B6               	movwf	dec_to_ascii@val+1
  2621  040A  0828               	movf	_valor_decenas,w
  2622  040B  00B5               	movwf	dec_to_ascii@val
  2623  040C  120A  158A  265C  120A  118A  	fcall	_dec_to_ascii
  2624  0411  1283               	bcf	3,5	;RP0=0, select bank0
  2625  0412  1303               	bcf	3,6	;RP1=0, select bank0
  2626  0413  0835               	movf	?_dec_to_ascii,w
  2627  0414  0099               	movwf	25	;volatile
  2628  0415                     l2162:
  2629                           
  2630                           ;proyecto_final.c: 364:                             _delay((unsigned long)((10)*(8000000
      +                          /4000.0)));
  2631  0415  301A               	movlw	26
  2632  0416  1283               	bcf	3,5	;RP0=0, select bank0
  2633  0417  1303               	bcf	3,6	;RP1=0, select bank0
  2634  0418  00C1               	movwf	??_main+1
  2635  0419  30F7               	movlw	247
  2636  041A  00C0               	movwf	??_main
  2637  041B                     u2447:
  2638  041B  0BC0               	decfsz	??_main,f
  2639  041C  2C1B               	goto	u2447
  2640  041D  0BC1               	decfsz	??_main+1,f
  2641  041E  2C1B               	goto	u2447
  2642  041F  2C20               	nop2
  2643  0420                     l2164:
  2644                           
  2645                           ;proyecto_final.c: 365:                             TXREG = dec_to_ascii(valor_unidades)
      +                          ;
  2646  0420  1283               	bcf	3,5	;RP0=0, select bank0
  2647  0421  1303               	bcf	3,6	;RP1=0, select bank0
  2648  0422  0827               	movf	_valor_unidades+1,w
  2649  0423  00B6               	movwf	dec_to_ascii@val+1
  2650  0424  0826               	movf	_valor_unidades,w
  2651  0425  00B5               	movwf	dec_to_ascii@val
  2652  0426  120A  158A  265C  120A  118A  	fcall	_dec_to_ascii
  2653  042B  1283               	bcf	3,5	;RP0=0, select bank0
  2654  042C  1303               	bcf	3,6	;RP1=0, select bank0
  2655  042D  0835               	movf	?_dec_to_ascii,w
  2656  042E  0099               	movwf	25	;volatile
  2657  042F                     l2166:
  2658                           
  2659                           ;proyecto_final.c: 366:                             _delay((unsigned long)((10)*(8000000
      +                          /4000.0)));
  2660  042F  301A               	movlw	26
  2661  0430  1283               	bcf	3,5	;RP0=0, select bank0
  2662  0431  1303               	bcf	3,6	;RP1=0, select bank0
  2663  0432  00C1               	movwf	??_main+1
  2664  0433  30F7               	movlw	247
  2665  0434  00C0               	movwf	??_main
  2666  0435                     u2457:
  2667  0435  0BC0               	decfsz	??_main,f
  2668  0436  2C35               	goto	u2457
  2669  0437  0BC1               	decfsz	??_main+1,f
  2670  0438  2C35               	goto	u2457
  2671  0439  2C3A               	nop2
  2672  043A                     l2168:
  2673                           
  2674                           ;proyecto_final.c: 368:                             TXREG = 13;
  2675  043A  300D               	movlw	13
  2676  043B  1283               	bcf	3,5	;RP0=0, select bank0
  2677  043C  1303               	bcf	3,6	;RP1=0, select bank0
  2678  043D  0099               	movwf	25	;volatile
  2679  043E                     l2170:
  2680                           
  2681                           ;proyecto_final.c: 369:                             _delay((unsigned long)((10)*(8000000
      +                          /4000.0)));
  2682  043E  301A               	movlw	26
  2683  043F  1283               	bcf	3,5	;RP0=0, select bank0
  2684  0440  1303               	bcf	3,6	;RP1=0, select bank0
  2685  0441  00C1               	movwf	??_main+1
  2686  0442  30F7               	movlw	247
  2687  0443  00C0               	movwf	??_main
  2688  0444                     u2467:
  2689  0444  0BC0               	decfsz	??_main,f
  2690  0445  2C44               	goto	u2467
  2691  0446  0BC1               	decfsz	??_main+1,f
  2692  0447  2C44               	goto	u2467
  2693  0448  2C49               	nop2
  2694  0449                     l2172:
  2695                           
  2696                           ;proyecto_final.c: 370:                             TXREG = 11;
  2697  0449  300B               	movlw	11
  2698  044A  1283               	bcf	3,5	;RP0=0, select bank0
  2699  044B  1303               	bcf	3,6	;RP1=0, select bank0
  2700  044C  0099               	movwf	25	;volatile
  2701  044D  289A               	goto	l1952
  2702  044E                     l2176:
  2703                           
  2704                           ;proyecto_final.c: 146:                     while(opcion != 53){
  2705  044E  3035               	movlw	53
  2706  044F  0634               	xorwf	_opcion,w
  2707  0450  1D03               	btfss	3,2
  2708  0451  2C53               	goto	u2161
  2709  0452  2C54               	goto	u2160
  2710  0453                     u2161:
  2711  0453  289C               	goto	l1954
  2712  0454                     u2160:
  2713  0454                     l2178:
  2714                           
  2715                           ;proyecto_final.c: 379:                     if(opcion==53){
  2716  0454  3035               	movlw	53
  2717  0455  0634               	xorwf	_opcion,w
  2718  0456  1D03               	btfss	3,2
  2719  0457  2C59               	goto	u2171
  2720  0458  2C5A               	goto	u2170
  2721  0459                     u2171:
  2722  0459  2C67               	goto	l2184
  2723  045A                     u2170:
  2724  045A                     l2180:
  2725                           
  2726                           ;proyecto_final.c: 380:                        showString("Ingrese 1 si desea ingresar a
      +                           modo control USART");
  2727  045A  30B0               	movlw	low (STR_1| (0+32768))
  2728  045B  00B9               	movwf	showString@var
  2729  045C  3085               	movlw	high (STR_1| (0+32768))
  2730  045D  00BA               	movwf	showString@var+1
  2731  045E  120A  158A  2535  120A  118A  	fcall	_showString
  2732  0463                     l2182:
  2733                           
  2734                           ;proyecto_final.c: 381:                        flag = 0;
  2735  0463  1283               	bcf	3,5	;RP0=0, select bank0
  2736  0464  1303               	bcf	3,6	;RP1=0, select bank0
  2737  0465  01C7               	clrf	_flag
  2738  0466  01C8               	clrf	_flag+1
  2739  0467                     l2184:
  2740                           
  2741                           ;proyecto_final.c: 391:         if (PORTBbits.RB4 == 0){
  2742  0467  1A06               	btfsc	6,4	;volatile
  2743  0468  2C6A               	goto	u2181
  2744  0469  2C6B               	goto	u2180
  2745  046A                     u2181:
  2746  046A  2C6F               	goto	l2188
  2747  046B                     u2180:
  2748  046B                     l2186:
  2749                           
  2750                           ;proyecto_final.c: 392:             RB3_old = 1;
  2751  046B  3001               	movlw	1
  2752  046C  00A4               	movwf	_RB3_old
  2753  046D  3000               	movlw	0
  2754  046E  00A5               	movwf	_RB3_old+1
  2755  046F                     l2188:
  2756                           
  2757                           ;proyecto_final.c: 395:         if(PORTBbits.RB4 == 1 && RB3_old==1){
  2758  046F  1E06               	btfss	6,4	;volatile
  2759  0470  2C72               	goto	u2191
  2760  0471  2C73               	goto	u2190
  2761  0472                     u2191:
  2762  0472  2842               	goto	l1922
  2763  0473                     u2190:
  2764  0473                     l2190:
  2765  0473  0324               	decf	_RB3_old,w
  2766  0474  0425               	iorwf	_RB3_old+1,w
  2767  0475  1D03               	btfss	3,2
  2768  0476  2C78               	goto	u2201
  2769  0477  2C79               	goto	u2200
  2770  0478                     u2201:
  2771  0478  2842               	goto	l1922
  2772  0479                     u2200:
  2773  0479                     l2192:
  2774                           
  2775                           ;proyecto_final.c: 396:             eepromVal = temporal_posicion1;
  2776  0479  0833               	movf	_temporal_posicion1,w
  2777  047A  00C0               	movwf	??_main
  2778  047B  01C1               	clrf	??_main+1
  2779  047C  0840               	movf	??_main,w
  2780  047D  00A2               	movwf	_eepromVal
  2781  047E  0841               	movf	??_main+1,w
  2782  047F  00A3               	movwf	_eepromVal+1
  2783  0480                     l2194:
  2784                           
  2785                           ;proyecto_final.c: 398:             writeToEEPROM(eepromVal,addressEEPROM);
  2786  0480  0823               	movf	_eepromVal+1,w
  2787  0481  00B6               	movwf	writeToEEPROM@data+1
  2788  0482  0822               	movf	_eepromVal,w
  2789  0483  00B5               	movwf	writeToEEPROM@data
  2790  0484  0846               	movf	_addressEEPROM+1,w
  2791  0485  00B8               	movwf	writeToEEPROM@address+1
  2792  0486  0845               	movf	_addressEEPROM,w
  2793  0487  00B7               	movwf	writeToEEPROM@address
  2794  0488  120A  118A  27E4  120A  118A  	fcall	_writeToEEPROM
  2795  048D                     l2196:
  2796                           
  2797                           ;proyecto_final.c: 401:             if(addressEEPROM == 0x17){
  2798  048D  3017               	movlw	23
  2799  048E  1283               	bcf	3,5	;RP0=0, select bank0
  2800  048F  1303               	bcf	3,6	;RP1=0, select bank0
  2801  0490  0645               	xorwf	_addressEEPROM,w
  2802  0491  0446               	iorwf	_addressEEPROM+1,w
  2803  0492  1D03               	btfss	3,2
  2804  0493  2C95               	goto	u2211
  2805  0494  2C96               	goto	u2210
  2806  0495                     u2211:
  2807  0495  2C9B               	goto	l2200
  2808  0496                     u2210:
  2809  0496                     l2198:
  2810                           
  2811                           ;proyecto_final.c: 402:                 addressEEPROM = 0x10;
  2812  0496  3010               	movlw	16
  2813  0497  00C5               	movwf	_addressEEPROM
  2814  0498  3000               	movlw	0
  2815  0499  00C6               	movwf	_addressEEPROM+1
  2816                           
  2817                           ;proyecto_final.c: 403:             }else{
  2818  049A  2CA3               	goto	l2202
  2819  049B                     l2200:
  2820                           
  2821                           ;proyecto_final.c: 404:                 addressEEPROM = addressEEPROM + 1;
  2822  049B  0845               	movf	_addressEEPROM,w
  2823  049C  3E01               	addlw	1
  2824  049D  00C5               	movwf	_addressEEPROM
  2825  049E  0846               	movf	_addressEEPROM+1,w
  2826  049F  1803               	skipnc
  2827  04A0  3E01               	addlw	1
  2828  04A1  3E00               	addlw	0
  2829  04A2  00C6               	movwf	_addressEEPROM+1
  2830  04A3                     l2202:
  2831                           
  2832                           ;proyecto_final.c: 407:             _delay((unsigned long)((10)*(8000000/4000.0)));
  2833  04A3  301A               	movlw	26
  2834  04A4  1283               	bcf	3,5	;RP0=0, select bank0
  2835  04A5  1303               	bcf	3,6	;RP1=0, select bank0
  2836  04A6  00C1               	movwf	??_main+1
  2837  04A7  30F7               	movlw	247
  2838  04A8  00C0               	movwf	??_main
  2839  04A9                     u2477:
  2840  04A9  0BC0               	decfsz	??_main,f
  2841  04AA  2CA9               	goto	u2477
  2842  04AB  0BC1               	decfsz	??_main+1,f
  2843  04AC  2CA9               	goto	u2477
  2844  04AD  2CAE               	nop2
  2845  04AE                     l2204:
  2846                           
  2847                           ;proyecto_final.c: 408:             eepromVal = temporal_posicion2;
  2848  04AE  1283               	bcf	3,5	;RP0=0, select bank0
  2849  04AF  1303               	bcf	3,6	;RP1=0, select bank0
  2850  04B0  0832               	movf	_temporal_posicion2,w
  2851  04B1  00C0               	movwf	??_main
  2852  04B2  01C1               	clrf	??_main+1
  2853  04B3  0840               	movf	??_main,w
  2854  04B4  00A2               	movwf	_eepromVal
  2855  04B5  0841               	movf	??_main+1,w
  2856  04B6  00A3               	movwf	_eepromVal+1
  2857  04B7                     l2206:
  2858                           
  2859                           ;proyecto_final.c: 410:             writeToEEPROM(eepromVal,addressEEPROM);
  2860  04B7  0823               	movf	_eepromVal+1,w
  2861  04B8  00B6               	movwf	writeToEEPROM@data+1
  2862  04B9  0822               	movf	_eepromVal,w
  2863  04BA  00B5               	movwf	writeToEEPROM@data
  2864  04BB  0846               	movf	_addressEEPROM+1,w
  2865  04BC  00B8               	movwf	writeToEEPROM@address+1
  2866  04BD  0845               	movf	_addressEEPROM,w
  2867  04BE  00B7               	movwf	writeToEEPROM@address
  2868  04BF  120A  118A  27E4  120A  118A  	fcall	_writeToEEPROM
  2869  04C4                     l2208:
  2870                           
  2871                           ;proyecto_final.c: 412:             if(addressEEPROM == 0x17){
  2872  04C4  3017               	movlw	23
  2873  04C5  1283               	bcf	3,5	;RP0=0, select bank0
  2874  04C6  1303               	bcf	3,6	;RP1=0, select bank0
  2875  04C7  0645               	xorwf	_addressEEPROM,w
  2876  04C8  0446               	iorwf	_addressEEPROM+1,w
  2877  04C9  1D03               	btfss	3,2
  2878  04CA  2CCC               	goto	u2221
  2879  04CB  2CCD               	goto	u2220
  2880  04CC                     u2221:
  2881  04CC  2CD2               	goto	l2212
  2882  04CD                     u2220:
  2883  04CD                     l2210:
  2884                           
  2885                           ;proyecto_final.c: 413:                 addressEEPROM = 0x10;
  2886  04CD  3010               	movlw	16
  2887  04CE  00C5               	movwf	_addressEEPROM
  2888  04CF  3000               	movlw	0
  2889  04D0  00C6               	movwf	_addressEEPROM+1
  2890                           
  2891                           ;proyecto_final.c: 414:             }else{
  2892  04D1  2CDA               	goto	l2214
  2893  04D2                     l2212:
  2894                           
  2895                           ;proyecto_final.c: 415:                 addressEEPROM = addressEEPROM + 1;
  2896  04D2  0845               	movf	_addressEEPROM,w
  2897  04D3  3E01               	addlw	1
  2898  04D4  00C5               	movwf	_addressEEPROM
  2899  04D5  0846               	movf	_addressEEPROM+1,w
  2900  04D6  1803               	skipnc
  2901  04D7  3E01               	addlw	1
  2902  04D8  3E00               	addlw	0
  2903  04D9  00C6               	movwf	_addressEEPROM+1
  2904  04DA                     l2214:
  2905                           
  2906                           ;proyecto_final.c: 418:             RB3_old = 0;
  2907  04DA  01A4               	clrf	_RB3_old
  2908  04DB  01A5               	clrf	_RB3_old+1
  2909  04DC  2842               	goto	l1922
  2910  04DD  120A  118A  280C   	ljmp	start
  2911  04E0                     __end_of_main:
  2912                           
  2913                           	psect	text1
  2914  07E4                     __ptext1:	
  2915 ;; *************** function _writeToEEPROM *****************
  2916 ;; Defined at:
  2917 ;;		line 467 in file "proyecto_final.c"
  2918 ;; Parameters:    Size  Location     Type
  2919 ;;  data            2    0[BANK0 ] int 
  2920 ;;  address         2    2[BANK0 ] int 
  2921 ;; Auto vars:     Size  Location     Type
  2922 ;;		None
  2923 ;; Return value:  Size  Location     Type
  2924 ;;                  1    wreg      void 
  2925 ;; Registers used:
  2926 ;;		wreg
  2927 ;; Tracked objects:
  2928 ;;		On entry : 0/0
  2929 ;;		On exit  : 0/0
  2930 ;;		Unchanged: 0/0
  2931 ;; Data sizes:     COMMON   BANK0   BANK1   BANK3   BANK2
  2932 ;;      Params:         0       4       0       0       0
  2933 ;;      Locals:         0       0       0       0       0
  2934 ;;      Temps:          0       0       0       0       0
  2935 ;;      Totals:         0       4       0       0       0
  2936 ;;Total ram usage:        4 bytes
  2937 ;; Hardware stack levels used:    1
  2938 ;; Hardware stack levels required when called:    3
  2939 ;; This function calls:
  2940 ;;		Nothing
  2941 ;; This function is called by:
  2942 ;;		_main
  2943 ;; This function uses a non-reentrant model
  2944 ;;
  2945                           
  2946                           
  2947                           ;psect for function _writeToEEPROM
  2948  07E4                     _writeToEEPROM:
  2949  07E4                     l1764:	
  2950                           ;incstack = 0
  2951                           ; Regs used in _writeToEEPROM: [wreg]
  2952                           
  2953                           
  2954                           ;proyecto_final.c: 468:     EEADR = address;
  2955  07E4  1283               	bcf	3,5	;RP0=0, select bank0
  2956  07E5  1303               	bcf	3,6	;RP1=0, select bank0
  2957  07E6  0837               	movf	writeToEEPROM@address,w
  2958  07E7  1283               	bcf	3,5	;RP0=0, select bank2
  2959  07E8  1703               	bsf	3,6	;RP1=1, select bank2
  2960  07E9  008D               	movwf	13	;volatile
  2961                           
  2962                           ;proyecto_final.c: 469:     EEDAT = data;
  2963  07EA  1283               	bcf	3,5	;RP0=0, select bank0
  2964  07EB  1303               	bcf	3,6	;RP1=0, select bank0
  2965  07EC  0835               	movf	writeToEEPROM@data,w
  2966  07ED  1283               	bcf	3,5	;RP0=0, select bank2
  2967  07EE  1703               	bsf	3,6	;RP1=1, select bank2
  2968  07EF  008C               	movwf	12	;volatile
  2969  07F0                     l1766:
  2970                           
  2971                           ;proyecto_final.c: 470:     EECON1bits.EEPGD = 0;
  2972  07F0  1683               	bsf	3,5	;RP0=1, select bank3
  2973  07F1  1703               	bsf	3,6	;RP1=1, select bank3
  2974  07F2  138C               	bcf	12,7	;volsfr
  2975  07F3                     l1768:
  2976                           
  2977                           ;proyecto_final.c: 471:     EECON1bits.WREN = 1;
  2978  07F3  150C               	bsf	12,2	;volsfr
  2979  07F4                     l1770:
  2980                           
  2981                           ;proyecto_final.c: 474:     INTCONbits.GIE = 0;
  2982  07F4  138B               	bcf	11,7	;volatile
  2983                           
  2984                           ;proyecto_final.c: 475:     EECON2 = 0x55;
  2985  07F5  3055               	movlw	85
  2986  07F6  008D               	movwf	13	;volsfr
  2987                           
  2988                           ;proyecto_final.c: 476:     EECON2 = 0xAA;
  2989  07F7  30AA               	movlw	170
  2990  07F8  008D               	movwf	13	;volsfr
  2991  07F9                     l1772:
  2992                           
  2993                           ;proyecto_final.c: 478:     EECON1bits.WR = 1;
  2994  07F9  148C               	bsf	12,1	;volsfr
  2995  07FA                     l1774:
  2996                           
  2997                           ;proyecto_final.c: 481:     EECON1bits.WREN = 0;
  2998  07FA  110C               	bcf	12,2	;volsfr
  2999  07FB                     l1776:
  3000                           
  3001                           ;proyecto_final.c: 482:     INTCONbits.GIE = 1;
  3002  07FB  178B               	bsf	11,7	;volatile
  3003  07FC                     l232:
  3004  07FC  0008               	return
  3005  07FD                     __end_of_writeToEEPROM:
  3006                           
  3007                           	psect	text2
  3008  0D35                     __ptext2:	
  3009 ;; *************** function _showString *****************
  3010 ;; Defined at:
  3011 ;;		line 758 in file "proyecto_final.c"
  3012 ;; Parameters:    Size  Location     Type
  3013 ;;  var             2    4[BANK0 ] PTR unsigned char 
  3014 ;;		 -> STR_18(49), STR_17(32), STR_16(69), STR_15(42), 
  3015 ;;		 -> STR_14(52), STR_13(55), STR_12(45), STR_11(39), 
  3016 ;;		 -> STR_10(45), STR_9(38), STR_8(30), STR_7(25), 
  3017 ;;		 -> STR_6(18), STR_5(19), STR_4(19), STR_3(27), 
  3018 ;;		 -> STR_2(30), STR_1(49), 
  3019 ;; Auto vars:     Size  Location     Type
  3020 ;;  i               2    9[BANK0 ] int 
  3021 ;; Return value:  Size  Location     Type
  3022 ;;                  1    wreg      void 
  3023 ;; Registers used:
  3024 ;;		wreg, fsr0l, fsr0h, status,2, status,0, btemp+1, pclath, cstack
  3025 ;; Tracked objects:
  3026 ;;		On entry : 0/0
  3027 ;;		On exit  : 0/0
  3028 ;;		Unchanged: 0/0
  3029 ;; Data sizes:     COMMON   BANK0   BANK1   BANK3   BANK2
  3030 ;;      Params:         0       2       0       0       0
  3031 ;;      Locals:         0       2       0       0       0
  3032 ;;      Temps:          0       3       0       0       0
  3033 ;;      Totals:         0       7       0       0       0
  3034 ;;Total ram usage:        7 bytes
  3035 ;; Hardware stack levels used:    1
  3036 ;; Hardware stack levels required when called:    4
  3037 ;; This function calls:
  3038 ;;		_strlen
  3039 ;; This function is called by:
  3040 ;;		_main
  3041 ;; This function uses a non-reentrant model
  3042 ;;
  3043                           
  3044                           
  3045                           ;psect for function _showString
  3046  0D35                     _showString:
  3047  0D35                     l1674:	
  3048                           ;incstack = 0
  3049                           ; Regs used in _showString: [wreg-fsr0h+status,2+status,0+btemp+1+pclath+cstack]
  3050                           
  3051                           
  3052                           ;proyecto_final.c: 759:     int i;;proyecto_final.c: 761:     for (i = 0; i < strlen(var
      +                          ); i++) {
  3053  0D35  1283               	bcf	3,5	;RP0=0, select bank0
  3054  0D36  1303               	bcf	3,6	;RP1=0, select bank0
  3055  0D37  01BE               	clrf	showString@i
  3056  0D38  01BF               	clrf	showString@i+1
  3057  0D39  2D64               	goto	l1682
  3058  0D3A                     l1676:
  3059                           
  3060                           ;proyecto_final.c: 762:         TXREG = var[i];
  3061  0D3A  083E               	movf	showString@i,w
  3062  0D3B  0739               	addwf	showString@var,w
  3063  0D3C  00BC               	movwf	??_showString+1
  3064  0D3D  083A               	movf	showString@var+1,w
  3065  0D3E  00BB               	movwf	??_showString
  3066  0D3F  1803               	skipnc
  3067  0D40  0ABB               	incf	??_showString,f
  3068  0D41  1FBE               	btfss	showString@i,7
  3069  0D42  2D44               	goto	u1200
  3070  0D43  03BB               	decf	??_showString,f
  3071  0D44                     u1200:
  3072  0D44  1283               	bcf	3,5	;RP0=0, select bank0
  3073  0D45  1303               	bcf	3,6	;RP1=0, select bank0
  3074  0D46  083B               	movf	??_showString,w
  3075  0D47  00BD               	movwf	??_showString+2
  3076  0D48  083D               	movf	??_showString+2,w
  3077  0D49  00FF               	movwf	btemp+1
  3078  0D4A  083C               	movf	??_showString+1,w
  3079  0D4B  0084               	movwf	4
  3080  0D4C  120A  158A  2000  120A  158A  	fcall	stringtab
  3081  0D51  0099               	movwf	25	;volatile
  3082  0D52                     l1678:
  3083                           
  3084                           ;proyecto_final.c: 763:         _delay((unsigned long)((5)*(8000000/4000.0)));
  3085  0D52  300D               	movlw	13
  3086  0D53  1283               	bcf	3,5	;RP0=0, select bank0
  3087  0D54  1303               	bcf	3,6	;RP1=0, select bank0
  3088  0D55  00BC               	movwf	??_showString+1
  3089  0D56  30FB               	movlw	251
  3090  0D57  00BB               	movwf	??_showString
  3091  0D58                     u2487:
  3092  0D58  0BBB               	decfsz	??_showString,f
  3093  0D59  2D58               	goto	u2487
  3094  0D5A  0BBC               	decfsz	??_showString+1,f
  3095  0D5B  2D58               	goto	u2487
  3096  0D5C                     l1680:
  3097                           
  3098                           ;proyecto_final.c: 764:     }
  3099  0D5C  3001               	movlw	1
  3100  0D5D  1283               	bcf	3,5	;RP0=0, select bank0
  3101  0D5E  1303               	bcf	3,6	;RP1=0, select bank0
  3102  0D5F  07BE               	addwf	showString@i,f
  3103  0D60  1803               	skipnc
  3104  0D61  0ABF               	incf	showString@i+1,f
  3105  0D62  3000               	movlw	0
  3106  0D63  07BF               	addwf	showString@i+1,f
  3107  0D64                     l1682:
  3108  0D64  0839               	movf	showString@var,w
  3109  0D65  00B5               	movwf	strlen@s
  3110  0D66  083A               	movf	showString@var+1,w
  3111  0D67  00B6               	movwf	strlen@s+1
  3112  0D68  120A  158A  24EA  120A  158A  	fcall	_strlen
  3113  0D6D  1283               	bcf	3,5	;RP0=0, select bank0
  3114  0D6E  1303               	bcf	3,6	;RP1=0, select bank0
  3115  0D6F  0836               	movf	?_strlen+1,w
  3116  0D70  023F               	subwf	showString@i+1,w
  3117  0D71  1D03               	skipz
  3118  0D72  2D75               	goto	u1215
  3119  0D73  0835               	movf	?_strlen,w
  3120  0D74  023E               	subwf	showString@i,w
  3121  0D75                     u1215:
  3122  0D75  1C03               	skipc
  3123  0D76  2D78               	goto	u1211
  3124  0D77  2D79               	goto	u1210
  3125  0D78                     u1211:
  3126  0D78  2D3A               	goto	l1676
  3127  0D79                     u1210:
  3128  0D79                     l1684:
  3129                           
  3130                           ;proyecto_final.c: 766:     TXREG = 13;
  3131  0D79  300D               	movlw	13
  3132  0D7A  0099               	movwf	25	;volatile
  3133                           
  3134                           ;proyecto_final.c: 767:     _delay((unsigned long)((5)*(8000000/4000.0)));
  3135  0D7B  300D               	movlw	13
  3136  0D7C  1283               	bcf	3,5	;RP0=0, select bank0
  3137  0D7D  1303               	bcf	3,6	;RP1=0, select bank0
  3138  0D7E  00BC               	movwf	??_showString+1
  3139  0D7F  30FB               	movlw	251
  3140  0D80  00BB               	movwf	??_showString
  3141  0D81                     u2497:
  3142  0D81  0BBB               	decfsz	??_showString,f
  3143  0D82  2D81               	goto	u2497
  3144  0D83  0BBC               	decfsz	??_showString+1,f
  3145  0D84  2D81               	goto	u2497
  3146                           
  3147                           ;proyecto_final.c: 768:     TXREG = 11;
  3148  0D85  300B               	movlw	11
  3149  0D86  1283               	bcf	3,5	;RP0=0, select bank0
  3150  0D87  1303               	bcf	3,6	;RP1=0, select bank0
  3151  0D88  0099               	movwf	25	;volatile
  3152  0D89                     l286:
  3153  0D89  0008               	return
  3154  0D8A                     __end_of_showString:
  3155                           
  3156                           	psect	text3
  3157  0CEA                     __ptext3:	
  3158 ;; *************** function _strlen *****************
  3159 ;; Defined at:
  3160 ;;		line 4 in file "C:\Program Files\Microchip\xc8\v2.31\pic\sources\c90\common\strlen.c"
  3161 ;; Parameters:    Size  Location     Type
  3162 ;;  s               2    0[BANK0 ] PTR const unsigned char 
  3163 ;;		 -> STR_18(49), STR_17(32), STR_16(69), STR_15(42), 
  3164 ;;		 -> STR_14(52), STR_13(55), STR_12(45), STR_11(39), 
  3165 ;;		 -> STR_10(45), STR_9(38), STR_8(30), STR_7(25), 
  3166 ;;		 -> STR_6(18), STR_5(19), STR_4(19), STR_3(27), 
  3167 ;;		 -> STR_2(30), STR_1(49), 
  3168 ;; Auto vars:     Size  Location     Type
  3169 ;;  cp              2    2[BANK0 ] PTR const unsigned char 
  3170 ;;		 -> STR_18(49), STR_17(32), STR_16(69), STR_15(42), 
  3171 ;;		 -> STR_14(52), STR_13(55), STR_12(45), STR_11(39), 
  3172 ;;		 -> STR_10(45), STR_9(38), STR_8(30), STR_7(25), 
  3173 ;;		 -> STR_6(18), STR_5(19), STR_4(19), STR_3(27), 
  3174 ;;		 -> STR_2(30), STR_1(49), 
  3175 ;; Return value:  Size  Location     Type
  3176 ;;                  2    0[BANK0 ] unsigned int 
  3177 ;; Registers used:
  3178 ;;		wreg, fsr0l, fsr0h, status,2, status,0, btemp+1, pclath
  3179 ;; Tracked objects:
  3180 ;;		On entry : 0/0
  3181 ;;		On exit  : 0/0
  3182 ;;		Unchanged: 0/0
  3183 ;; Data sizes:     COMMON   BANK0   BANK1   BANK3   BANK2
  3184 ;;      Params:         0       2       0       0       0
  3185 ;;      Locals:         0       2       0       0       0
  3186 ;;      Temps:          0       0       0       0       0
  3187 ;;      Totals:         0       4       0       0       0
  3188 ;;Total ram usage:        4 bytes
  3189 ;; Hardware stack levels used:    1
  3190 ;; Hardware stack levels required when called:    3
  3191 ;; This function calls:
  3192 ;;		Nothing
  3193 ;; This function is called by:
  3194 ;;		_showString
  3195 ;; This function uses a non-reentrant model
  3196 ;;
  3197                           
  3198                           
  3199                           ;psect for function _strlen
  3200  0CEA                     _strlen:
  3201  0CEA                     l1656:	
  3202                           ;incstack = 0
  3203                           ; Regs used in _strlen: [wreg-fsr0h+status,2+status,0+btemp+1+pclath]
  3204                           
  3205  0CEA  1283               	bcf	3,5	;RP0=0, select bank0
  3206  0CEB  1303               	bcf	3,6	;RP1=0, select bank0
  3207  0CEC  0835               	movf	strlen@s,w
  3208  0CED  00B7               	movwf	strlen@cp
  3209  0CEE  0836               	movf	strlen@s+1,w
  3210  0CEF  00B8               	movwf	strlen@cp+1
  3211  0CF0  2CF7               	goto	l1660
  3212  0CF1                     l1658:
  3213  0CF1  3001               	movlw	1
  3214  0CF2  07B7               	addwf	strlen@cp,f
  3215  0CF3  1803               	skipnc
  3216  0CF4  0AB8               	incf	strlen@cp+1,f
  3217  0CF5  3000               	movlw	0
  3218  0CF6  07B8               	addwf	strlen@cp+1,f
  3219  0CF7                     l1660:
  3220  0CF7  0838               	movf	strlen@cp+1,w
  3221  0CF8  00FF               	movwf	btemp+1
  3222  0CF9  0837               	movf	strlen@cp,w
  3223  0CFA  0084               	movwf	4
  3224  0CFB  120A  158A  2000  120A  158A  	fcall	stringtab
  3225  0D00  3A00               	xorlw	0
  3226  0D01  1D03               	skipz
  3227  0D02  2D04               	goto	u1191
  3228  0D03  2D05               	goto	u1190
  3229  0D04                     u1191:
  3230  0D04  2CF1               	goto	l1658
  3231  0D05                     u1190:
  3232  0D05                     l1662:
  3233  0D05  0835               	movf	strlen@s,w
  3234  0D06  0237               	subwf	strlen@cp,w
  3235  0D07  00B5               	movwf	?_strlen
  3236  0D08  0836               	movf	strlen@s+1,w
  3237  0D09  1C03               	skipc
  3238  0D0A  0A36               	incf	strlen@s+1,w
  3239  0D0B  0238               	subwf	strlen@cp+1,w
  3240  0D0C  00B6               	movwf	?_strlen+1
  3241  0D0D                     l826:
  3242  0D0D  0008               	return
  3243  0D0E                     __end_of_strlen:
  3244                           
  3245                           	psect	text4
  3246  0CD5                     __ptext4:	
  3247 ;; *************** function _setup *****************
  3248 ;; Defined at:
  3249 ;;		line 455 in file "proyecto_final.c"
  3250 ;; Parameters:    Size  Location     Type
  3251 ;;		None
  3252 ;; Auto vars:     Size  Location     Type
  3253 ;;		None
  3254 ;; Return value:  Size  Location     Type
  3255 ;;                  1    wreg      void 
  3256 ;; Registers used:
  3257 ;;		wreg, status,2, status,0, pclath, cstack
  3258 ;; Tracked objects:
  3259 ;;		On entry : 0/0
  3260 ;;		On exit  : 0/0
  3261 ;;		Unchanged: 0/0
  3262 ;; Data sizes:     COMMON   BANK0   BANK1   BANK3   BANK2
  3263 ;;      Params:         0       0       0       0       0
  3264 ;;      Locals:         0       0       0       0       0
  3265 ;;      Temps:          0       0       0       0       0
  3266 ;;      Totals:         0       0       0       0       0
  3267 ;;Total ram usage:        0 bytes
  3268 ;; Hardware stack levels used:    1
  3269 ;; Hardware stack levels required when called:    4
  3270 ;; This function calls:
  3271 ;;		_config_int_enable
  3272 ;;		_config_io
  3273 ;;		_config_iocb
  3274 ;;		_config_reloj
  3275 ;; This function is called by:
  3276 ;;		_main
  3277 ;; This function uses a non-reentrant model
  3278 ;;
  3279                           
  3280                           
  3281                           ;psect for function _setup
  3282  0CD5                     _setup:
  3283  0CD5                     l1666:	
  3284                           ;incstack = 0
  3285                           ; Regs used in _setup: [wreg+status,2+status,0+pclath+cstack]
  3286                           
  3287                           
  3288                           ;proyecto_final.c: 457:     config_reloj();
  3289  0CD5  120A  158A  24BD  120A  158A  	fcall	_config_reloj
  3290  0CDA                     l1668:
  3291                           
  3292                           ;proyecto_final.c: 458:     config_io();
  3293  0CDA  120A  158A  25F3  120A  158A  	fcall	_config_io
  3294  0CDF                     l1670:
  3295                           
  3296                           ;proyecto_final.c: 459:     config_int_enable();
  3297  0CDF  120A  158A  24C4  120A  158A  	fcall	_config_int_enable
  3298                           
  3299                           ;proyecto_final.c: 460:     config_iocb();
  3300  0CE4  120A  158A  24B7  120A  158A  	fcall	_config_iocb
  3301  0CE9                     l229:
  3302  0CE9  0008               	return
  3303  0CEA                     __end_of_setup:
  3304                           
  3305                           	psect	text5
  3306  0CBD                     __ptext5:	
  3307 ;; *************** function _config_reloj *****************
  3308 ;; Defined at:
  3309 ;;		line 641 in file "proyecto_final.c"
  3310 ;; Parameters:    Size  Location     Type
  3311 ;;		None
  3312 ;; Auto vars:     Size  Location     Type
  3313 ;;		None
  3314 ;; Return value:  Size  Location     Type
  3315 ;;                  1    wreg      void 
  3316 ;; Registers used:
  3317 ;;		None
  3318 ;; Tracked objects:
  3319 ;;		On entry : 0/0
  3320 ;;		On exit  : 0/0
  3321 ;;		Unchanged: 0/0
  3322 ;; Data sizes:     COMMON   BANK0   BANK1   BANK3   BANK2
  3323 ;;      Params:         0       0       0       0       0
  3324 ;;      Locals:         0       0       0       0       0
  3325 ;;      Temps:          0       0       0       0       0
  3326 ;;      Totals:         0       0       0       0       0
  3327 ;;Total ram usage:        0 bytes
  3328 ;; Hardware stack levels used:    1
  3329 ;; Hardware stack levels required when called:    3
  3330 ;; This function calls:
  3331 ;;		Nothing
  3332 ;; This function is called by:
  3333 ;;		_setup
  3334 ;; This function uses a non-reentrant model
  3335 ;;
  3336                           
  3337                           
  3338                           ;psect for function _config_reloj
  3339  0CBD                     _config_reloj:
  3340  0CBD                     l1568:	
  3341                           ;incstack = 0
  3342                           ; Regs used in _config_reloj: []
  3343                           
  3344                           
  3345                           ;proyecto_final.c: 643:     OSCCONbits.IRCF2 =1 ;
  3346  0CBD  1683               	bsf	3,5	;RP0=1, select bank1
  3347  0CBE  1303               	bcf	3,6	;RP1=0, select bank1
  3348  0CBF  170F               	bsf	15,6	;volatile
  3349                           
  3350                           ;proyecto_final.c: 644:     OSCCONbits.IRCF1 =1 ;
  3351  0CC0  168F               	bsf	15,5	;volatile
  3352                           
  3353                           ;proyecto_final.c: 645:     OSCCONbits.IRCF0 =1 ;
  3354  0CC1  160F               	bsf	15,4	;volatile
  3355                           
  3356                           ;proyecto_final.c: 646:     OSCCONbits.SCS = 1;
  3357  0CC2  140F               	bsf	15,0	;volatile
  3358  0CC3                     l268:	
  3359                           ;proyecto_final.c: 648:     return;
  3360                           
  3361  0CC3  0008               	return
  3362  0CC4                     __end_of_config_reloj:
  3363                           
  3364                           	psect	text6
  3365  0CB7                     __ptext6:	
  3366 ;; *************** function _config_iocb *****************
  3367 ;; Defined at:
  3368 ;;		line 748 in file "proyecto_final.c"
  3369 ;; Parameters:    Size  Location     Type
  3370 ;;		None
  3371 ;; Auto vars:     Size  Location     Type
  3372 ;;		None
  3373 ;; Return value:  Size  Location     Type
  3374 ;;                  1    wreg      void 
  3375 ;; Registers used:
  3376 ;;		wreg
  3377 ;; Tracked objects:
  3378 ;;		On entry : 0/0
  3379 ;;		On exit  : 0/0
  3380 ;;		Unchanged: 0/0
  3381 ;; Data sizes:     COMMON   BANK0   BANK1   BANK3   BANK2
  3382 ;;      Params:         0       0       0       0       0
  3383 ;;      Locals:         0       0       0       0       0
  3384 ;;      Temps:          0       0       0       0       0
  3385 ;;      Totals:         0       0       0       0       0
  3386 ;;Total ram usage:        0 bytes
  3387 ;; Hardware stack levels used:    1
  3388 ;; Hardware stack levels required when called:    3
  3389 ;; This function calls:
  3390 ;;		Nothing
  3391 ;; This function is called by:
  3392 ;;		_setup
  3393 ;; This function uses a non-reentrant model
  3394 ;;
  3395                           
  3396                           
  3397                           ;psect for function _config_iocb
  3398  0CB7                     _config_iocb:
  3399  0CB7                     l1642:	
  3400                           ;incstack = 0
  3401                           ; Regs used in _config_iocb: [wreg]
  3402                           
  3403                           
  3404                           ;proyecto_final.c: 750:     IOCB = 0xFF;
  3405  0CB7  30FF               	movlw	255
  3406  0CB8  1683               	bsf	3,5	;RP0=1, select bank1
  3407  0CB9  1303               	bcf	3,6	;RP1=0, select bank1
  3408  0CBA  0096               	movwf	22	;volatile
  3409  0CBB                     l1644:
  3410                           
  3411                           ;proyecto_final.c: 752:     INTCONbits.RBIF = 0;
  3412  0CBB  100B               	bcf	11,0	;volatile
  3413  0CBC                     l280:
  3414  0CBC  0008               	return
  3415  0CBD                     __end_of_config_iocb:
  3416                           
  3417                           	psect	text7
  3418  0DF3                     __ptext7:	
  3419 ;; *************** function _config_io *****************
  3420 ;; Defined at:
  3421 ;;		line 651 in file "proyecto_final.c"
  3422 ;; Parameters:    Size  Location     Type
  3423 ;;		None
  3424 ;; Auto vars:     Size  Location     Type
  3425 ;;		None
  3426 ;; Return value:  Size  Location     Type
  3427 ;;                  1    wreg      void 
  3428 ;; Registers used:
  3429 ;;		wreg, status,2, status,0
  3430 ;; Tracked objects:
  3431 ;;		On entry : 0/0
  3432 ;;		On exit  : 0/0
  3433 ;;		Unchanged: 0/0
  3434 ;; Data sizes:     COMMON   BANK0   BANK1   BANK3   BANK2
  3435 ;;      Params:         0       0       0       0       0
  3436 ;;      Locals:         0       0       0       0       0
  3437 ;;      Temps:          0       1       0       0       0
  3438 ;;      Totals:         0       1       0       0       0
  3439 ;;Total ram usage:        1 bytes
  3440 ;; Hardware stack levels used:    1
  3441 ;; Hardware stack levels required when called:    3
  3442 ;; This function calls:
  3443 ;;		Nothing
  3444 ;; This function is called by:
  3445 ;;		_setup
  3446 ;; This function uses a non-reentrant model
  3447 ;;
  3448                           
  3449                           
  3450                           ;psect for function _config_io
  3451  0DF3                     _config_io:
  3452  0DF3                     l1570:	
  3453                           ;incstack = 0
  3454                           ; Regs used in _config_io: [wreg+status,2+status,0]
  3455                           
  3456                           
  3457                           ;proyecto_final.c: 654:     ANSELH = 0x00;
  3458  0DF3  1683               	bsf	3,5	;RP0=1, select bank3
  3459  0DF4  1703               	bsf	3,6	;RP1=1, select bank3
  3460  0DF5  0189               	clrf	9	;volatile
  3461  0DF6                     l1572:
  3462                           
  3463                           ;proyecto_final.c: 655:     ANSEL = 0xE0;
  3464  0DF6  30E0               	movlw	224
  3465  0DF7  0088               	movwf	8	;volatile
  3466  0DF8                     l1574:
  3467                           
  3468                           ;proyecto_final.c: 657:     TRISB = 0xFF;
  3469  0DF8  30FF               	movlw	255
  3470  0DF9  1683               	bsf	3,5	;RP0=1, select bank1
  3471  0DFA  1303               	bcf	3,6	;RP1=0, select bank1
  3472  0DFB  0086               	movwf	6	;volatile
  3473                           
  3474                           ;proyecto_final.c: 658:     TRISA = 0x00;
  3475  0DFC  0185               	clrf	5	;volatile
  3476  0DFD                     l1576:
  3477                           
  3478                           ;proyecto_final.c: 660:     TRISE = 0x07;
  3479  0DFD  3007               	movlw	7
  3480  0DFE  0089               	movwf	9	;volatile
  3481  0DFF                     l1578:
  3482                           
  3483                           ;proyecto_final.c: 661:     TRISD = 0x00;
  3484  0DFF  0188               	clrf	8	;volatile
  3485                           
  3486                           ;proyecto_final.c: 662:     TRISC = 0xB9;
  3487  0E00  30B9               	movlw	185
  3488  0E01  0087               	movwf	7	;volatile
  3489  0E02                     l1580:
  3490                           
  3491                           ;proyecto_final.c: 664:     OPTION_REGbits.nRBPU = 0 ;
  3492  0E02  1381               	bcf	1,7	;volatile
  3493                           
  3494                           ;proyecto_final.c: 665:     WPUB = 0xFF;
  3495  0E03  30FF               	movlw	255
  3496  0E04  0095               	movwf	21	;volatile
  3497  0E05                     l1582:
  3498                           
  3499                           ;proyecto_final.c: 667:     PORTA = 0x00;
  3500  0E05  1283               	bcf	3,5	;RP0=0, select bank0
  3501  0E06  1303               	bcf	3,6	;RP1=0, select bank0
  3502  0E07  0185               	clrf	5	;volatile
  3503  0E08                     l1584:
  3504                           
  3505                           ;proyecto_final.c: 668:     PORTB = 0xFF;
  3506  0E08  30FF               	movlw	255
  3507  0E09  0086               	movwf	6	;volatile
  3508                           
  3509                           ;proyecto_final.c: 670:     PORTE = 0x00;
  3510  0E0A  0189               	clrf	9	;volatile
  3511                           
  3512                           ;proyecto_final.c: 671:     PORTD = 0x00;
  3513  0E0B  0188               	clrf	8	;volatile
  3514                           
  3515                           ;proyecto_final.c: 672:     PORTC = 0x00;
  3516  0E0C  0187               	clrf	7	;volatile
  3517  0E0D                     l1586:
  3518                           
  3519                           ;proyecto_final.c: 677:     ADCON1bits.ADFM = 0;
  3520  0E0D  1683               	bsf	3,5	;RP0=1, select bank1
  3521  0E0E  1303               	bcf	3,6	;RP1=0, select bank1
  3522  0E0F  139F               	bcf	31,7	;volatile
  3523  0E10                     l1588:
  3524                           
  3525                           ;proyecto_final.c: 678:     ADCON1bits.VCFG0 = 0;
  3526  0E10  121F               	bcf	31,4	;volatile
  3527  0E11                     l1590:
  3528                           
  3529                           ;proyecto_final.c: 679:     ADCON1bits.VCFG1 = 0;
  3530  0E11  129F               	bcf	31,5	;volatile
  3531  0E12                     l1592:
  3532                           
  3533                           ;proyecto_final.c: 681:     ADCON0bits.ADCS = 0b10;
  3534  0E12  1283               	bcf	3,5	;RP0=0, select bank0
  3535  0E13  1303               	bcf	3,6	;RP1=0, select bank0
  3536  0E14  081F               	movf	31,w	;volatile
  3537  0E15  393F               	andlw	-193
  3538  0E16  3880               	iorlw	128
  3539  0E17  009F               	movwf	31	;volatile
  3540  0E18                     l1594:
  3541                           
  3542                           ;proyecto_final.c: 682:     ADCON0bits.CHS = 5;
  3543  0E18  081F               	movf	31,w	;volatile
  3544  0E19  39C3               	andlw	-61
  3545  0E1A  3814               	iorlw	20
  3546  0E1B  009F               	movwf	31	;volatile
  3547  0E1C                     l1596:
  3548                           
  3549                           ;proyecto_final.c: 683:     _delay((unsigned long)((50)*(8000000/4000000.0)));
  3550  0E1C  3020               	movlw	32
  3551  0E1D  1283               	bcf	3,5	;RP0=0, select bank0
  3552  0E1E  1303               	bcf	3,6	;RP1=0, select bank0
  3553  0E1F  00B5               	movwf	??_config_io
  3554  0E20                     u2507:
  3555  0E20  0BB5               	decfsz	??_config_io,f
  3556  0E21  2E20               	goto	u2507
  3557  0E22  0000               	nop
  3558  0E23                     l1598:
  3559                           
  3560                           ;proyecto_final.c: 684:     ADCON0bits.ADON = 1;
  3561  0E23  1283               	bcf	3,5	;RP0=0, select bank0
  3562  0E24  1303               	bcf	3,6	;RP1=0, select bank0
  3563  0E25  141F               	bsf	31,0	;volatile
  3564  0E26                     l1600:
  3565                           
  3566                           ;proyecto_final.c: 687:     PR2 = 250;
  3567  0E26  30FA               	movlw	250
  3568  0E27  1683               	bsf	3,5	;RP0=1, select bank1
  3569  0E28  1303               	bcf	3,6	;RP1=0, select bank1
  3570  0E29  0092               	movwf	18	;volatile
  3571  0E2A                     l1602:
  3572                           
  3573                           ;proyecto_final.c: 688:     CCP1CONbits.P1M = 0;
  3574  0E2A  303F               	movlw	-193
  3575  0E2B  1283               	bcf	3,5	;RP0=0, select bank0
  3576  0E2C  1303               	bcf	3,6	;RP1=0, select bank0
  3577  0E2D  0597               	andwf	23,f	;volatile
  3578  0E2E                     l1604:
  3579                           
  3580                           ;proyecto_final.c: 689:     CCP1CONbits.CCP1M = 0b00001100;
  3581  0E2E  0817               	movf	23,w	;volatile
  3582  0E2F  39F0               	andlw	-16
  3583  0E30  380C               	iorlw	12
  3584  0E31  0097               	movwf	23	;volatile
  3585  0E32                     l1606:
  3586                           
  3587                           ;proyecto_final.c: 690:     CCP2CONbits.CCP2M = 0b00001100;
  3588  0E32  081D               	movf	29,w	;volatile
  3589  0E33  39F0               	andlw	-16
  3590  0E34  380C               	iorlw	12
  3591  0E35  009D               	movwf	29	;volatile
  3592  0E36                     l1608:
  3593                           
  3594                           ;proyecto_final.c: 692:     CCPR1L = 0x0F;
  3595  0E36  300F               	movlw	15
  3596  0E37  0095               	movwf	21	;volatile
  3597  0E38                     l1610:
  3598                           
  3599                           ;proyecto_final.c: 693:     CCPR2L = 0x0F;
  3600  0E38  300F               	movlw	15
  3601  0E39  009B               	movwf	27	;volatile
  3602  0E3A                     l1612:
  3603                           
  3604                           ;proyecto_final.c: 694:     CCP1CONbits.DC1B = 0;
  3605  0E3A  30CF               	movlw	-49
  3606  0E3B  0597               	andwf	23,f	;volatile
  3607  0E3C                     l1614:
  3608                           
  3609                           ;proyecto_final.c: 695:     CCP2CONbits.DC2B1 = 0;
  3610  0E3C  129D               	bcf	29,5	;volatile
  3611  0E3D                     l1616:
  3612                           
  3613                           ;proyecto_final.c: 696:     CCP2CONbits.DC2B0 = 0;
  3614  0E3D  121D               	bcf	29,4	;volatile
  3615  0E3E                     l1618:
  3616                           
  3617                           ;proyecto_final.c: 698:     PIR1bits.TMR2IF = 0;
  3618  0E3E  108C               	bcf	12,1	;volatile
  3619  0E3F                     l1620:
  3620                           
  3621                           ;proyecto_final.c: 699:     T2CONbits.T2CKPS1 = 1;
  3622  0E3F  1492               	bsf	18,1	;volatile
  3623  0E40                     l1622:
  3624                           
  3625                           ;proyecto_final.c: 700:     T2CONbits.T2CKPS0 = 1;
  3626  0E40  1412               	bsf	18,0	;volatile
  3627  0E41                     l1624:
  3628                           
  3629                           ;proyecto_final.c: 701:     T2CONbits.TMR2ON = 1;
  3630  0E41  1512               	bsf	18,2	;volatile
  3631  0E42                     l271:	
  3632                           ;proyecto_final.c: 703:     while (!PIR1bits.TMR2IF);
  3633                           
  3634  0E42  1C8C               	btfss	12,1	;volatile
  3635  0E43  2E45               	goto	u1181
  3636  0E44  2E46               	goto	u1180
  3637  0E45                     u1181:
  3638  0E45  2E42               	goto	l271
  3639  0E46                     u1180:
  3640  0E46                     l273:
  3641                           
  3642                           ;proyecto_final.c: 704:     PIR1bits.TMR2IF = 0;
  3643  0E46  108C               	bcf	12,1	;volatile
  3644                           
  3645                           ;proyecto_final.c: 710:     TXSTAbits.SYNC = 0;
  3646  0E47  1683               	bsf	3,5	;RP0=1, select bank1
  3647  0E48  1303               	bcf	3,6	;RP1=0, select bank1
  3648  0E49  1218               	bcf	24,4	;volatile
  3649                           
  3650                           ;proyecto_final.c: 711:     TXSTAbits.BRGH = 1;
  3651  0E4A  1518               	bsf	24,2	;volatile
  3652                           
  3653                           ;proyecto_final.c: 713:     BAUDCTLbits.BRG16 = 1;
  3654  0E4B  1683               	bsf	3,5	;RP0=1, select bank3
  3655  0E4C  1703               	bsf	3,6	;RP1=1, select bank3
  3656  0E4D  1587               	bsf	7,3	;volatile
  3657  0E4E                     l1626:
  3658                           
  3659                           ;proyecto_final.c: 715:     SPBRG = 207;
  3660  0E4E  30CF               	movlw	207
  3661  0E4F  1683               	bsf	3,5	;RP0=1, select bank1
  3662  0E50  1303               	bcf	3,6	;RP1=0, select bank1
  3663  0E51  0099               	movwf	25	;volatile
  3664  0E52                     l1628:
  3665                           
  3666                           ;proyecto_final.c: 716:     SPBRGH = 0;
  3667  0E52  019A               	clrf	26	;volatile
  3668  0E53                     l1630:
  3669                           
  3670                           ;proyecto_final.c: 718:     RCSTAbits.SPEN = 1;
  3671  0E53  1283               	bcf	3,5	;RP0=0, select bank0
  3672  0E54  1303               	bcf	3,6	;RP1=0, select bank0
  3673  0E55  1798               	bsf	24,7	;volatile
  3674  0E56                     l1632:
  3675                           
  3676                           ;proyecto_final.c: 719:     RCSTAbits.RX9 = 0;
  3677  0E56  1318               	bcf	24,6	;volatile
  3678  0E57                     l1634:
  3679                           
  3680                           ;proyecto_final.c: 720:     RCSTAbits.CREN = 1;
  3681  0E57  1618               	bsf	24,4	;volatile
  3682  0E58                     l1636:
  3683                           
  3684                           ;proyecto_final.c: 722:     TXSTAbits.TXEN = 1;
  3685  0E58  1683               	bsf	3,5	;RP0=1, select bank1
  3686  0E59  1303               	bcf	3,6	;RP1=0, select bank1
  3687  0E5A  1698               	bsf	24,5	;volatile
  3688  0E5B                     l274:
  3689  0E5B  0008               	return
  3690  0E5C                     __end_of_config_io:
  3691                           
  3692                           	psect	text8
  3693  0CC4                     __ptext8:	
  3694 ;; *************** function _config_int_enable *****************
  3695 ;; Defined at:
  3696 ;;		line 729 in file "proyecto_final.c"
  3697 ;; Parameters:    Size  Location     Type
  3698 ;;		None
  3699 ;; Auto vars:     Size  Location     Type
  3700 ;;		None
  3701 ;; Return value:  Size  Location     Type
  3702 ;;                  1    wreg      void 
  3703 ;; Registers used:
  3704 ;;		None
  3705 ;; Tracked objects:
  3706 ;;		On entry : 0/0
  3707 ;;		On exit  : 0/0
  3708 ;;		Unchanged: 0/0
  3709 ;; Data sizes:     COMMON   BANK0   BANK1   BANK3   BANK2
  3710 ;;      Params:         0       0       0       0       0
  3711 ;;      Locals:         0       0       0       0       0
  3712 ;;      Temps:          0       0       0       0       0
  3713 ;;      Totals:         0       0       0       0       0
  3714 ;;Total ram usage:        0 bytes
  3715 ;; Hardware stack levels used:    1
  3716 ;; Hardware stack levels required when called:    3
  3717 ;; This function calls:
  3718 ;;		Nothing
  3719 ;; This function is called by:
  3720 ;;		_setup
  3721 ;; This function uses a non-reentrant model
  3722 ;;
  3723                           
  3724                           
  3725                           ;psect for function _config_int_enable
  3726  0CC4                     _config_int_enable:
  3727  0CC4                     l1640:	
  3728                           ;incstack = 0
  3729                           ; Regs used in _config_int_enable: []
  3730                           
  3731                           
  3732                           ;proyecto_final.c: 731:     INTCONbits.GIE = 1;
  3733  0CC4  178B               	bsf	11,7	;volatile
  3734                           
  3735                           ;proyecto_final.c: 733:     INTCONbits.RBIE = 1;
  3736  0CC5  158B               	bsf	11,3	;volatile
  3737                           
  3738                           ;proyecto_final.c: 734:     INTCONbits.RBIF = 0;
  3739  0CC6  100B               	bcf	11,0	;volatile
  3740                           
  3741                           ;proyecto_final.c: 736:     INTCONbits.PEIE = 1;
  3742  0CC7  170B               	bsf	11,6	;volatile
  3743                           
  3744                           ;proyecto_final.c: 737:     PIE1bits.ADIE = 1;
  3745  0CC8  1683               	bsf	3,5	;RP0=1, select bank1
  3746  0CC9  1303               	bcf	3,6	;RP1=0, select bank1
  3747  0CCA  170C               	bsf	12,6	;volatile
  3748                           
  3749                           ;proyecto_final.c: 738:     PIR1bits.ADIF = 0;
  3750  0CCB  1283               	bcf	3,5	;RP0=0, select bank0
  3751  0CCC  1303               	bcf	3,6	;RP1=0, select bank0
  3752  0CCD  130C               	bcf	12,6	;volatile
  3753                           
  3754                           ;proyecto_final.c: 741:     PIE1bits.RCIE = 1;
  3755  0CCE  1683               	bsf	3,5	;RP0=1, select bank1
  3756  0CCF  1303               	bcf	3,6	;RP1=0, select bank1
  3757  0CD0  168C               	bsf	12,5	;volatile
  3758                           
  3759                           ;proyecto_final.c: 742:     PIR1bits.RCIF = 0;
  3760  0CD1  1283               	bcf	3,5	;RP0=0, select bank0
  3761  0CD2  1303               	bcf	3,6	;RP1=0, select bank0
  3762  0CD3  128C               	bcf	12,5	;volatile
  3763  0CD4                     l277:	
  3764                           ;proyecto_final.c: 744:     return;
  3765                           
  3766  0CD4  0008               	return
  3767  0CD5                     __end_of_config_int_enable:
  3768                           
  3769                           	psect	text9
  3770  0E5C                     __ptext9:	
  3771 ;; *************** function _dec_to_ascii *****************
  3772 ;; Defined at:
  3773 ;;		line 430 in file "proyecto_final.c"
  3774 ;; Parameters:    Size  Location     Type
  3775 ;;  val             2    0[BANK0 ] int 
  3776 ;; Auto vars:     Size  Location     Type
  3777 ;;		None
  3778 ;; Return value:  Size  Location     Type
  3779 ;;                  2    0[BANK0 ] int 
  3780 ;; Registers used:
  3781 ;;		wreg, status,2, status,0
  3782 ;; Tracked objects:
  3783 ;;		On entry : 0/0
  3784 ;;		On exit  : 0/0
  3785 ;;		Unchanged: 0/0
  3786 ;; Data sizes:     COMMON   BANK0   BANK1   BANK3   BANK2
  3787 ;;      Params:         0       2       0       0       0
  3788 ;;      Locals:         0       0       0       0       0
  3789 ;;      Temps:          0       0       0       0       0
  3790 ;;      Totals:         0       2       0       0       0
  3791 ;;Total ram usage:        2 bytes
  3792 ;; Hardware stack levels used:    1
  3793 ;; Hardware stack levels required when called:    3
  3794 ;; This function calls:
  3795 ;;		Nothing
  3796 ;; This function is called by:
  3797 ;;		_main
  3798 ;; This function uses a non-reentrant model
  3799 ;;
  3800                           
  3801                           
  3802                           ;psect for function _dec_to_ascii
  3803  0E5C                     _dec_to_ascii:
  3804  0E5C                     l1686:	
  3805                           ;incstack = 0
  3806                           ; Regs used in _dec_to_ascii: [wreg+status,2+status,0]
  3807                           
  3808                           
  3809                           ;proyecto_final.c: 431:     if(val==0){
  3810  0E5C  1283               	bcf	3,5	;RP0=0, select bank0
  3811  0E5D  1303               	bcf	3,6	;RP1=0, select bank0
  3812  0E5E  0835               	movf	dec_to_ascii@val,w
  3813  0E5F  0436               	iorwf	dec_to_ascii@val+1,w
  3814  0E60  1D03               	btfss	3,2
  3815  0E61  2E63               	goto	u1221
  3816  0E62  2E64               	goto	u1220
  3817  0E63                     u1221:
  3818  0E63  2E69               	goto	l1694
  3819  0E64                     u1220:
  3820  0E64                     l1688:
  3821                           
  3822                           ;proyecto_final.c: 432:         return 48;
  3823  0E64  3030               	movlw	48
  3824  0E65  00B5               	movwf	?_dec_to_ascii
  3825  0E66  3000               	movlw	0
  3826  0E67  00B6               	movwf	?_dec_to_ascii+1
  3827  0E68  2ED4               	goto	l208
  3828  0E69                     l1694:
  3829  0E69  0335               	decf	dec_to_ascii@val,w
  3830  0E6A  0436               	iorwf	dec_to_ascii@val+1,w
  3831  0E6B  1D03               	btfss	3,2
  3832  0E6C  2E6E               	goto	u1231
  3833  0E6D  2E6F               	goto	u1230
  3834  0E6E                     u1231:
  3835  0E6E  2E74               	goto	l1702
  3836  0E6F                     u1230:
  3837  0E6F                     l1696:
  3838                           
  3839                           ;proyecto_final.c: 434:         return 49;
  3840  0E6F  3031               	movlw	49
  3841  0E70  00B5               	movwf	?_dec_to_ascii
  3842  0E71  3000               	movlw	0
  3843  0E72  00B6               	movwf	?_dec_to_ascii+1
  3844  0E73  2ED4               	goto	l208
  3845  0E74                     l1702:
  3846  0E74  3002               	movlw	2
  3847  0E75  0635               	xorwf	dec_to_ascii@val,w
  3848  0E76  0436               	iorwf	dec_to_ascii@val+1,w
  3849  0E77  1D03               	btfss	3,2
  3850  0E78  2E7A               	goto	u1241
  3851  0E79  2E7B               	goto	u1240
  3852  0E7A                     u1241:
  3853  0E7A  2E80               	goto	l1710
  3854  0E7B                     u1240:
  3855  0E7B                     l1704:
  3856                           
  3857                           ;proyecto_final.c: 436:         return 50;
  3858  0E7B  3032               	movlw	50
  3859  0E7C  00B5               	movwf	?_dec_to_ascii
  3860  0E7D  3000               	movlw	0
  3861  0E7E  00B6               	movwf	?_dec_to_ascii+1
  3862  0E7F  2ED4               	goto	l208
  3863  0E80                     l1710:
  3864  0E80  3003               	movlw	3
  3865  0E81  0635               	xorwf	dec_to_ascii@val,w
  3866  0E82  0436               	iorwf	dec_to_ascii@val+1,w
  3867  0E83  1D03               	btfss	3,2
  3868  0E84  2E86               	goto	u1251
  3869  0E85  2E87               	goto	u1250
  3870  0E86                     u1251:
  3871  0E86  2E8C               	goto	l1718
  3872  0E87                     u1250:
  3873  0E87                     l1712:
  3874                           
  3875                           ;proyecto_final.c: 438:         return 51;
  3876  0E87  3033               	movlw	51
  3877  0E88  00B5               	movwf	?_dec_to_ascii
  3878  0E89  3000               	movlw	0
  3879  0E8A  00B6               	movwf	?_dec_to_ascii+1
  3880  0E8B  2ED4               	goto	l208
  3881  0E8C                     l1718:
  3882  0E8C  3004               	movlw	4
  3883  0E8D  0635               	xorwf	dec_to_ascii@val,w
  3884  0E8E  0436               	iorwf	dec_to_ascii@val+1,w
  3885  0E8F  1D03               	btfss	3,2
  3886  0E90  2E92               	goto	u1261
  3887  0E91  2E93               	goto	u1260
  3888  0E92                     u1261:
  3889  0E92  2E98               	goto	l1726
  3890  0E93                     u1260:
  3891  0E93                     l1720:
  3892                           
  3893                           ;proyecto_final.c: 440:         return 52;
  3894  0E93  3034               	movlw	52
  3895  0E94  00B5               	movwf	?_dec_to_ascii
  3896  0E95  3000               	movlw	0
  3897  0E96  00B6               	movwf	?_dec_to_ascii+1
  3898  0E97  2ED4               	goto	l208
  3899  0E98                     l1726:
  3900  0E98  3005               	movlw	5
  3901  0E99  0635               	xorwf	dec_to_ascii@val,w
  3902  0E9A  0436               	iorwf	dec_to_ascii@val+1,w
  3903  0E9B  1D03               	btfss	3,2
  3904  0E9C  2E9E               	goto	u1271
  3905  0E9D  2E9F               	goto	u1270
  3906  0E9E                     u1271:
  3907  0E9E  2EA4               	goto	l1734
  3908  0E9F                     u1270:
  3909  0E9F                     l1728:
  3910                           
  3911                           ;proyecto_final.c: 442:         return 53;
  3912  0E9F  3035               	movlw	53
  3913  0EA0  00B5               	movwf	?_dec_to_ascii
  3914  0EA1  3000               	movlw	0
  3915  0EA2  00B6               	movwf	?_dec_to_ascii+1
  3916  0EA3  2ED4               	goto	l208
  3917  0EA4                     l1734:
  3918  0EA4  3006               	movlw	6
  3919  0EA5  0635               	xorwf	dec_to_ascii@val,w
  3920  0EA6  0436               	iorwf	dec_to_ascii@val+1,w
  3921  0EA7  1D03               	btfss	3,2
  3922  0EA8  2EAA               	goto	u1281
  3923  0EA9  2EAB               	goto	u1280
  3924  0EAA                     u1281:
  3925  0EAA  2EB0               	goto	l1742
  3926  0EAB                     u1280:
  3927  0EAB                     l1736:
  3928                           
  3929                           ;proyecto_final.c: 444:         return 54;
  3930  0EAB  3036               	movlw	54
  3931  0EAC  00B5               	movwf	?_dec_to_ascii
  3932  0EAD  3000               	movlw	0
  3933  0EAE  00B6               	movwf	?_dec_to_ascii+1
  3934  0EAF  2ED4               	goto	l208
  3935  0EB0                     l1742:
  3936  0EB0  3007               	movlw	7
  3937  0EB1  0635               	xorwf	dec_to_ascii@val,w
  3938  0EB2  0436               	iorwf	dec_to_ascii@val+1,w
  3939  0EB3  1D03               	btfss	3,2
  3940  0EB4  2EB6               	goto	u1291
  3941  0EB5  2EB7               	goto	u1290
  3942  0EB6                     u1291:
  3943  0EB6  2EBC               	goto	l1750
  3944  0EB7                     u1290:
  3945  0EB7                     l1744:
  3946                           
  3947                           ;proyecto_final.c: 446:         return 55;
  3948  0EB7  3037               	movlw	55
  3949  0EB8  00B5               	movwf	?_dec_to_ascii
  3950  0EB9  3000               	movlw	0
  3951  0EBA  00B6               	movwf	?_dec_to_ascii+1
  3952  0EBB  2ED4               	goto	l208
  3953  0EBC                     l1750:
  3954  0EBC  3008               	movlw	8
  3955  0EBD  0635               	xorwf	dec_to_ascii@val,w
  3956  0EBE  0436               	iorwf	dec_to_ascii@val+1,w
  3957  0EBF  1D03               	btfss	3,2
  3958  0EC0  2EC2               	goto	u1301
  3959  0EC1  2EC3               	goto	u1300
  3960  0EC2                     u1301:
  3961  0EC2  2EC8               	goto	l1758
  3962  0EC3                     u1300:
  3963  0EC3                     l1752:
  3964                           
  3965                           ;proyecto_final.c: 448:         return 56;
  3966  0EC3  3038               	movlw	56
  3967  0EC4  00B5               	movwf	?_dec_to_ascii
  3968  0EC5  3000               	movlw	0
  3969  0EC6  00B6               	movwf	?_dec_to_ascii+1
  3970  0EC7  2ED4               	goto	l208
  3971  0EC8                     l1758:
  3972  0EC8  3009               	movlw	9
  3973  0EC9  0635               	xorwf	dec_to_ascii@val,w
  3974  0ECA  0436               	iorwf	dec_to_ascii@val+1,w
  3975  0ECB  1D03               	btfss	3,2
  3976  0ECC  2ECE               	goto	u1311
  3977  0ECD  2ECF               	goto	u1310
  3978  0ECE                     u1311:
  3979  0ECE  2ED4               	goto	l221
  3980  0ECF                     u1310:
  3981  0ECF                     l1760:
  3982                           
  3983                           ;proyecto_final.c: 450:         return 57;
  3984  0ECF  3039               	movlw	57
  3985  0ED0  00B5               	movwf	?_dec_to_ascii
  3986  0ED1  3000               	movlw	0
  3987  0ED2  00B6               	movwf	?_dec_to_ascii+1
  3988  0ED3  2ED4               	goto	l208
  3989  0ED4                     l221:
  3990  0ED4                     l208:
  3991  0ED4  0008               	return
  3992  0ED5                     __end_of_dec_to_ascii:
  3993                           
  3994                           	psect	text10
  3995  0D0E                     __ptext10:	
  3996 ;; *************** function ___wmul *****************
  3997 ;; Defined at:
  3998 ;;		line 15 in file "C:\Program Files\Microchip\xc8\v2.31\pic\sources\c90\common\Umul16.c"
  3999 ;; Parameters:    Size  Location     Type
  4000 ;;  multiplier      2    0[BANK0 ] unsigned int 
  4001 ;;  multiplicand    2    2[BANK0 ] unsigned int 
  4002 ;; Auto vars:     Size  Location     Type
  4003 ;;  product         2    4[BANK0 ] unsigned int 
  4004 ;; Return value:  Size  Location     Type
  4005 ;;                  2    0[BANK0 ] unsigned int 
  4006 ;; Registers used:
  4007 ;;		wreg, status,2, status,0
  4008 ;; Tracked objects:
  4009 ;;		On entry : 0/0
  4010 ;;		On exit  : 0/0
  4011 ;;		Unchanged: 0/0
  4012 ;; Data sizes:     COMMON   BANK0   BANK1   BANK3   BANK2
  4013 ;;      Params:         0       4       0       0       0
  4014 ;;      Locals:         0       2       0       0       0
  4015 ;;      Temps:          0       0       0       0       0
  4016 ;;      Totals:         0       6       0       0       0
  4017 ;;Total ram usage:        6 bytes
  4018 ;; Hardware stack levels used:    1
  4019 ;; Hardware stack levels required when called:    3
  4020 ;; This function calls:
  4021 ;;		Nothing
  4022 ;; This function is called by:
  4023 ;;		_main
  4024 ;; This function uses a non-reentrant model
  4025 ;;
  4026                           
  4027                           
  4028                           ;psect for function ___wmul
  4029  0D0E                     ___wmul:
  4030  0D0E                     l1860:	
  4031                           ;incstack = 0
  4032                           ; Regs used in ___wmul: [wreg+status,2+status,0]
  4033                           
  4034  0D0E  1283               	bcf	3,5	;RP0=0, select bank0
  4035  0D0F  1303               	bcf	3,6	;RP1=0, select bank0
  4036  0D10  01B9               	clrf	___wmul@product
  4037  0D11  01BA               	clrf	___wmul@product+1
  4038  0D12                     l1862:
  4039  0D12  1C35               	btfss	___wmul@multiplier,0
  4040  0D13  2D15               	goto	u1491
  4041  0D14  2D16               	goto	u1490
  4042  0D15                     u1491:
  4043  0D15  2D1C               	goto	l372
  4044  0D16                     u1490:
  4045  0D16                     l1864:
  4046  0D16  0837               	movf	___wmul@multiplicand,w
  4047  0D17  07B9               	addwf	___wmul@product,f
  4048  0D18  1803               	skipnc
  4049  0D19  0ABA               	incf	___wmul@product+1,f
  4050  0D1A  0838               	movf	___wmul@multiplicand+1,w
  4051  0D1B  07BA               	addwf	___wmul@product+1,f
  4052  0D1C                     l372:
  4053  0D1C  3001               	movlw	1
  4054  0D1D                     u1505:
  4055  0D1D  1003               	clrc
  4056  0D1E  0DB7               	rlf	___wmul@multiplicand,f
  4057  0D1F  0DB8               	rlf	___wmul@multiplicand+1,f
  4058  0D20  3EFF               	addlw	-1
  4059  0D21  1D03               	skipz
  4060  0D22  2D1D               	goto	u1505
  4061  0D23                     l1866:
  4062  0D23  3001               	movlw	1
  4063  0D24                     u1515:
  4064  0D24  1003               	clrc
  4065  0D25  0CB6               	rrf	___wmul@multiplier+1,f
  4066  0D26  0CB5               	rrf	___wmul@multiplier,f
  4067  0D27  3EFF               	addlw	-1
  4068  0D28  1D03               	skipz
  4069  0D29  2D24               	goto	u1515
  4070  0D2A                     l1868:
  4071  0D2A  0835               	movf	___wmul@multiplier,w
  4072  0D2B  0436               	iorwf	___wmul@multiplier+1,w
  4073  0D2C  1D03               	btfss	3,2
  4074  0D2D  2D2F               	goto	u1521
  4075  0D2E  2D30               	goto	u1520
  4076  0D2F                     u1521:
  4077  0D2F  2D12               	goto	l1862
  4078  0D30                     u1520:
  4079  0D30                     l1870:
  4080  0D30  083A               	movf	___wmul@product+1,w
  4081  0D31  00B6               	movwf	?___wmul+1
  4082  0D32  0839               	movf	___wmul@product,w
  4083  0D33  00B5               	movwf	?___wmul
  4084  0D34                     l374:
  4085  0D34  0008               	return
  4086  0D35                     __end_of___wmul:
  4087                           
  4088                           	psect	text11
  4089  0D8A                     __ptext11:	
  4090 ;; *************** function ___awdiv *****************
  4091 ;; Defined at:
  4092 ;;		line 5 in file "C:\Program Files\Microchip\xc8\v2.31\pic\sources\c90\common\awdiv.c"
  4093 ;; Parameters:    Size  Location     Type
  4094 ;;  divisor         2    0[BANK0 ] int 
  4095 ;;  dividend        2    2[BANK0 ] int 
  4096 ;; Auto vars:     Size  Location     Type
  4097 ;;  quotient        2    7[BANK0 ] int 
  4098 ;;  sign            1    6[BANK0 ] unsigned char 
  4099 ;;  counter         1    5[BANK0 ] unsigned char 
  4100 ;; Return value:  Size  Location     Type
  4101 ;;                  2    0[BANK0 ] int 
  4102 ;; Registers used:
  4103 ;;		wreg, status,2, status,0
  4104 ;; Tracked objects:
  4105 ;;		On entry : 0/0
  4106 ;;		On exit  : 0/0
  4107 ;;		Unchanged: 0/0
  4108 ;; Data sizes:     COMMON   BANK0   BANK1   BANK3   BANK2
  4109 ;;      Params:         0       4       0       0       0
  4110 ;;      Locals:         0       4       0       0       0
  4111 ;;      Temps:          0       1       0       0       0
  4112 ;;      Totals:         0       9       0       0       0
  4113 ;;Total ram usage:        9 bytes
  4114 ;; Hardware stack levels used:    1
  4115 ;; Hardware stack levels required when called:    3
  4116 ;; This function calls:
  4117 ;;		Nothing
  4118 ;; This function is called by:
  4119 ;;		_main
  4120 ;; This function uses a non-reentrant model
  4121 ;;
  4122                           
  4123                           
  4124                           ;psect for function ___awdiv
  4125  0D8A                     ___awdiv:
  4126  0D8A                     l1874:	
  4127                           ;incstack = 0
  4128                           ; Regs used in ___awdiv: [wreg+status,2+status,0]
  4129                           
  4130  0D8A  1283               	bcf	3,5	;RP0=0, select bank0
  4131  0D8B  1303               	bcf	3,6	;RP1=0, select bank0
  4132  0D8C  01BB               	clrf	___awdiv@sign
  4133  0D8D                     l1876:
  4134  0D8D  1FB6               	btfss	___awdiv@divisor+1,7
  4135  0D8E  2D90               	goto	u1531
  4136  0D8F  2D91               	goto	u1530
  4137  0D90                     u1531:
  4138  0D90  2D98               	goto	l1882
  4139  0D91                     u1530:
  4140  0D91                     l1878:
  4141  0D91  09B5               	comf	___awdiv@divisor,f
  4142  0D92  09B6               	comf	___awdiv@divisor+1,f
  4143  0D93  0AB5               	incf	___awdiv@divisor,f
  4144  0D94  1903               	skipnz
  4145  0D95  0AB6               	incf	___awdiv@divisor+1,f
  4146  0D96                     l1880:
  4147  0D96  01BB               	clrf	___awdiv@sign
  4148  0D97  0ABB               	incf	___awdiv@sign,f
  4149  0D98                     l1882:
  4150  0D98  1FB8               	btfss	___awdiv@dividend+1,7
  4151  0D99  2D9B               	goto	u1541
  4152  0D9A  2D9C               	goto	u1540
  4153  0D9B                     u1541:
  4154  0D9B  2DA5               	goto	l1888
  4155  0D9C                     u1540:
  4156  0D9C                     l1884:
  4157  0D9C  09B7               	comf	___awdiv@dividend,f
  4158  0D9D  09B8               	comf	___awdiv@dividend+1,f
  4159  0D9E  0AB7               	incf	___awdiv@dividend,f
  4160  0D9F  1903               	skipnz
  4161  0DA0  0AB8               	incf	___awdiv@dividend+1,f
  4162  0DA1                     l1886:
  4163  0DA1  3001               	movlw	1
  4164  0DA2  00B9               	movwf	??___awdiv
  4165  0DA3  0839               	movf	??___awdiv,w
  4166  0DA4  06BB               	xorwf	___awdiv@sign,f
  4167  0DA5                     l1888:
  4168  0DA5  01BC               	clrf	___awdiv@quotient
  4169  0DA6  01BD               	clrf	___awdiv@quotient+1
  4170  0DA7                     l1890:
  4171  0DA7  0835               	movf	___awdiv@divisor,w
  4172  0DA8  0436               	iorwf	___awdiv@divisor+1,w
  4173  0DA9  1903               	btfsc	3,2
  4174  0DAA  2DAC               	goto	u1551
  4175  0DAB  2DAD               	goto	u1550
  4176  0DAC                     u1551:
  4177  0DAC  2DE4               	goto	l1910
  4178  0DAD                     u1550:
  4179  0DAD                     l1892:
  4180  0DAD  01BA               	clrf	___awdiv@counter
  4181  0DAE  0ABA               	incf	___awdiv@counter,f
  4182  0DAF  2DBB               	goto	l1898
  4183  0DB0                     l1894:
  4184  0DB0  3001               	movlw	1
  4185  0DB1                     u1565:
  4186  0DB1  1003               	clrc
  4187  0DB2  0DB5               	rlf	___awdiv@divisor,f
  4188  0DB3  0DB6               	rlf	___awdiv@divisor+1,f
  4189  0DB4  3EFF               	addlw	-1
  4190  0DB5  1D03               	skipz
  4191  0DB6  2DB1               	goto	u1565
  4192  0DB7                     l1896:
  4193  0DB7  3001               	movlw	1
  4194  0DB8  00B9               	movwf	??___awdiv
  4195  0DB9  0839               	movf	??___awdiv,w
  4196  0DBA  07BA               	addwf	___awdiv@counter,f
  4197  0DBB                     l1898:
  4198  0DBB  1FB6               	btfss	___awdiv@divisor+1,7
  4199  0DBC  2DBE               	goto	u1571
  4200  0DBD  2DBF               	goto	u1570
  4201  0DBE                     u1571:
  4202  0DBE  2DB0               	goto	l1894
  4203  0DBF                     u1570:
  4204  0DBF                     l1900:
  4205  0DBF  3001               	movlw	1
  4206  0DC0                     u1585:
  4207  0DC0  1003               	clrc
  4208  0DC1  0DBC               	rlf	___awdiv@quotient,f
  4209  0DC2  0DBD               	rlf	___awdiv@quotient+1,f
  4210  0DC3  3EFF               	addlw	-1
  4211  0DC4  1D03               	skipz
  4212  0DC5  2DC0               	goto	u1585
  4213  0DC6  0836               	movf	___awdiv@divisor+1,w
  4214  0DC7  0238               	subwf	___awdiv@dividend+1,w
  4215  0DC8  1D03               	skipz
  4216  0DC9  2DCC               	goto	u1595
  4217  0DCA  0835               	movf	___awdiv@divisor,w
  4218  0DCB  0237               	subwf	___awdiv@dividend,w
  4219  0DCC                     u1595:
  4220  0DCC  1C03               	skipc
  4221  0DCD  2DCF               	goto	u1591
  4222  0DCE  2DD0               	goto	u1590
  4223  0DCF                     u1591:
  4224  0DCF  2DD7               	goto	l1906
  4225  0DD0                     u1590:
  4226  0DD0                     l1902:
  4227  0DD0  0835               	movf	___awdiv@divisor,w
  4228  0DD1  02B7               	subwf	___awdiv@dividend,f
  4229  0DD2  0836               	movf	___awdiv@divisor+1,w
  4230  0DD3  1C03               	skipc
  4231  0DD4  03B8               	decf	___awdiv@dividend+1,f
  4232  0DD5  02B8               	subwf	___awdiv@dividend+1,f
  4233  0DD6                     l1904:
  4234  0DD6  143C               	bsf	___awdiv@quotient,0
  4235  0DD7                     l1906:
  4236  0DD7  3001               	movlw	1
  4237  0DD8                     u1605:
  4238  0DD8  1003               	clrc
  4239  0DD9  0CB6               	rrf	___awdiv@divisor+1,f
  4240  0DDA  0CB5               	rrf	___awdiv@divisor,f
  4241  0DDB  3EFF               	addlw	-1
  4242  0DDC  1D03               	skipz
  4243  0DDD  2DD8               	goto	u1605
  4244  0DDE                     l1908:
  4245  0DDE  3001               	movlw	1
  4246  0DDF  02BA               	subwf	___awdiv@counter,f
  4247  0DE0  1D03               	btfss	3,2
  4248  0DE1  2DE3               	goto	u1611
  4249  0DE2  2DE4               	goto	u1610
  4250  0DE3                     u1611:
  4251  0DE3  2DBF               	goto	l1900
  4252  0DE4                     u1610:
  4253  0DE4                     l1910:
  4254  0DE4  083B               	movf	___awdiv@sign,w
  4255  0DE5  1903               	btfsc	3,2
  4256  0DE6  2DE8               	goto	u1621
  4257  0DE7  2DE9               	goto	u1620
  4258  0DE8                     u1621:
  4259  0DE8  2DEE               	goto	l1914
  4260  0DE9                     u1620:
  4261  0DE9                     l1912:
  4262  0DE9  09BC               	comf	___awdiv@quotient,f
  4263  0DEA  09BD               	comf	___awdiv@quotient+1,f
  4264  0DEB  0ABC               	incf	___awdiv@quotient,f
  4265  0DEC  1903               	skipnz
  4266  0DED  0ABD               	incf	___awdiv@quotient+1,f
  4267  0DEE                     l1914:
  4268  0DEE  083D               	movf	___awdiv@quotient+1,w
  4269  0DEF  00B6               	movwf	?___awdiv+1
  4270  0DF0  083C               	movf	___awdiv@quotient,w
  4271  0DF1  00B5               	movwf	?___awdiv
  4272  0DF2                     l525:
  4273  0DF2  0008               	return
  4274  0DF3                     __end_of___awdiv:
  4275                           
  4276                           	psect	text12
  4277  074D                     __ptext12:	
  4278 ;; *************** function _isr *****************
  4279 ;; Defined at:
  4280 ;;		line 503 in file "proyecto_final.c"
  4281 ;; Parameters:    Size  Location     Type
  4282 ;;		None
  4283 ;; Auto vars:     Size  Location     Type
  4284 ;;		None
  4285 ;; Return value:  Size  Location     Type
  4286 ;;                  1    wreg      void 
  4287 ;; Registers used:
  4288 ;;		wreg, status,2, status,0, pclath, cstack
  4289 ;; Tracked objects:
  4290 ;;		On entry : 0/0
  4291 ;;		On exit  : 0/0
  4292 ;;		Unchanged: 0/0
  4293 ;; Data sizes:     COMMON   BANK0   BANK1   BANK3   BANK2
  4294 ;;      Params:         0       0       0       0       0
  4295 ;;      Locals:         0       0       0       0       0
  4296 ;;      Temps:          4       0       0       0       0
  4297 ;;      Totals:         4       0       0       0       0
  4298 ;;Total ram usage:        4 bytes
  4299 ;; Hardware stack levels used:    1
  4300 ;; Hardware stack levels required when called:    2
  4301 ;; This function calls:
  4302 ;;		_IOCB_interrupt
  4303 ;; This function is called by:
  4304 ;;		Interrupt level 1
  4305 ;; This function uses a non-reentrant model
  4306 ;;
  4307                           
  4308                           
  4309                           ;psect for function _isr
  4310  074D                     _isr:
  4311  074D                     i1l2216:
  4312                           
  4313                           ;proyecto_final.c: 505:     if(INTCONbits.RBIF){
  4314  074D  1C0B               	btfss	11,0	;volatile
  4315  074E  2F50               	goto	u223_21
  4316  074F  2F51               	goto	u223_20
  4317  0750                     u223_21:
  4318  0750  2F56               	goto	i1l2220
  4319  0751                     u223_20:
  4320  0751                     i1l2218:
  4321                           
  4322                           ;proyecto_final.c: 506:         IOCB_interrupt();
  4323  0751  120A  158A  26D5  120A  118A  	fcall	_IOCB_interrupt
  4324  0756                     i1l2220:
  4325                           
  4326                           ;proyecto_final.c: 509:     if (PIR1bits.RCIF){
  4327  0756  1283               	bcf	3,5	;RP0=0, select bank0
  4328  0757  1303               	bcf	3,6	;RP1=0, select bank0
  4329  0758  1E8C               	btfss	12,5	;volatile
  4330  0759  2F5B               	goto	u224_21
  4331  075A  2F5C               	goto	u224_20
  4332  075B                     u224_21:
  4333  075B  2F60               	goto	i1l2224
  4334  075C                     u224_20:
  4335  075C                     i1l2222:
  4336                           
  4337                           ;proyecto_final.c: 510:         opcion = RCREG;
  4338  075C  081A               	movf	26,w	;volatile
  4339  075D  00F9               	movwf	??_isr
  4340  075E  0879               	movf	??_isr,w
  4341  075F  00B4               	movwf	_opcion
  4342  0760                     i1l2224:
  4343                           
  4344                           ;proyecto_final.c: 514:     if (PIR1bits.ADIF){
  4345  0760  1F0C               	btfss	12,6	;volatile
  4346  0761  2F63               	goto	u225_21
  4347  0762  2F64               	goto	u225_20
  4348  0763                     u225_21:
  4349  0763  2FDD               	goto	i1l248
  4350  0764                     u225_20:
  4351  0764                     i1l2226:
  4352                           
  4353                           ;proyecto_final.c: 516:         if(ADCON0bits.CHS == 5) {
  4354  0764  0C1F               	rrf	31,w	;volatile
  4355  0765  00F9               	movwf	??_isr
  4356  0766  0C79               	rrf	??_isr,w
  4357  0767  390F               	andlw	15
  4358  0768  3A05               	xorlw	5
  4359  0769  1D03               	skipz
  4360  076A  2F6C               	goto	u226_21
  4361  076B  2F6D               	goto	u226_20
  4362  076C                     u226_21:
  4363  076C  2F98               	goto	i1l2236
  4364  076D                     u226_20:
  4365  076D                     i1l2228:
  4366                           
  4367                           ;proyecto_final.c: 517:             PORTD = ADRESH;
  4368  076D  081E               	movf	30,w	;volatile
  4369  076E  0088               	movwf	8	;volatile
  4370                           
  4371                           ;proyecto_final.c: 518:             temporal_posicion1 = PORTD;
  4372  076F  0808               	movf	8,w	;volatile
  4373  0770  00F9               	movwf	??_isr
  4374  0771  0879               	movf	??_isr,w
  4375  0772  00B3               	movwf	_temporal_posicion1
  4376  0773                     i1l2230:
  4377                           
  4378                           ;proyecto_final.c: 519:             CCPR1L = (PORTD>>1) + 128;
  4379  0773  0808               	movf	8,w	;volatile
  4380  0774  00F9               	movwf	??_isr
  4381  0775  1003               	clrc
  4382  0776  0C79               	rrf	??_isr,w
  4383  0777  3E80               	addlw	128
  4384  0778  0095               	movwf	21	;volatile
  4385  0779                     i1l2232:
  4386                           
  4387                           ;proyecto_final.c: 520:             CCP1CONbits.DC1B1 = PORTDbits.RD0;
  4388  0779  1808               	btfsc	8,0	;volatile
  4389  077A  2F7C               	goto	u227_21
  4390  077B  2F80               	goto	u227_20
  4391  077C                     u227_21:
  4392  077C  1283               	bcf	3,5	;RP0=0, select bank0
  4393  077D  1303               	bcf	3,6	;RP1=0, select bank0
  4394  077E  1697               	bsf	23,5	;volatile
  4395  077F  2F83               	goto	u228_24
  4396  0780                     u227_20:
  4397  0780  1283               	bcf	3,5	;RP0=0, select bank0
  4398  0781  1303               	bcf	3,6	;RP1=0, select bank0
  4399  0782  1297               	bcf	23,5	;volatile
  4400  0783                     u228_24:
  4401  0783                     i1l2234:
  4402                           
  4403                           ;proyecto_final.c: 521:             CCP1CONbits.DC1B0 = ADRESL>>7;}
  4404  0783  1683               	bsf	3,5	;RP0=1, select bank1
  4405  0784  1303               	bcf	3,6	;RP1=0, select bank1
  4406  0785  081E               	movf	30,w	;volatile
  4407  0786  00F9               	movwf	??_isr
  4408  0787  3007               	movlw	7
  4409  0788                     u229_25:
  4410  0788  1003               	clrc
  4411  0789  0CF9               	rrf	??_isr,f
  4412  078A  3EFF               	addlw	-1
  4413  078B  1D03               	skipz
  4414  078C  2F88               	goto	u229_25
  4415  078D  0879               	movf	??_isr,w
  4416  078E  00FA               	movwf	??_isr+1
  4417  078F  0EFA               	swapf	??_isr+1,f
  4418  0790  1283               	bcf	3,5	;RP0=0, select bank0
  4419  0791  1303               	bcf	3,6	;RP1=0, select bank0
  4420  0792  0817               	movf	23,w	;volatile
  4421  0793  067A               	xorwf	??_isr+1,w
  4422  0794  39EF               	andlw	-17
  4423  0795  067A               	xorwf	??_isr+1,w
  4424  0796  0097               	movwf	23	;volatile
  4425  0797  2FDC               	goto	i1l2250
  4426  0798                     i1l2236:
  4427  0798  0C1F               	rrf	31,w	;volatile
  4428  0799  00F9               	movwf	??_isr
  4429  079A  0C79               	rrf	??_isr,w
  4430  079B  390F               	andlw	15
  4431  079C  3A07               	xorlw	7
  4432  079D  1D03               	skipz
  4433  079E  2FA0               	goto	u230_21
  4434  079F  2FA1               	goto	u230_20
  4435  07A0                     u230_21:
  4436  07A0  2FA9               	goto	i1l2240
  4437  07A1                     u230_20:
  4438  07A1                     i1l2238:
  4439                           
  4440                           ;proyecto_final.c: 523:             valor_pot = ADRESH;
  4441  07A1  081E               	movf	30,w	;volatile
  4442  07A2  00F9               	movwf	??_isr
  4443  07A3  01FA               	clrf	??_isr+1
  4444  07A4  0879               	movf	??_isr,w
  4445  07A5  00AE               	movwf	_valor_pot
  4446  07A6  087A               	movf	??_isr+1,w
  4447  07A7  00AF               	movwf	_valor_pot+1
  4448                           
  4449                           ;proyecto_final.c: 524:         }
  4450  07A8  2FDC               	goto	i1l2250
  4451  07A9                     i1l2240:
  4452  07A9  0C1F               	rrf	31,w	;volatile
  4453  07AA  00F9               	movwf	??_isr
  4454  07AB  0C79               	rrf	??_isr,w
  4455  07AC  390F               	andlw	15
  4456  07AD  3A06               	xorlw	6
  4457  07AE  1D03               	skipz
  4458  07AF  2FB1               	goto	u231_21
  4459  07B0  2FB2               	goto	u231_20
  4460  07B1                     u231_21:
  4461  07B1  2FDC               	goto	i1l2250
  4462  07B2                     u231_20:
  4463  07B2                     i1l2242:
  4464                           
  4465                           ;proyecto_final.c: 527:             PORTD = ADRESH;
  4466  07B2  081E               	movf	30,w	;volatile
  4467  07B3  0088               	movwf	8	;volatile
  4468                           
  4469                           ;proyecto_final.c: 528:             temporal_posicion2 = PORTD;
  4470  07B4  0808               	movf	8,w	;volatile
  4471  07B5  00F9               	movwf	??_isr
  4472  07B6  0879               	movf	??_isr,w
  4473  07B7  00B2               	movwf	_temporal_posicion2
  4474  07B8                     i1l2244:
  4475                           
  4476                           ;proyecto_final.c: 529:             CCPR2L = (PORTD>>1) + 128;
  4477  07B8  0808               	movf	8,w	;volatile
  4478  07B9  00F9               	movwf	??_isr
  4479  07BA  1003               	clrc
  4480  07BB  0C79               	rrf	??_isr,w
  4481  07BC  3E80               	addlw	128
  4482  07BD  009B               	movwf	27	;volatile
  4483  07BE                     i1l2246:
  4484                           
  4485                           ;proyecto_final.c: 530:             CCP2CONbits.DC2B1 = PORTDbits.RD0;
  4486  07BE  1808               	btfsc	8,0	;volatile
  4487  07BF  2FC1               	goto	u232_21
  4488  07C0  2FC5               	goto	u232_20
  4489  07C1                     u232_21:
  4490  07C1  1283               	bcf	3,5	;RP0=0, select bank0
  4491  07C2  1303               	bcf	3,6	;RP1=0, select bank0
  4492  07C3  169D               	bsf	29,5	;volatile
  4493  07C4  2FC8               	goto	u233_24
  4494  07C5                     u232_20:
  4495  07C5  1283               	bcf	3,5	;RP0=0, select bank0
  4496  07C6  1303               	bcf	3,6	;RP1=0, select bank0
  4497  07C7  129D               	bcf	29,5	;volatile
  4498  07C8                     u233_24:
  4499  07C8                     i1l2248:
  4500                           
  4501                           ;proyecto_final.c: 531:             CCP2CONbits.DC2B0 = ADRESL>>7;}
  4502  07C8  1683               	bsf	3,5	;RP0=1, select bank1
  4503  07C9  1303               	bcf	3,6	;RP1=0, select bank1
  4504  07CA  081E               	movf	30,w	;volatile
  4505  07CB  00F9               	movwf	??_isr
  4506  07CC  3007               	movlw	7
  4507  07CD                     u234_25:
  4508  07CD  1003               	clrc
  4509  07CE  0CF9               	rrf	??_isr,f
  4510  07CF  3EFF               	addlw	-1
  4511  07D0  1D03               	skipz
  4512  07D1  2FCD               	goto	u234_25
  4513  07D2  0879               	movf	??_isr,w
  4514  07D3  00FA               	movwf	??_isr+1
  4515  07D4  0EFA               	swapf	??_isr+1,f
  4516  07D5  1283               	bcf	3,5	;RP0=0, select bank0
  4517  07D6  1303               	bcf	3,6	;RP1=0, select bank0
  4518  07D7  081D               	movf	29,w	;volatile
  4519  07D8  067A               	xorwf	??_isr+1,w
  4520  07D9  39EF               	andlw	-17
  4521  07DA  067A               	xorwf	??_isr+1,w
  4522  07DB  009D               	movwf	29	;volatile
  4523  07DC                     i1l2250:
  4524                           
  4525                           ;proyecto_final.c: 533:         PIR1bits.ADIF = 0;
  4526  07DC  130C               	bcf	12,6	;volatile
  4527  07DD                     i1l248:
  4528  07DD  087C               	movf	??_isr+3,w
  4529  07DE  008A               	movwf	10
  4530  07DF  0E7B               	swapf	??_isr+2,w
  4531  07E0  0083               	movwf	3
  4532  07E1  0EFE               	swapf	btemp,f
  4533  07E2  0E7E               	swapf	btemp,w
  4534  07E3  0009               	retfie
  4535  07E4                     __end_of_isr:
  4536                           
  4537                           	psect	intentry
  4538  0004                     __pintentry:	
  4539                           ;incstack = 0
  4540                           ; Regs used in _isr: [wreg+status,2+status,0+pclath+cstack]
  4541                           
  4542  0004                     interrupt_function:
  4543  007E                     saved_w	set	btemp
  4544  0004  00FE               	movwf	btemp
  4545  0005  0E03               	swapf	3,w
  4546  0006  00FB               	movwf	??_isr+2
  4547  0007  080A               	movf	10,w
  4548  0008  00FC               	movwf	??_isr+3
  4549  0009  120A  118A  2F4D   	ljmp	_isr
  4550                           
  4551                           	psect	text13
  4552  0ED5                     __ptext13:	
  4553 ;; *************** function _IOCB_interrupt *****************
  4554 ;; Defined at:
  4555 ;;		line 540 in file "proyecto_final.c"
  4556 ;; Parameters:    Size  Location     Type
  4557 ;;		None
  4558 ;; Auto vars:     Size  Location     Type
  4559 ;;		None
  4560 ;; Return value:  Size  Location     Type
  4561 ;;                  1    wreg      void 
  4562 ;; Registers used:
  4563 ;;		wreg, status,2, status,0, pclath, cstack
  4564 ;; Tracked objects:
  4565 ;;		On entry : 0/0
  4566 ;;		On exit  : 0/0
  4567 ;;		Unchanged: 0/0
  4568 ;; Data sizes:     COMMON   BANK0   BANK1   BANK3   BANK2
  4569 ;;      Params:         0       0       0       0       0
  4570 ;;      Locals:         0       0       0       0       0
  4571 ;;      Temps:          3       0       0       0       0
  4572 ;;      Totals:         3       0       0       0       0
  4573 ;;Total ram usage:        3 bytes
  4574 ;; Hardware stack levels used:    1
  4575 ;; Hardware stack levels required when called:    1
  4576 ;; This function calls:
  4577 ;;		_readFromEEPROM
  4578 ;; This function is called by:
  4579 ;;		_isr
  4580 ;; This function uses a non-reentrant model
  4581 ;;
  4582                           
  4583                           
  4584                           ;psect for function _IOCB_interrupt
  4585  0ED5                     _IOCB_interrupt:
  4586  0ED5                     i1l1780:	
  4587                           ;incstack = 0
  4588                           ; Regs used in _IOCB_interrupt: [wreg+status,2+status,0+pclath+cstack]
  4589                           
  4590                           
  4591                           ;proyecto_final.c: 543:     if (PORTBbits.RB0 == 0){
  4592  0ED5  1283               	bcf	3,5	;RP0=0, select bank0
  4593  0ED6  1303               	bcf	3,6	;RP1=0, select bank0
  4594  0ED7  1806               	btfsc	6,0	;volatile
  4595  0ED8  2EDA               	goto	u132_21
  4596  0ED9  2EDB               	goto	u132_20
  4597  0EDA                     u132_21:
  4598  0EDA  2F09               	goto	i1l1794
  4599  0EDB                     u132_20:
  4600  0EDB                     i1l1782:
  4601                           
  4602                           ;proyecto_final.c: 544:         if (flag2){
  4603  0EDB  0830               	movf	_flag2,w
  4604  0EDC  0431               	iorwf	_flag2+1,w
  4605  0EDD  1903               	btfsc	3,2
  4606  0EDE  2EE0               	goto	u133_21
  4607  0EDF  2EE1               	goto	u133_20
  4608  0EE0                     u133_21:
  4609  0EE0  2EF6               	goto	i1l1788
  4610  0EE1                     u133_20:
  4611  0EE1                     i1l1784:
  4612                           
  4613                           ;proyecto_final.c: 546:             PORTA = 10;
  4614  0EE1  300A               	movlw	10
  4615  0EE2  0085               	movwf	5	;volatile
  4616  0EE3                     i1l1786:
  4617                           
  4618                           ;proyecto_final.c: 547:             PORTAbits.RA4 = 1;
  4619  0EE3  1605               	bsf	5,4	;volatile
  4620                           
  4621                           ;proyecto_final.c: 548:             _delay((unsigned long)((800)*(8000000/4000.0)));
  4622  0EE4  3009               	movlw	9
  4623  0EE5  00F8               	movwf	??_IOCB_interrupt+2
  4624  0EE6  301E               	movlw	30
  4625  0EE7  00F7               	movwf	??_IOCB_interrupt+1
  4626  0EE8  30E4               	movlw	228
  4627  0EE9  00F6               	movwf	??_IOCB_interrupt
  4628  0EEA                     u251_27:
  4629  0EEA  0BF6               	decfsz	??_IOCB_interrupt,f
  4630  0EEB  2EEA               	goto	u251_27
  4631  0EEC  0BF7               	decfsz	??_IOCB_interrupt+1,f
  4632  0EED  2EEA               	goto	u251_27
  4633  0EEE  0BF8               	decfsz	??_IOCB_interrupt+2,f
  4634  0EEF  2EEA               	goto	u251_27
  4635  0EF0  0000               	nop
  4636                           
  4637                           ;proyecto_final.c: 549:             PORTA = 8;
  4638  0EF1  3008               	movlw	8
  4639  0EF2  1283               	bcf	3,5	;RP0=0, select bank0
  4640  0EF3  1303               	bcf	3,6	;RP1=0, select bank0
  4641  0EF4  0085               	movwf	5	;volatile
  4642                           
  4643                           ;proyecto_final.c: 551:         }
  4644  0EF5  2F09               	goto	i1l1794
  4645  0EF6                     i1l1788:
  4646                           
  4647                           ;proyecto_final.c: 553:             PORTA = 2;
  4648  0EF6  3002               	movlw	2
  4649  0EF7  0085               	movwf	5	;volatile
  4650  0EF8                     i1l1790:
  4651                           
  4652                           ;proyecto_final.c: 554:             PORTAbits.RA4 = 1;
  4653  0EF8  1605               	bsf	5,4	;volatile
  4654                           
  4655                           ;proyecto_final.c: 555:             _delay((unsigned long)((800)*(8000000/4000.0)));
  4656  0EF9  3009               	movlw	9
  4657  0EFA  00F8               	movwf	??_IOCB_interrupt+2
  4658  0EFB  301E               	movlw	30
  4659  0EFC  00F7               	movwf	??_IOCB_interrupt+1
  4660  0EFD  30E4               	movlw	228
  4661  0EFE  00F6               	movwf	??_IOCB_interrupt
  4662  0EFF                     u252_27:
  4663  0EFF  0BF6               	decfsz	??_IOCB_interrupt,f
  4664  0F00  2EFF               	goto	u252_27
  4665  0F01  0BF7               	decfsz	??_IOCB_interrupt+1,f
  4666  0F02  2EFF               	goto	u252_27
  4667  0F03  0BF8               	decfsz	??_IOCB_interrupt+2,f
  4668  0F04  2EFF               	goto	u252_27
  4669  0F05  0000               	nop
  4670  0F06                     i1l1792:
  4671                           
  4672                           ;proyecto_final.c: 556:             PORTA = 0;
  4673  0F06  1283               	bcf	3,5	;RP0=0, select bank0
  4674  0F07  1303               	bcf	3,6	;RP1=0, select bank0
  4675  0F08  0185               	clrf	5	;volatile
  4676  0F09                     i1l1794:
  4677                           
  4678                           ;proyecto_final.c: 560:     if(PORTBbits.RB1 == 0) {
  4679  0F09  1886               	btfsc	6,1	;volatile
  4680  0F0A  2F0C               	goto	u134_21
  4681  0F0B  2F0D               	goto	u134_20
  4682  0F0C                     u134_21:
  4683  0F0C  2F3B               	goto	i1l1808
  4684  0F0D                     u134_20:
  4685  0F0D                     i1l1796:
  4686                           
  4687                           ;proyecto_final.c: 561:         if (flag2){
  4688  0F0D  0830               	movf	_flag2,w
  4689  0F0E  0431               	iorwf	_flag2+1,w
  4690  0F0F  1903               	btfsc	3,2
  4691  0F10  2F12               	goto	u135_21
  4692  0F11  2F13               	goto	u135_20
  4693  0F12                     u135_21:
  4694  0F12  2F28               	goto	i1l1802
  4695  0F13                     u135_20:
  4696  0F13                     i1l1798:
  4697                           
  4698                           ;proyecto_final.c: 562:             PORTA = 9;
  4699  0F13  3009               	movlw	9
  4700  0F14  0085               	movwf	5	;volatile
  4701  0F15                     i1l1800:
  4702                           
  4703                           ;proyecto_final.c: 563:             PORTAbits.RA5 = 1;
  4704  0F15  1685               	bsf	5,5	;volatile
  4705                           
  4706                           ;proyecto_final.c: 564:             _delay((unsigned long)((800)*(8000000/4000.0)));
  4707  0F16  3009               	movlw	9
  4708  0F17  00F8               	movwf	??_IOCB_interrupt+2
  4709  0F18  301E               	movlw	30
  4710  0F19  00F7               	movwf	??_IOCB_interrupt+1
  4711  0F1A  30E4               	movlw	228
  4712  0F1B  00F6               	movwf	??_IOCB_interrupt
  4713  0F1C                     u253_27:
  4714  0F1C  0BF6               	decfsz	??_IOCB_interrupt,f
  4715  0F1D  2F1C               	goto	u253_27
  4716  0F1E  0BF7               	decfsz	??_IOCB_interrupt+1,f
  4717  0F1F  2F1C               	goto	u253_27
  4718  0F20  0BF8               	decfsz	??_IOCB_interrupt+2,f
  4719  0F21  2F1C               	goto	u253_27
  4720  0F22  0000               	nop
  4721                           
  4722                           ;proyecto_final.c: 565:             PORTA = 8;
  4723  0F23  3008               	movlw	8
  4724  0F24  1283               	bcf	3,5	;RP0=0, select bank0
  4725  0F25  1303               	bcf	3,6	;RP1=0, select bank0
  4726  0F26  0085               	movwf	5	;volatile
  4727                           
  4728                           ;proyecto_final.c: 566:         }
  4729  0F27  2F3B               	goto	i1l1808
  4730  0F28                     i1l1802:
  4731                           
  4732                           ;proyecto_final.c: 568:             PORTA = 1;
  4733  0F28  3001               	movlw	1
  4734  0F29  0085               	movwf	5	;volatile
  4735  0F2A                     i1l1804:
  4736                           
  4737                           ;proyecto_final.c: 569:             PORTAbits.RA5 = 1;
  4738  0F2A  1685               	bsf	5,5	;volatile
  4739                           
  4740                           ;proyecto_final.c: 570:             _delay((unsigned long)((800)*(8000000/4000.0)));
  4741  0F2B  3009               	movlw	9
  4742  0F2C  00F8               	movwf	??_IOCB_interrupt+2
  4743  0F2D  301E               	movlw	30
  4744  0F2E  00F7               	movwf	??_IOCB_interrupt+1
  4745  0F2F  30E4               	movlw	228
  4746  0F30  00F6               	movwf	??_IOCB_interrupt
  4747  0F31                     u254_27:
  4748  0F31  0BF6               	decfsz	??_IOCB_interrupt,f
  4749  0F32  2F31               	goto	u254_27
  4750  0F33  0BF7               	decfsz	??_IOCB_interrupt+1,f
  4751  0F34  2F31               	goto	u254_27
  4752  0F35  0BF8               	decfsz	??_IOCB_interrupt+2,f
  4753  0F36  2F31               	goto	u254_27
  4754  0F37  0000               	nop
  4755  0F38                     i1l1806:
  4756                           
  4757                           ;proyecto_final.c: 571:             PORTA = 0;
  4758  0F38  1283               	bcf	3,5	;RP0=0, select bank0
  4759  0F39  1303               	bcf	3,6	;RP1=0, select bank0
  4760  0F3A  0185               	clrf	5	;volatile
  4761  0F3B                     i1l1808:
  4762                           
  4763                           ;proyecto_final.c: 576:     if(PORTBbits.RB2 == 0) {
  4764  0F3B  1906               	btfsc	6,2	;volatile
  4765  0F3C  2F3E               	goto	u136_21
  4766  0F3D  2F3F               	goto	u136_20
  4767  0F3E                     u136_21:
  4768  0F3E  2F47               	goto	i1l1816
  4769  0F3F                     u136_20:
  4770  0F3F                     i1l1810:
  4771                           
  4772                           ;proyecto_final.c: 577:         PORTA = 8;
  4773  0F3F  3008               	movlw	8
  4774  0F40  0085               	movwf	5	;volatile
  4775                           
  4776                           ;proyecto_final.c: 578:         flag2 = 1;
  4777  0F41  3001               	movlw	1
  4778  0F42  00B0               	movwf	_flag2
  4779  0F43  3000               	movlw	0
  4780  0F44  00B1               	movwf	_flag2+1
  4781  0F45                     i1l1812:
  4782                           
  4783                           ;proyecto_final.c: 579:         PORTAbits.RA4 = 1;
  4784  0F45  1605               	bsf	5,4	;volatile
  4785  0F46                     i1l1814:
  4786                           
  4787                           ;proyecto_final.c: 580:         PORTAbits.RA5 = 1;
  4788  0F46  1685               	bsf	5,5	;volatile
  4789  0F47                     i1l1816:
  4790                           
  4791                           ;proyecto_final.c: 583:     if(PORTBbits.RB3 == 0) {
  4792  0F47  1986               	btfsc	6,3	;volatile
  4793  0F48  2F4A               	goto	u137_21
  4794  0F49  2F4B               	goto	u137_20
  4795  0F4A                     u137_21:
  4796  0F4A  2F53               	goto	i1l1824
  4797  0F4B                     u137_20:
  4798  0F4B                     i1l1818:
  4799                           
  4800                           ;proyecto_final.c: 585:        PORTA = 4;
  4801  0F4B  3004               	movlw	4
  4802  0F4C  0085               	movwf	5	;volatile
  4803                           
  4804                           ;proyecto_final.c: 586:        flag2 = 1;
  4805  0F4D  3001               	movlw	1
  4806  0F4E  00B0               	movwf	_flag2
  4807  0F4F  3000               	movlw	0
  4808  0F50  00B1               	movwf	_flag2+1
  4809  0F51                     i1l1820:
  4810                           
  4811                           ;proyecto_final.c: 587:        PORTAbits.RA6 = 1;
  4812  0F51  1705               	bsf	5,6	;volatile
  4813  0F52                     i1l1822:
  4814                           
  4815                           ;proyecto_final.c: 588:        PORTAbits.RA7 = 1;
  4816  0F52  1785               	bsf	5,7	;volatile
  4817  0F53                     i1l1824:
  4818                           
  4819                           ;proyecto_final.c: 592:     if(PORTBbits.RB3 == 1 && PORTBbits.RB2 == 1) {
  4820  0F53  1D86               	btfss	6,3	;volatile
  4821  0F54  2F56               	goto	u138_21
  4822  0F55  2F57               	goto	u138_20
  4823  0F56                     u138_21:
  4824  0F56  2F5E               	goto	i1l1830
  4825  0F57                     u138_20:
  4826  0F57                     i1l1826:
  4827  0F57  1D06               	btfss	6,2	;volatile
  4828  0F58  2F5A               	goto	u139_21
  4829  0F59  2F5B               	goto	u139_20
  4830  0F5A                     u139_21:
  4831  0F5A  2F5E               	goto	i1l1830
  4832  0F5B                     u139_20:
  4833  0F5B                     i1l1828:
  4834                           
  4835                           ;proyecto_final.c: 593:         PORTA = 0;
  4836  0F5B  0185               	clrf	5	;volatile
  4837                           
  4838                           ;proyecto_final.c: 594:         flag2 = 0;
  4839  0F5C  01B0               	clrf	_flag2
  4840  0F5D  01B1               	clrf	_flag2+1
  4841  0F5E                     i1l1830:
  4842                           
  4843                           ;proyecto_final.c: 599:     if(PORTBbits.RB5 == 0){
  4844  0F5E  1A86               	btfsc	6,5	;volatile
  4845  0F5F  2F61               	goto	u140_21
  4846  0F60  2F62               	goto	u140_20
  4847  0F61                     u140_21:
  4848  0F61  2FFE               	goto	i1l1856
  4849  0F62                     u140_20:
  4850  0F62                     i1l1832:
  4851                           
  4852                           ;proyecto_final.c: 601:         PORTD = readFromEEPROM(leer);
  4853  0F62  087D               	movf	_leer,w
  4854  0F63  00F6               	movwf	??_IOCB_interrupt
  4855  0F64  01F7               	clrf	??_IOCB_interrupt+1
  4856  0F65  0876               	movf	??_IOCB_interrupt,w
  4857  0F66  00F0               	movwf	readFromEEPROM@address
  4858  0F67  0877               	movf	??_IOCB_interrupt+1,w
  4859  0F68  00F1               	movwf	readFromEEPROM@address+1
  4860  0F69  120A  118A  24E0  120A  158A  	fcall	_readFromEEPROM
  4861  0F6E  0870               	movf	?_readFromEEPROM,w
  4862  0F6F  1283               	bcf	3,5	;RP0=0, select bank0
  4863  0F70  1303               	bcf	3,6	;RP1=0, select bank0
  4864  0F71  0088               	movwf	8	;volatile
  4865  0F72                     i1l1834:
  4866                           
  4867                           ;proyecto_final.c: 603:         if(leer == 0x17){
  4868  0F72  3017               	movlw	23
  4869  0F73  067D               	xorwf	_leer,w
  4870  0F74  1D03               	btfss	3,2
  4871  0F75  2F77               	goto	u141_21
  4872  0F76  2F78               	goto	u141_20
  4873  0F77                     u141_21:
  4874  0F77  2F7D               	goto	i1l1838
  4875  0F78                     u141_20:
  4876  0F78                     i1l1836:
  4877                           
  4878                           ;proyecto_final.c: 604:                 leer = 0x10;
  4879  0F78  3010               	movlw	16
  4880  0F79  00F6               	movwf	??_IOCB_interrupt
  4881  0F7A  0876               	movf	??_IOCB_interrupt,w
  4882  0F7B  00FD               	movwf	_leer
  4883                           
  4884                           ;proyecto_final.c: 605:         }else{
  4885  0F7C  2F81               	goto	i1l262
  4886  0F7D                     i1l1838:
  4887                           
  4888                           ;proyecto_final.c: 606:             leer++;
  4889  0F7D  3001               	movlw	1
  4890  0F7E  00F6               	movwf	??_IOCB_interrupt
  4891  0F7F  0876               	movf	??_IOCB_interrupt,w
  4892  0F80  07FD               	addwf	_leer,f
  4893  0F81                     i1l262:	
  4894                           ;proyecto_final.c: 607:         }
  4895                           
  4896                           
  4897                           ;proyecto_final.c: 610:         CCPR1L = (PORTD>>1) + 120;
  4898  0F81  0808               	movf	8,w	;volatile
  4899  0F82  00F6               	movwf	??_IOCB_interrupt
  4900  0F83  1003               	clrc
  4901  0F84  0C76               	rrf	??_IOCB_interrupt,w
  4902  0F85  3E78               	addlw	120
  4903  0F86  0095               	movwf	21	;volatile
  4904  0F87                     i1l1840:
  4905                           
  4906                           ;proyecto_final.c: 611:         CCP1CONbits.DC1B1 = PORTDbits.RD0;
  4907  0F87  1808               	btfsc	8,0	;volatile
  4908  0F88  2F8A               	goto	u142_21
  4909  0F89  2F8E               	goto	u142_20
  4910  0F8A                     u142_21:
  4911  0F8A  1283               	bcf	3,5	;RP0=0, select bank0
  4912  0F8B  1303               	bcf	3,6	;RP1=0, select bank0
  4913  0F8C  1697               	bsf	23,5	;volatile
  4914  0F8D  2F91               	goto	u143_24
  4915  0F8E                     u142_20:
  4916  0F8E  1283               	bcf	3,5	;RP0=0, select bank0
  4917  0F8F  1303               	bcf	3,6	;RP1=0, select bank0
  4918  0F90  1297               	bcf	23,5	;volatile
  4919  0F91                     u143_24:
  4920                           
  4921                           ;proyecto_final.c: 612:         CCP1CONbits.DC1B0 = ADRESL>>7;
  4922  0F91  1683               	bsf	3,5	;RP0=1, select bank1
  4923  0F92  1303               	bcf	3,6	;RP1=0, select bank1
  4924  0F93  081E               	movf	30,w	;volatile
  4925  0F94  00F6               	movwf	??_IOCB_interrupt
  4926  0F95  3007               	movlw	7
  4927  0F96                     u144_25:
  4928  0F96  1003               	clrc
  4929  0F97  0CF6               	rrf	??_IOCB_interrupt,f
  4930  0F98  3EFF               	addlw	-1
  4931  0F99  1D03               	skipz
  4932  0F9A  2F96               	goto	u144_25
  4933  0F9B  0876               	movf	??_IOCB_interrupt,w
  4934  0F9C  00F7               	movwf	??_IOCB_interrupt+1
  4935  0F9D  0EF7               	swapf	??_IOCB_interrupt+1,f
  4936  0F9E  1283               	bcf	3,5	;RP0=0, select bank0
  4937  0F9F  1303               	bcf	3,6	;RP1=0, select bank0
  4938  0FA0  0817               	movf	23,w	;volatile
  4939  0FA1  0677               	xorwf	??_IOCB_interrupt+1,w
  4940  0FA2  39EF               	andlw	-17
  4941  0FA3  0677               	xorwf	??_IOCB_interrupt+1,w
  4942  0FA4  0097               	movwf	23	;volatile
  4943  0FA5                     i1l1842:
  4944                           
  4945                           ;proyecto_final.c: 614:         _delay((unsigned long)((10)*(8000000/4000.0)));
  4946  0FA5  301A               	movlw	26
  4947  0FA6  00F7               	movwf	??_IOCB_interrupt+1
  4948  0FA7  30F8               	movlw	248
  4949  0FA8  00F6               	movwf	??_IOCB_interrupt
  4950  0FA9                     u255_27:
  4951  0FA9  0BF6               	decfsz	??_IOCB_interrupt,f
  4952  0FAA  2FA9               	goto	u255_27
  4953  0FAB  0BF7               	decfsz	??_IOCB_interrupt+1,f
  4954  0FAC  2FA9               	goto	u255_27
  4955  0FAD  0000               	nop
  4956  0FAE                     i1l1844:
  4957                           
  4958                           ;proyecto_final.c: 616:         PORTD = readFromEEPROM(leer);
  4959  0FAE  087D               	movf	_leer,w
  4960  0FAF  00F6               	movwf	??_IOCB_interrupt
  4961  0FB0  01F7               	clrf	??_IOCB_interrupt+1
  4962  0FB1  0876               	movf	??_IOCB_interrupt,w
  4963  0FB2  00F0               	movwf	readFromEEPROM@address
  4964  0FB3  0877               	movf	??_IOCB_interrupt+1,w
  4965  0FB4  00F1               	movwf	readFromEEPROM@address+1
  4966  0FB5  120A  118A  24E0  120A  158A  	fcall	_readFromEEPROM
  4967  0FBA  0870               	movf	?_readFromEEPROM,w
  4968  0FBB  1283               	bcf	3,5	;RP0=0, select bank0
  4969  0FBC  1303               	bcf	3,6	;RP1=0, select bank0
  4970  0FBD  0088               	movwf	8	;volatile
  4971  0FBE                     i1l1846:
  4972                           
  4973                           ;proyecto_final.c: 618:         if(leer == 0x17){
  4974  0FBE  3017               	movlw	23
  4975  0FBF  067D               	xorwf	_leer,w
  4976  0FC0  1D03               	btfss	3,2
  4977  0FC1  2FC3               	goto	u145_21
  4978  0FC2  2FC4               	goto	u145_20
  4979  0FC3                     u145_21:
  4980  0FC3  2FC9               	goto	i1l1850
  4981  0FC4                     u145_20:
  4982  0FC4                     i1l1848:
  4983                           
  4984                           ;proyecto_final.c: 619:                 leer = 0x10;
  4985  0FC4  3010               	movlw	16
  4986  0FC5  00F6               	movwf	??_IOCB_interrupt
  4987  0FC6  0876               	movf	??_IOCB_interrupt,w
  4988  0FC7  00FD               	movwf	_leer
  4989                           
  4990                           ;proyecto_final.c: 620:         }else{
  4991  0FC8  2FCD               	goto	i1l264
  4992  0FC9                     i1l1850:
  4993                           
  4994                           ;proyecto_final.c: 621:             leer++;
  4995  0FC9  3001               	movlw	1
  4996  0FCA  00F6               	movwf	??_IOCB_interrupt
  4997  0FCB  0876               	movf	??_IOCB_interrupt,w
  4998  0FCC  07FD               	addwf	_leer,f
  4999  0FCD                     i1l264:	
  5000                           ;proyecto_final.c: 622:         }
  5001                           
  5002                           
  5003                           ;proyecto_final.c: 625:         CCPR2L = (PORTD>>1) + 128;
  5004  0FCD  0808               	movf	8,w	;volatile
  5005  0FCE  00F6               	movwf	??_IOCB_interrupt
  5006  0FCF  1003               	clrc
  5007  0FD0  0C76               	rrf	??_IOCB_interrupt,w
  5008  0FD1  3E80               	addlw	128
  5009  0FD2  009B               	movwf	27	;volatile
  5010  0FD3                     i1l1852:
  5011                           
  5012                           ;proyecto_final.c: 626:         CCP2CONbits.DC2B1 = PORTDbits.RD0;
  5013  0FD3  1808               	btfsc	8,0	;volatile
  5014  0FD4  2FD6               	goto	u146_21
  5015  0FD5  2FDA               	goto	u146_20
  5016  0FD6                     u146_21:
  5017  0FD6  1283               	bcf	3,5	;RP0=0, select bank0
  5018  0FD7  1303               	bcf	3,6	;RP1=0, select bank0
  5019  0FD8  169D               	bsf	29,5	;volatile
  5020  0FD9  2FDD               	goto	u147_24
  5021  0FDA                     u146_20:
  5022  0FDA  1283               	bcf	3,5	;RP0=0, select bank0
  5023  0FDB  1303               	bcf	3,6	;RP1=0, select bank0
  5024  0FDC  129D               	bcf	29,5	;volatile
  5025  0FDD                     u147_24:
  5026                           
  5027                           ;proyecto_final.c: 627:         CCP2CONbits.DC2B0 = ADRESL>>7;
  5028  0FDD  1683               	bsf	3,5	;RP0=1, select bank1
  5029  0FDE  1303               	bcf	3,6	;RP1=0, select bank1
  5030  0FDF  081E               	movf	30,w	;volatile
  5031  0FE0  00F6               	movwf	??_IOCB_interrupt
  5032  0FE1  3007               	movlw	7
  5033  0FE2                     u148_25:
  5034  0FE2  1003               	clrc
  5035  0FE3  0CF6               	rrf	??_IOCB_interrupt,f
  5036  0FE4  3EFF               	addlw	-1
  5037  0FE5  1D03               	skipz
  5038  0FE6  2FE2               	goto	u148_25
  5039  0FE7  0876               	movf	??_IOCB_interrupt,w
  5040  0FE8  00F7               	movwf	??_IOCB_interrupt+1
  5041  0FE9  0EF7               	swapf	??_IOCB_interrupt+1,f
  5042  0FEA  1283               	bcf	3,5	;RP0=0, select bank0
  5043  0FEB  1303               	bcf	3,6	;RP1=0, select bank0
  5044  0FEC  081D               	movf	29,w	;volatile
  5045  0FED  0677               	xorwf	??_IOCB_interrupt+1,w
  5046  0FEE  39EF               	andlw	-17
  5047  0FEF  0677               	xorwf	??_IOCB_interrupt+1,w
  5048  0FF0  009D               	movwf	29	;volatile
  5049  0FF1                     i1l1854:
  5050                           
  5051                           ;proyecto_final.c: 630:         _delay((unsigned long)((5000)*(8000000/4000.0)));
  5052  0FF1  3033               	movlw	51
  5053  0FF2  00F8               	movwf	??_IOCB_interrupt+2
  5054  0FF3  30BB               	movlw	187
  5055  0FF4  00F7               	movwf	??_IOCB_interrupt+1
  5056  0FF5  30DF               	movlw	223
  5057  0FF6  00F6               	movwf	??_IOCB_interrupt
  5058  0FF7                     u256_27:
  5059  0FF7  0BF6               	decfsz	??_IOCB_interrupt,f
  5060  0FF8  2FF7               	goto	u256_27
  5061  0FF9  0BF7               	decfsz	??_IOCB_interrupt+1,f
  5062  0FFA  2FF7               	goto	u256_27
  5063  0FFB  0BF8               	decfsz	??_IOCB_interrupt+2,f
  5064  0FFC  2FF7               	goto	u256_27
  5065  0FFD  2FFE               	nop2
  5066  0FFE                     i1l1856:
  5067                           
  5068                           ;proyecto_final.c: 634:     INTCONbits.RBIF = 0;
  5069  0FFE  100B               	bcf	11,0	;volatile
  5070  0FFF                     i1l265:
  5071  0FFF  0008               	return
  5072  1000                     __end_of_IOCB_interrupt:
  5073                           
  5074                           	psect	text14
  5075  04E0                     __ptext14:	
  5076 ;; *************** function _readFromEEPROM *****************
  5077 ;; Defined at:
  5078 ;;		line 489 in file "proyecto_final.c"
  5079 ;; Parameters:    Size  Location     Type
  5080 ;;  address         2    0[COMMON] int 
  5081 ;; Auto vars:     Size  Location     Type
  5082 ;;  data            2    4[COMMON] int 
  5083 ;; Return value:  Size  Location     Type
  5084 ;;                  2    0[COMMON] int 
  5085 ;; Registers used:
  5086 ;;		wreg
  5087 ;; Tracked objects:
  5088 ;;		On entry : 0/0
  5089 ;;		On exit  : 0/0
  5090 ;;		Unchanged: 0/0
  5091 ;; Data sizes:     COMMON   BANK0   BANK1   BANK3   BANK2
  5092 ;;      Params:         2       0       0       0       0
  5093 ;;      Locals:         2       0       0       0       0
  5094 ;;      Temps:          2       0       0       0       0
  5095 ;;      Totals:         6       0       0       0       0
  5096 ;;Total ram usage:        6 bytes
  5097 ;; Hardware stack levels used:    1
  5098 ;; This function calls:
  5099 ;;		Nothing
  5100 ;; This function is called by:
  5101 ;;		_IOCB_interrupt
  5102 ;; This function uses a non-reentrant model
  5103 ;;
  5104                           
  5105                           
  5106                           ;psect for function _readFromEEPROM
  5107  04E0                     _readFromEEPROM:
  5108  04E0                     i1l1648:	
  5109                           ;incstack = 0
  5110                           ; Regs used in _readFromEEPROM: [wreg]
  5111                           
  5112                           
  5113                           ;proyecto_final.c: 490:  EEADR = address;
  5114  04E0  0870               	movf	readFromEEPROM@address,w
  5115  04E1  1283               	bcf	3,5	;RP0=0, select bank2
  5116  04E2  1703               	bsf	3,6	;RP1=1, select bank2
  5117  04E3  008D               	movwf	13	;volatile
  5118  04E4                     i1l1650:
  5119                           
  5120                           ;proyecto_final.c: 491:  EECON1bits.EEPGD = 0;
  5121  04E4  1683               	bsf	3,5	;RP0=1, select bank3
  5122  04E5  1703               	bsf	3,6	;RP1=1, select bank3
  5123  04E6  138C               	bcf	12,7	;volsfr
  5124  04E7                     i1l1652:
  5125                           
  5126                           ;proyecto_final.c: 492:  EECON1bits.RD = 1;
  5127  04E7  140C               	bsf	12,0	;volsfr
  5128                           
  5129                           ;proyecto_final.c: 493:  int data = EEDATA;
  5130  04E8  1283               	bcf	3,5	;RP0=0, select bank2
  5131  04E9  1703               	bsf	3,6	;RP1=1, select bank2
  5132  04EA  080C               	movf	12,w	;volatile
  5133  04EB  00F2               	movwf	??_readFromEEPROM
  5134  04EC  01F3               	clrf	??_readFromEEPROM+1
  5135  04ED  0872               	movf	??_readFromEEPROM,w
  5136  04EE  00F4               	movwf	readFromEEPROM@data
  5137  04EF  0873               	movf	??_readFromEEPROM+1,w
  5138  04F0  00F5               	movwf	readFromEEPROM@data+1
  5139                           
  5140                           ;proyecto_final.c: 495:  return data;
  5141  04F1  0875               	movf	readFromEEPROM@data+1,w
  5142  04F2  00F1               	movwf	?_readFromEEPROM+1
  5143  04F3  0874               	movf	readFromEEPROM@data,w
  5144  04F4  00F0               	movwf	?_readFromEEPROM
  5145  04F5                     i1l235:
  5146  04F5  0008               	return
  5147  04F6                     __end_of_readFromEEPROM:
  5148  007E                     btemp	set	126	;btemp
  5149  007E                     wtemp0	set	126
  5150                           
  5151                           	psect	config
  5152                           
  5153                           ;Config register CONFIG1 @ 0x2007
  5154                           ;	Oscillator Selection bits
  5155                           ;	FOSC = INTRC_NOCLKOUT, INTOSCIO oscillator: I/O function on RA6/OSC2/CLKOUT pin, I/O f
      +                          unction on RA7/OSC1/CLKIN
  5156                           ;	Watchdog Timer Enable bit
  5157                           ;	WDTE = OFF, WDT disabled and can be enabled by SWDTEN bit of the WDTCON register
  5158                           ;	Power-up Timer Enable bit
  5159                           ;	PWRTE = ON, PWRT enabled
  5160                           ;	RE3/MCLR pin function select bit
  5161                           ;	MCLRE = OFF, RE3/MCLR pin function is digital input, MCLR internally tied to VDD
  5162                           ;	Code Protection bit
  5163                           ;	CP = OFF, Program memory code protection is disabled
  5164                           ;	Data Code Protection bit
  5165                           ;	CPD = OFF, Data memory code protection is disabled
  5166                           ;	Brown Out Reset Selection bits
  5167                           ;	BOREN = OFF, BOR disabled
  5168                           ;	Internal External Switchover bit
  5169                           ;	IESO = OFF, Internal/External Switchover mode is disabled
  5170                           ;	Fail-Safe Clock Monitor Enabled bit
  5171                           ;	FCMEN = OFF, Fail-Safe Clock Monitor is disabled
  5172                           ;	Low Voltage Programming Enable bit
  5173                           ;	LVP = OFF, RB3 pin has digital I/O, HV on MCLR must be used for programming
  5174                           ;	In-Circuit Debugger Mode bit
  5175                           ;	DEBUG = 0x1, unprogrammed default
  5176  2007                     	org	8199
  5177  2007  20C4               	dw	8388
  5178                           
  5179                           ;Config register CONFIG2 @ 0x2008
  5180                           ;	Brown-out Reset Selection bit
  5181                           ;	BOR4V = BOR40V, Brown-out Reset set to 4.0V
  5182                           ;	Flash Program Memory Self Write Enable bits
  5183                           ;	WRT = OFF, Write protection off
  5184  2008                     	org	8200
  5185  2008  3FFF               	dw	16383

Data Sizes:
    Strings     589
    Constant    0
    Data        5
    BSS         21
    Persistent  0
    Stack       0

Auto Spaces:
    Space          Size  Autos    Used
    COMMON           14     13      14
    BANK0            80     16      41
    BANK1            80      0       0
    BANK3            96      0       0
    BANK2            96      0       0

Pointer List with Targets:

    strlen@s	PTR const unsigned char  size(2) Largest target is 69
		 -> STR_18(CODE[49]), STR_17(CODE[32]), STR_16(CODE[69]), STR_15(CODE[42]), 
		 -> STR_14(CODE[52]), STR_13(CODE[55]), STR_12(CODE[45]), STR_11(CODE[39]), 
		 -> STR_10(CODE[45]), STR_9(CODE[38]), STR_8(CODE[30]), STR_7(CODE[25]), 
		 -> STR_6(CODE[18]), STR_5(CODE[19]), STR_4(CODE[19]), STR_3(CODE[27]), 
		 -> STR_2(CODE[30]), STR_1(CODE[49]), 

    strlen@cp	PTR const unsigned char  size(2) Largest target is 69
		 -> STR_18(CODE[49]), STR_17(CODE[32]), STR_16(CODE[69]), STR_15(CODE[42]), 
		 -> STR_14(CODE[52]), STR_13(CODE[55]), STR_12(CODE[45]), STR_11(CODE[39]), 
		 -> STR_10(CODE[45]), STR_9(CODE[38]), STR_8(CODE[30]), STR_7(CODE[25]), 
		 -> STR_6(CODE[18]), STR_5(CODE[19]), STR_4(CODE[19]), STR_3(CODE[27]), 
		 -> STR_2(CODE[30]), STR_1(CODE[49]), 

    showString@var	PTR unsigned char  size(2) Largest target is 69
		 -> STR_18(CODE[49]), STR_17(CODE[32]), STR_16(CODE[69]), STR_15(CODE[42]), 
		 -> STR_14(CODE[52]), STR_13(CODE[55]), STR_12(CODE[45]), STR_11(CODE[39]), 
		 -> STR_10(CODE[45]), STR_9(CODE[38]), STR_8(CODE[30]), STR_7(CODE[25]), 
		 -> STR_6(CODE[18]), STR_5(CODE[19]), STR_4(CODE[19]), STR_3(CODE[27]), 
		 -> STR_2(CODE[30]), STR_1(CODE[49]), 


Critical Paths under _main in COMMON

    None.

Critical Paths under _isr in COMMON

    _isr->_IOCB_interrupt
    _IOCB_interrupt->_readFromEEPROM

Critical Paths under _main in BANK0

    _main->_showString
    _showString->_strlen
    _setup->_config_io

Critical Paths under _isr in BANK0

    None.

Critical Paths under _main in BANK1

    None.

Critical Paths under _isr in BANK1

    None.

Critical Paths under _main in BANK3

    None.

Critical Paths under _isr in BANK3

    None.

Critical Paths under _main in BANK2

    None.

Critical Paths under _isr in BANK2

    None.

Call Graph Tables:

 ---------------------------------------------------------------------------------
 (Depth) Function   	        Calls       Base Space   Used Autos Params    Refs
 ---------------------------------------------------------------------------------
 (0) _main                                                 5     5      0    3466
                                             11 BANK0      5     5      0
                            ___awdiv
                             ___wmul
                       _dec_to_ascii
                              _setup
                         _showString
                      _writeToEEPROM
 ---------------------------------------------------------------------------------
 (1) _writeToEEPROM                                        4     0      4     348
                                              0 BANK0      4     0      4
 ---------------------------------------------------------------------------------
 (1) _showString                                           7     5      2    1624
                                              4 BANK0      7     5      2
                             _strlen
 ---------------------------------------------------------------------------------
 (2) _strlen                                               4     2      2     166
                                              0 BANK0      4     2      2
 ---------------------------------------------------------------------------------
 (1) _setup                                                0     0      0       0
                  _config_int_enable
                          _config_io
                        _config_iocb
                       _config_reloj
 ---------------------------------------------------------------------------------
 (2) _config_reloj                                         0     0      0       0
 ---------------------------------------------------------------------------------
 (2) _config_iocb                                          0     0      0       0
 ---------------------------------------------------------------------------------
 (2) _config_io                                            1     1      0       0
                                              0 BANK0      1     1      0
 ---------------------------------------------------------------------------------
 (2) _config_int_enable                                    0     0      0       0
 ---------------------------------------------------------------------------------
 (1) _dec_to_ascii                                         2     0      2     448
                                              0 BANK0      2     0      2
 ---------------------------------------------------------------------------------
 (1) ___wmul                                               6     2      4     396
                                              0 BANK0      6     2      4
 ---------------------------------------------------------------------------------
 (1) ___awdiv                                              9     5      4     604
                                              0 BANK0      9     5      4
 ---------------------------------------------------------------------------------
 Estimated maximum stack depth 2
 ---------------------------------------------------------------------------------
 (Depth) Function   	        Calls       Base Space   Used Autos Params    Refs
 ---------------------------------------------------------------------------------
 (3) _isr                                                  4     4      0     197
                                              9 COMMON     4     4      0
                     _IOCB_interrupt
 ---------------------------------------------------------------------------------
 (4) _IOCB_interrupt                                       3     3      0     197
                                              6 COMMON     3     3      0
                     _readFromEEPROM
 ---------------------------------------------------------------------------------
 (5) _readFromEEPROM                                       6     4      2     197
                                              0 COMMON     6     4      2
 ---------------------------------------------------------------------------------
 Estimated maximum stack depth 5
 ---------------------------------------------------------------------------------

 Call Graph Graphs:

 _main (ROOT)
   ___awdiv
   ___wmul
   _dec_to_ascii
   _setup
     _config_int_enable
     _config_io
     _config_iocb
     _config_reloj
   _showString
     _strlen
   _writeToEEPROM

 _isr (ROOT)
   _IOCB_interrupt
     _readFromEEPROM

 Address spaces:
Name               Size   Autos  Total    Cost      Usage
BANK3               60      0       0       9        0.0%
BITBANK3            60      0       0       8        0.0%
SFR3                 0      0       0       4        0.0%
BITSFR3              0      0       0       4        0.0%
BANK2               60      0       0      11        0.0%
BITBANK2            60      0       0      10        0.0%
SFR2                 0      0       0       5        0.0%
BITSFR2              0      0       0       5        0.0%
BANK1               50      0       0       7        0.0%
BITBANK1            50      0       0       6        0.0%
SFR1                 0      0       0       2        0.0%
BITSFR1              0      0       0       2        0.0%
BANK0               50     10      29       5       51.2%
BITBANK0            50      0       0       4        0.0%
SFR0                 0      0       0       1        0.0%
BITSFR0              0      0       0       1        0.0%
COMMON               E      D       E       1      100.0%
BITCOMMON            E      0       0       0        0.0%
CODE                 0      0       0       0        0.0%
DATA                 0      0      37      12        0.0%
ABS                  0      0      37       3        0.0%
NULL                 0      0       0       0        0.0%
STACK                0      0       0       2        0.0%
EEDATA             100      0       0       0        0.0%


Microchip Technology PIC Macro Assembler V2.31 build 20201012212115 
Symbol Table                                                                                   Fri Jun 04 17:04:07 2021

                         pc 0002                ___awdiv@sign 003B                          fsr 0004  
       ___wmul@multiplicand 0037                         l221 0ED4                         l208 0ED4  
                       l232 07FC                         l229 0CE9                         l271 0E42  
                       l191 0316                         l183 02D7                         l280 0CBC  
                       l273 0E46                         l274 0E5B                         l372 0D1C  
                       l268 0CC3                         l525 0DF2                         l277 0CD4  
                       l374 0D34                         l286 0D89                         l826 0D0D  
                       _PR2 0092                         _isr 074D                         fsr0 0004  
                       indf 0000  __size_of_config_int_enable 0011               showString@var 0039  
                      l2000 019A                        l2010 01C0                        l2002 01A3  
                      l2100 0306                        l2020 01EB                        l2012 01C1  
                      l2004 01B4                        l2102 030C                        l2030 0217  
                      l2022 01ED                        l2014 01C7                        l2006 01B5  
                      l2200 049B                        l2120 032F                        l2112 031C  
                      l2104 030E                        l2032 0219                        l2024 01F3  
                      l2016 01D1                        l2008 01BA                        l2040 023E  
                      l2210 04CD                        l2202 04A3                        l2130 0360  
                      l2122 0346                        l2114 032A                        l2106 0314  
                      l2050 0264                        l2042 0244                        l2034 021F  
                      l2026 01FD                        l2018 01E5                        l2212 04D2  
                      l2204 04AE                        l2140 037E                        l2132 0364  
                      l2116 032D                        l2124 0353                        l2060 0282  
                      l2052 026A                        l2044 0258                        l2036 0229  
                      l2028 0211                        l2214 04DA                        l2206 04B7  
                      l2150 03C8                        l2142 0385                        l2134 036B  
                      l2118 032E                        l2126 0356                        l2062 0293  
                      l2070 02A6                        l2054 0270                        l2046 025E  
                      l2038 023D                        l1600 0E26                        l2208 04C4  
                      l2160 0406                        l2152 03DF                        l2144 038B  
                      l2136 036E                        l2128 035C                        l2080 02CE  
                      l2072 02AC                        l2064 029B                        l2056 0276  
                      l2048 025F                        l1610 0E38                        l1602 0E2A  
                      l2170 043E                        l2162 0415                        l2154 03E3  
                      l2146 039E                        l2138 0375                        l2090 02F2  
                      l2074 02BD                        l2082 02D0                        l2066 029D  
                      l2058 027C                        l1620 0E3F                        l1612 0E3A  
                      l1604 0E2E                        l2180 045A                        l2172 0449  
                      l2164 0420                        l2156 03EC                        l2148 03B5  
                      l2092 02F8                        l2084 02D6                        l2076 02C5  
                      l2068 02A4                        l1710 0E80                        l1702 0E74  
                      l1630 0E53                        l1622 0E40                        l1614 0E3C  
                      l1606 0E32                        l2190 0473                        l2182 0463  
                      l2166 042F                        l2158 03FB                        l2094 02F9  
                      l2078 02C7                        l2086 02D8                        l1720 0E93  
                      l1712 0E87                        l1704 0E7B                        l1640 0CC4  
                      l1632 0E56                        l1624 0E41                        l1616 0E3D  
                      l1608 0E36                        l2192 0479                        l2168 043A  
                      l2096 02FE                        l2088 02DE                        l2176 044E  
                      l2184 0467                        l1634 0E57                        l1626 0E4E  
                      l1618 0E3E                        l1570 0DF3                        l1642 0CB7  
                      l2194 0480                        l2186 046B                        l2178 0454  
                      l2098 0304                        l1900 0DBF                        l1636 0E58  
                      l1628 0E52                        l1580 0E02                        l1572 0DF6  
                      l1644 0CBB                        l1660 0CF7                        l2196 048D  
                      l2188 046F                        l1902 0DD0                        l1910 0DE4  
                      l1750 0EBC                        l1742 0EB0                        l1734 0EA4  
                      l1726 0E98                        l1718 0E8C                        l1590 0E11  
                      l1582 0E05                        l1574 0DF8                        l1670 0CDF  
                      l1662 0D05                        l2198 0496                        l1912 0DE9  
                      l1904 0DD6                        l1760 0ECF                        l1752 0EC3  
                      l1744 0EB7                        l1736 0EAB                        l1728 0E9F  
                      l1592 0E12                        l1584 0E08                        l1576 0DFD  
                      l1568 0CBD                        l1656 0CEA                        l1680 0D5C  
                      l1920 003F                        l1914 0DEE                        l1906 0DD7  
                      l1594 0E18                        l1586 0E0D                        l1578 0DFF  
                      l1666 0CD5                        l1658 0CF1                        l1682 0D64  
                      l1674 0D35                        l1770 07F4                        l1930 005D  
                      l1922 0042                        l1908 0DDE                        l1860 0D0E  
                      l1596 0E1C                        l1588 0E10                        l1668 0CDA  
                      l1684 0D79                        l1676 0D3A                        l1772 07F9  
                      l1764 07E4                        l1932 0062                        l1924 0046  
                      l1940 0079                        l1870 0D30                        l1862 0D12  
                      l1758 0EC8                        l1694 0E69                        l1686 0E5C  
                      l1598 0E23                        l1678 0D52                        l1774 07FA  
                      l1766 07F0                        l1950 0096                        l1942 007D  
                      l1934 006B                        l1926 004F                        l1918 003A  
                      l1880 0D96                        l1864 0D16                        l1696 0E6F  
                      l1688 0E64                        l1776 07FB                        l1768 07F3  
                      l1960 00F1                        l1952 009A                        l1944 0083  
                      l1936 006F                        l1928 0054                        l1890 0DA7  
                      l1882 0D98                        l1874 0D8A                        l1866 0D23  
                      l1970 0117                        l1962 00F7                        l1954 009C  
                      l1946 008C                        l1938 0076                        l1892 0DAD  
                      l1884 0D9C                        l1876 0D8D                        l1868 0D2A  
                      l1972 011D                        l1980 0142                        l1964 010B  
                      l1956 00A2                        l1948 0090                        l1894 0DB0  
                      l1886 0DA1                        l1878 0D91                        l1982 0148  
                      l1990 016E                        l1974 011E                        l1966 0111  
                      l1958 00ED                        l1896 0DB7                        l1888 0DA5  
                      l1992 0174                        l1984 014A                        l1976 0124  
                      l1968 0112                        l1898 0DBB                        l1994 0176  
                      l1986 0150                        l1978 012E                        l1996 017C  
                      l1988 015A                        l1998 0186                        ?_isr 0070  
                      STR_1 05B0                        STR_2 06C3                        STR_3 06E1  
                      STR_4 0728                        STR_5 0715                        STR_6 073B  
                      STR_7 06FC                        STR_8 06A5                        STR_9 065F  
                      u1200 0D44                        u2000 026A                        u2001 0269  
                      u1210 0D79                        u2010 0276                        u1211 0D78  
                      u2011 0275                        u1300 0EC3                        u1220 0E64  
                      u2100 02FE                        u2020 0282                        u1301 0EC2  
                      u1221 0E63                        u2101 02FD                        u2021 0281  
                      u1310 0ECF                        u1230 0E6F                        u2110 0304  
                      u2030 029B                        u1311 0ECE                        u1231 0E6E  
                      u1215 0D75                        u2111 0303                        u2031 029A  
                      u1240 0E7B                        u2200 0479                        u2120 030C  
                      u2040 02A4                        u1241 0E7A                        u2201 0478  
                      u2121 030B                        u2041 02A3                        u1250 0E87  
                      u2210 0496                        u2130 0314                        u2050 02AC  
                      u1251 0E86                        u2211 0495                        u2131 0313  
                      u2051 02AB                        u1260 0E93                        u1180 0E46  
                      u2220 04CD                        u2140 0353                        u2060 02C5  
                      _IOCB 0096                        u1261 0E92                        u1181 0E45  
                      u2221 04CC                        u2141 0352                        u2061 02C4  
                      u1270 0E9F                        u1190 0D05                        u2150 035C  
                      u2070 02CE                        u1271 0E9E                        u1191 0D04  
                      u2151 035B                        u2071 02CD                        u1520 0D30  
                      u1280 0EAB                        u2160 0454                        u2080 02D6  
                      u1521 0D2F                        u1505 0D1D                        u1281 0EAA  
                      u2161 0453                        u2145 034F                        u2081 02D5  
                      u1610 0DE4                        u1530 0D91                        u1290 0EB7  
                      u2170 045A                        u2090 02DE                        u1611 0DE3  
                      u1531 0D90                        u1515 0D24                        u1291 0EB6  
                      u2171 0459                        u2091 02DD                        u1620 0DE9  
                      u1540 0D9C                        u2180 046B                        u1700 00A2  
                      u1621 0DE8                        u1605 0DD8                        u1541 0D9B  
                      u2181 046A                        u1701 00A1                        u1550 0DAD  
                      u2190 0473                        u1710 00F7                        u1630 0046  
                      u1551 0DAC                        u2191 0472                        u2407 0368  
                      u1711 00F6                        u1631 0045                        u1720 0117  
                      u1640 004F                        u2417 0372                        u1721 0116  
                      u1641 004E                        u1570 0DBF                        u1490 0D16  
                      u1810 0174                        u1730 011D                        u1650 005D  
                      u1571 0DBE                        u1491 0D15                        u2507 0E20  
                      u2427 0382                        u1811 0173                        u1731 011C  
                      u1651 005C                        u1900 01EB                        u1820 0183  
                      u1740 012B                        u1660 006B                        u1565 0DB1  
                      u2437 0401                        u1901 01EA                        u1821 017F  
                      u1805 0161                        u1741 0127                        u2357 0073  
                      u1661 006A                        u1590 0DD0                        u1910 01FA  
                      u1670 007D                        u1591 0DCF                        u2447 041B  
                      u2367 028C                        u1911 01F6                        u1671 007C  
                      u1680 0083                        u1585 0DC0                        u2457 0435  
                      u2377 02B6                        u1681 0082                        u1850 01BA  
                      u1834 0186                        u1770 0148                        u1754 012E  
                      u1690 0096                        u1595 0DCC                        u2467 0444  
                      u2387 0324                        u1851 01B9                        u1771 0147  
                      u1691 0095                        u1940 0217                        u1924 01FD  
                      u1860 01C0                        u1780 0157                        u2477 04A9  
                      u2397 0338                        u1941 0216                        u1861 01BF  
                      u1845 018D                        u1781 0153                        u1765 0135  
                      u1950 0226                        u1870 01CE                        u2487 0D58  
                      u1951 0222                        u1935 0204                        u1871 01CA  
                      u2497 0D81                        u1794 015A                        u1980 0244  
                      u1964 0229                        u1884 01D1                        u1981 0243  
                      u1990 0264                        u1991 0263                        u1975 0230  
                      u1895 01D8                        _WPUB 0095                        _flag 0047  
                      _main 003A                        _leer 007D                        btemp 007E  
            ??_config_reloj 0035                        start 000C              _IOCB_interrupt 0ED5  
                     ??_isr 0079                       ?_main 0070             __end_of___awdiv 0DF3  
                     _EEADR 010D                       STR_10 05E1                       _EEDAT 010C  
                     STR_11 0638                       STR_12 05E1                       STR_13 0545  
                     STR_14 057C                       STR_15 060E                       STR_16 0500  
                     STR_17 0685                       STR_18 05B0                       _ANSEL 0188  
           ___awdiv@divisor 0035                       i1l235 04F5                       i1l262 0F81  
                     i1l264 0FCD                       i1l248 07DD                       i1l265 0FFF  
           ___awdiv@counter 003A                       _RCREG 001A                       _SPBRG 0099  
                     _PORTA 0005                       _PORTB 0006                       _PORTC 0007  
                     _PORTD 0008                       _PORTE 0009                       _TRISA 0085  
                     _TRISB 0086                       _TRISC 0087                       _TRISD 0088  
                     _TRISE 0089                       _TXREG 0019                       _flag2 0030  
                     _setup 0CD5                       main@i 0043                       pclath 000A  
                     status 0003                       wtemp0 007E      __end_of_IOCB_interrupt 1000  
           __initialization 000F                __end_of_main 04E0          readFromEEPROM@data 0074  
     readFromEEPROM@address 0070                      ??_main 0040                      _ADRESH 001E  
                    _ADRESL 009E                      _EEDATA 010C                      _CCPR1L 0015  
                    _CCPR2L 001B                      _EECON2 018D            ___awdiv@dividend 0037  
                    ?_setup 0070                      _ANSELH 0189                      i1l2220 0756  
                    i1l2230 0773                      i1l2222 075C                      i1l2240 07A9  
                    i1l2232 0779                      i1l2224 0760                      i1l2216 074D  
                    i1l2242 07B2                      i1l2250 07DC                      i1l2234 0783  
                    i1l2226 0764                      i1l2218 0751                      i1l2244 07B8  
                    i1l2228 076D                      i1l2236 0798                      i1l2246 07BE  
                    i1l2238 07A1                      i1l1800 0F15                      i1l2248 07C8  
                    i1l1650 04E4                      i1l1810 0F3F                      i1l1802 0F28  
                    i1l1652 04E7                      i1l1820 0F51                      i1l1812 0F45  
                    i1l1804 0F2A                      i1l1830 0F5E                      i1l1822 0F52  
                    i1l1814 0F46                      i1l1806 0F38                      i1l1648 04E0  
                    i1l1840 0F87                      i1l1832 0F62                      i1l1824 0F53  
                    i1l1816 0F47                      i1l1808 0F3B                      i1l1850 0FC9  
                    i1l1842 0FA5                      i1l1834 0F72                      i1l1826 0F57  
                    i1l1818 0F4B                      i1l1852 0FD3                      i1l1844 0FAE  
                    i1l1836 0F78                      i1l1828 0F5B                      i1l1780 0ED5  
                    i1l1854 0FF1                      i1l1846 0FBE                      i1l1838 0F7D  
                    i1l1790 0EF8                      i1l1782 0EDB                      i1l1848 0FC4  
                    i1l1856 0FFE                      i1l1792 0F06                      i1l1784 0EE1  
                    i1l1786 0EE3                      i1l1794 0F09                      i1l1796 0F0D  
                    i1l1788 0EF6                      i1l1798 0F13                      u140_20 0F62  
                    u132_20 0EDB                      u140_21 0F61                      u132_21 0EDA  
                    u141_20 0F78                      u133_20 0EE1                      u141_21 0F77  
                    u133_21 0EE0                      u142_20 0F8E                      u134_20 0F0D  
                    u230_20 07A1                      u142_21 0F8A                      u134_21 0F0C  
                    u230_21 07A0                      u135_20 0F13                      u231_20 07B2  
                    u223_20 0751                      u135_21 0F12                      u231_21 07B1  
                    u223_21 0750                      u143_24 0F91                      u136_20 0F3F  
                    u232_20 07C5                      u224_20 075C                      u136_21 0F3E  
                    u232_21 07C1                      u224_21 075B                      u144_25 0F96  
                    u145_20 0FC4                      u137_20 0F4B                      u225_20 0764  
                    u145_21 0FC3                      u137_21 0F4A                      u225_21 0763  
                    u233_24 07C8                      u146_20 0FDA                      u138_20 0F57  
                    u226_20 076D                      u146_21 0FD6                      u138_21 0F56  
                    u226_21 076C                      u234_25 07CD                      u139_20 0F5B  
                    u227_20 0780                      u139_21 0F5A                      u227_21 077C  
                    u147_24 0FDD                      u251_27 0EEA                      u228_24 0783  
                    u148_25 0FE2                      u252_27 0EFF                      u229_25 0788  
                    u253_27 0F1C                      u254_27 0F31                      u255_27 0FA9  
                    u256_27 0FF7                      _SPBRGH 009A       __size_of_dec_to_ascii 0079  
           ?_IOCB_interrupt 0070           writeToEEPROM@data 0035                      ___wmul 0D0E  
      __size_of_config_iocb 0006                   ??___awdiv 0039            ___awdiv@quotient 003C  
                    _opcion 0034                      _strlen 0CEA                __pdataCOMMON 007D  
      __end_of_config_reloj 0CC4                      saved_w 007E                _dec_to_ascii 0E5C  
    __size_of_writeToEEPROM 0019     __end_of__initialization 0036              __pcstackCOMMON 0070  
              __pidataBANK0 0CB3               __end_of_setup 0CEA     __size_of_readFromEEPROM 0016  
            _OPTION_REGbits 0081          __size_of_config_io 0069                     ??_setup 0036  
                __pbssBANK0 0020                  __pmaintext 003A                     ?___wmul 0035  
             _writeToEEPROM 07E4                  __pintentry 0004               _addressEEPROM 0045  
                   ?_strlen 0035                     _RB3_old 0024                  __stringtab 0800  
            ?_writeToEEPROM 0035           __end_of_config_io 0E5C                     ___awdiv 0D8A  
           __size_of___wmul 0027       __size_of_config_reloj 0007                     __ptext1 07E4  
                   __ptext2 0D35                     __ptext3 0CEA                     __ptext4 0CD5  
                   __ptext5 0CBD                     __ptext6 0CB7                     __ptext7 0DF3  
                   __ptext8 0CC4                     __ptext9 0E5C          _temporal_posicion1 0033  
        _temporal_posicion2 0032             __size_of_strlen 0024                   _T2CONbits 0012  
              __size_of_isr 0097                     clrloop0 04F7        end_of_initialization 0036  
          ??_IOCB_interrupt 0076                _config_reloj 0CBD                   _RCSTAbits 0018  
              __pstringtext 0500                     strlen@s 0035              _readFromEEPROM 04E0  
                 _PORTAbits 0005                   _PORTBbits 0006                  _showString 0D35  
                 _PORTDbits 0008                 showString@i 003E                 _CCP1CONbits 0017  
               _CCP2CONbits 001D                   _TXSTAbits 0098               ??_config_iocb 0035  
           ??_writeToEEPROM 0039      __end_of_readFromEEPROM 04F6              __end_of___wmul 0D35  
      writeToEEPROM@address 0037               __pidataCOMMON 07FD                 _BAUDCTLbits 0187  
            __end_of_strlen 0D0E         start_initialization 000F                 __end_of_isr 07E4  
                  ??___wmul 0039             ?_readFromEEPROM 0070                 __pdataBANK0 0045  
            _valor_centenas 002A         __end_of_config_iocb 0CBD                 ?_showString 0039  
                  ??_strlen 0037                   ___latbits 0002               __pcstackBANK0 0035  
            _valor_unidades 0026                    ?___awdiv 0035                   _eepromVal 0022  
                 _config_io 0DF3                   __pstrings 0800              __size_of_setup 0015  
                 _parpadear 0020           interrupt_function 0004              ___wmul@product 0039  
       __size_of_showString 0055                   clear_ram0 04F6                    _PIE1bits 008C  
               _config_iocb 0CB7                    _PIR1bits 000C                   _valor_pot 002E  
                ?_config_io 0070                  _ADCON0bits 001F                 __stringbase 0812  
                _ADCON1bits 009F           ___wmul@multiplier 0035               ?_dec_to_ascii 0035  
                _EECON1bits 018C               _valor_decenas 0028            __size_of___awdiv 0069  
        __end_of__stringtab 0812              ??_dec_to_ascii 0037                    __ptext10 0D0E  
                  __ptext11 0D8A                    __ptext12 074D                    __ptext13 0ED5  
                  __ptext14 04E0             dec_to_ascii@val 0035           _config_int_enable 0CC4  
        ?_config_int_enable 0070               __size_of_main 04A6         ??_config_int_enable 0035  
          ??_readFromEEPROM 0072                    _var_temp 002C       __end_of_writeToEEPROM 07FD  
   __size_of_IOCB_interrupt 012B                 ??_config_io 0035                ??_showString 003B  
                _INTCONbits 000B   __end_of_config_int_enable 0CD5                    intlevel1 0000  
        __end_of_showString 0D8A                   stringcode 080A                  _OSCCONbits 008F  
                  strlen@cp 0037                    stringtab 0800               ?_config_reloj 0070  
              ?_config_iocb 0070        __end_of_dec_to_ascii 0ED5  
