

Microchip MPLAB XC8 Assembler V2.31 build 20201012212115 
                                                                                               Wed Jun 02 10:29:53 2021

Microchip MPLAB XC8 C Compiler v2.31 (Free license) build 20201012212115 Og1 
     1                           	processor	16F887
     2                           	pagewidth 120
     3                           	opt	flic
     4                           	psect	idataBANK0,global,class=CODE,delta=2,noexec
     5                           	psect	stringtext,global,reloc=256,class=STRCODE,delta=2,noexec
     6                           	psect	cinit,global,class=CODE,merge=1,delta=2
     7                           	psect	bssCOMMON,global,class=COMMON,space=1,delta=1,noexec
     8                           	psect	bssBANK0,global,class=BANK0,space=1,delta=1,noexec
     9                           	psect	dataBANK0,global,class=BANK0,space=1,delta=1,noexec
    10                           	psect	clrtext,global,class=CODE,delta=2
    11                           	psect	cstackCOMMON,global,class=COMMON,space=1,delta=1,noexec
    12                           	psect	cstackBANK0,global,class=BANK0,space=1,delta=1,noexec
    13                           	psect	maintext,global,class=CODE,split=1,delta=2
    14                           	psect	text1,local,class=CODE,merge=1,delta=2
    15                           	psect	text2,local,class=CODE,merge=1,delta=2
    16                           	psect	text3,local,class=CODE,merge=1,delta=2,group=2
    17                           	psect	text4,local,class=CODE,merge=1,delta=2
    18                           	psect	text5,local,class=CODE,merge=1,delta=2
    19                           	psect	text6,local,class=CODE,merge=1,delta=2
    20                           	psect	text7,local,class=CODE,merge=1,delta=2
    21                           	psect	text8,local,class=CODE,merge=1,delta=2
    22                           	psect	text9,local,class=CODE,merge=1,delta=2
    23                           	psect	intentry,global,class=CODE,delta=2
    24                           	psect	text10,local,class=CODE,merge=1,delta=2
    25                           	psect	config,global,abs,ovrld,class=CONFIG,space=4,delta=2,noexec
    26                           	dabs	1,0x7E,2
    27  0000                     
    28                           ; Version 2.20
    29                           ; Generated 12/02/2020 GMT
    30                           ; 
    31                           ; Copyright © 2020, Microchip Technology Inc. and its subsidiaries ("Microchip")
    32                           ; All rights reserved.
    33                           ; 
    34                           ; This software is developed by Microchip Technology Inc. and its subsidiaries ("Microch
      +                          ip").
    35                           ; 
    36                           ; Redistribution and use in source and binary forms, with or without modification, are
    37                           ; permitted provided that the following conditions are met:
    38                           ; 
    39                           ;     1. Redistributions of source code must retain the above copyright notice, this lis
      +                          t of
    40                           ;        conditions and the following disclaimer.
    41                           ; 
    42                           ;     2. Redistributions in binary form must reproduce the above copyright notice, this 
      +                          list
    43                           ;        of conditions and the following disclaimer in the documentation and/or other
    44                           ;        materials provided with the distribution.
    45                           ; 
    46                           ;     3. Microchip's name may not be used to endorse or promote products derived from th
      +                          is
    47                           ;        software without specific prior written permission.
    48                           ; 
    49                           ; THIS SOFTWARE IS PROVIDED BY MICROCHIP "AS IS" AND ANY EXPRESS OR IMPLIED WARRANTIES,
    50                           ; INCLUDING, BUT NOT LIMITED TO, THE IMPLIED WARRANTIES OF MERCHANTABILITY AND FITNESS F
      +                          OR
    51                           ; PURPOSE ARE DISCLAIMED.  IN NO EVENT SHALL MICROCHIP BE LIABLE FOR ANY DIRECT, INDIREC
      +                          T,
    52                           ; INCIDENTAL, SPECIAL, EXEMPLARY, OR CONSEQUENTIAL DAMAGES (INCLUDING BUT NOT LIMITED TO
    53                           ; PROCUREMENT OF SUBSTITUTE GOODS OR SERVICES; LOSS OF USE, DATA OR PROFITS; OR BUSINESS
    54                           ; INTERRUPTION) HOWSOEVER CAUSED AND ON ANY THEORY OF LIABILITY, WHETHER IN CONTRACT, ST
      +                          RICT
    55                           ; LIABILITY, OR TORT (INCLUDING NEGLIGENCE OR OTHERWISE) ARISING IN ANY WAY OUT OF THE U
      +                          SE OF
    56                           ; THIS SOFTWARE, EVEN IF ADVISED OF THE POSSIBILITY OF SUCH DAMAGE.
    57                           ; 
    58                           ; 
    59                           ; Code-generator required, PIC16F887 Definitions
    60                           ; 
    61                           ; SFR Addresses
    62  0000                     	;# 
    63  0001                     	;# 
    64  0002                     	;# 
    65  0003                     	;# 
    66  0004                     	;# 
    67  0005                     	;# 
    68  0006                     	;# 
    69  0007                     	;# 
    70  0008                     	;# 
    71  0009                     	;# 
    72  000A                     	;# 
    73  000B                     	;# 
    74  000C                     	;# 
    75  000D                     	;# 
    76  000E                     	;# 
    77  000E                     	;# 
    78  000F                     	;# 
    79  0010                     	;# 
    80  0011                     	;# 
    81  0012                     	;# 
    82  0013                     	;# 
    83  0014                     	;# 
    84  0015                     	;# 
    85  0015                     	;# 
    86  0016                     	;# 
    87  0017                     	;# 
    88  0018                     	;# 
    89  0019                     	;# 
    90  001A                     	;# 
    91  001B                     	;# 
    92  001B                     	;# 
    93  001C                     	;# 
    94  001D                     	;# 
    95  001E                     	;# 
    96  001F                     	;# 
    97  0081                     	;# 
    98  0085                     	;# 
    99  0086                     	;# 
   100  0087                     	;# 
   101  0088                     	;# 
   102  0089                     	;# 
   103  008C                     	;# 
   104  008D                     	;# 
   105  008E                     	;# 
   106  008F                     	;# 
   107  0090                     	;# 
   108  0091                     	;# 
   109  0092                     	;# 
   110  0093                     	;# 
   111  0093                     	;# 
   112  0093                     	;# 
   113  0094                     	;# 
   114  0095                     	;# 
   115  0096                     	;# 
   116  0097                     	;# 
   117  0098                     	;# 
   118  0099                     	;# 
   119  009A                     	;# 
   120  009B                     	;# 
   121  009C                     	;# 
   122  009D                     	;# 
   123  009E                     	;# 
   124  009F                     	;# 
   125  0105                     	;# 
   126  0107                     	;# 
   127  0108                     	;# 
   128  0109                     	;# 
   129  010C                     	;# 
   130  010C                     	;# 
   131  010D                     	;# 
   132  010E                     	;# 
   133  010F                     	;# 
   134  0185                     	;# 
   135  0187                     	;# 
   136  0188                     	;# 
   137  0189                     	;# 
   138  018C                     	;# 
   139  018D                     	;# 
   140  0000                     	;# 
   141  0001                     	;# 
   142  0002                     	;# 
   143  0003                     	;# 
   144  0004                     	;# 
   145  0005                     	;# 
   146  0006                     	;# 
   147  0007                     	;# 
   148  0008                     	;# 
   149  0009                     	;# 
   150  000A                     	;# 
   151  000B                     	;# 
   152  000C                     	;# 
   153  000D                     	;# 
   154  000E                     	;# 
   155  000E                     	;# 
   156  000F                     	;# 
   157  0010                     	;# 
   158  0011                     	;# 
   159  0012                     	;# 
   160  0013                     	;# 
   161  0014                     	;# 
   162  0015                     	;# 
   163  0015                     	;# 
   164  0016                     	;# 
   165  0017                     	;# 
   166  0018                     	;# 
   167  0019                     	;# 
   168  001A                     	;# 
   169  001B                     	;# 
   170  001B                     	;# 
   171  001C                     	;# 
   172  001D                     	;# 
   173  001E                     	;# 
   174  001F                     	;# 
   175  0081                     	;# 
   176  0085                     	;# 
   177  0086                     	;# 
   178  0087                     	;# 
   179  0088                     	;# 
   180  0089                     	;# 
   181  008C                     	;# 
   182  008D                     	;# 
   183  008E                     	;# 
   184  008F                     	;# 
   185  0090                     	;# 
   186  0091                     	;# 
   187  0092                     	;# 
   188  0093                     	;# 
   189  0093                     	;# 
   190  0093                     	;# 
   191  0094                     	;# 
   192  0095                     	;# 
   193  0096                     	;# 
   194  0097                     	;# 
   195  0098                     	;# 
   196  0099                     	;# 
   197  009A                     	;# 
   198  009B                     	;# 
   199  009C                     	;# 
   200  009D                     	;# 
   201  009E                     	;# 
   202  009F                     	;# 
   203  0105                     	;# 
   204  0107                     	;# 
   205  0108                     	;# 
   206  0109                     	;# 
   207  010C                     	;# 
   208  010C                     	;# 
   209  010D                     	;# 
   210  010E                     	;# 
   211  010F                     	;# 
   212  0185                     	;# 
   213  0187                     	;# 
   214  0188                     	;# 
   215  0189                     	;# 
   216  018C                     	;# 
   217  018D                     	;# 
   218                           
   219                           	psect	idataBANK0
   220  0704                     __pidataBANK0:
   221                           
   222                           ;initializer for _addressEEPROM
   223  0704  3410               	retlw	16
   224  0705  3400               	retlw	0
   225                           
   226                           ;initializer for _flag
   227  0706  3401               	retlw	1
   228  0707  3400               	retlw	0
   229                           
   230                           	psect	stringtext
   231  0300                     __pstringtext:
   232  0300                     stringtab:
   233  0300                     __stringtab:
   234                           
   235                           ;	String table - string pointers are 2 bytes each
   236  0300  1BFF               	btfsc	btemp+1,7
   237  0301  2B0A               	ljmp	stringcode
   238  0302  1383               	bcf	3,7
   239  0303  187F               	btfsc	btemp+1,0
   240  0304  1783               	bsf	3,7
   241  0305  0800               	movf	0,w
   242  0306  0A84               	incf	4,f
   243  0307  1903               	skipnz
   244  0308  0AFF               	incf	btemp+1,f
   245  0309  0008               	return
   246  030A                     stringcode:
   247  030A  087F               	movf	btemp+1,w
   248  030B  397F               	andlw	127
   249  030C  008A               	movwf	10
   250  030D  0804               	movf	4,w
   251  030E  0A84               	incf	4,f
   252  030F  1903               	skipnz
   253  0310  0AFF               	incf	btemp+1,f
   254  0311  0082               	movwf	2
   255  0312                     __stringbase:
   256  0312                     __end_of__stringtab:
   257  0312                     _data:
   258  0312  3461               	retlw	97
   259  0313                     __end_of_data:
   260  0019                     _TXREG	set	25
   261  0018                     _RCSTAbits	set	24
   262  0012                     _T2CONbits	set	18
   263  0007                     _PORTC	set	7
   264  0009                     _PORTE	set	9
   265  0006                     _PORTB	set	6
   266  0005                     _PORTAbits	set	5
   267  0005                     _PORTA	set	5
   268  001E                     _ADRESH	set	30
   269  001A                     _RCREG	set	26
   270  000B                     _INTCONbits	set	11
   271  0006                     _PORTBbits	set	6
   272  001D                     _CCP2CONbits	set	29
   273  001B                     _CCPR2L	set	27
   274  0008                     _PORTDbits	set	8
   275  0017                     _CCP1CONbits	set	23
   276  0015                     _CCPR1L	set	21
   277  0008                     _PORTD	set	8
   278  000C                     _PIR1bits	set	12
   279  001F                     _ADCON0bits	set	31
   280  0096                     _IOCB	set	150
   281  008C                     _PIE1bits	set	140
   282  009A                     _SPBRGH	set	154
   283  0099                     _SPBRG	set	153
   284  0098                     _TXSTAbits	set	152
   285  0092                     _PR2	set	146
   286  009F                     _ADCON1bits	set	159
   287  0095                     _WPUB	set	149
   288  0081                     _OPTION_REGbits	set	129
   289  0087                     _TRISC	set	135
   290  0088                     _TRISD	set	136
   291  0089                     _TRISE	set	137
   292  0085                     _TRISA	set	133
   293  0086                     _TRISB	set	134
   294  008F                     _OSCCONbits	set	143
   295  009E                     _ADRESL	set	158
   296  010C                     _EEDAT	set	268
   297  010D                     _EEADR	set	269
   298  0187                     _BAUDCTLbits	set	391
   299  0188                     _ANSEL	set	392
   300  0189                     _ANSELH	set	393
   301  018D                     _EECON2	set	397
   302  018C                     _EECON1bits	set	396
   303  0313                     STR_13:
   304  0313  3445               	retlw	69	;'E'
   305  0314  346C               	retlw	108	;'l'
   306  0315  3469               	retlw	105	;'i'
   307  0316  346A               	retlw	106	;'j'
   308  0317  3461               	retlw	97	;'a'
   309  0318  3420               	retlw	32	;' '
   310  0319  346C               	retlw	108	;'l'
   311  031A  3461               	retlw	97	;'a'
   312  031B  3420               	retlw	32	;' '
   313  031C  3461               	retlw	97	;'a'
   314  031D  3463               	retlw	99	;'c'
   315  031E  3463               	retlw	99	;'c'
   316  031F  3469               	retlw	105	;'i'
   317  0320  34C3               	retlw	-61
   318  0321  34B3               	retlw	-77
   319  0322  346E               	retlw	110	;'n'
   320  0323  3420               	retlw	32	;' '
   321  0324  3471               	retlw	113	;'q'
   322  0325  3475               	retlw	117	;'u'
   323  0326  3465               	retlw	101	;'e'
   324  0327  3420               	retlw	32	;' '
   325  0328  3464               	retlw	100	;'d'
   326  0329  3465               	retlw	101	;'e'
   327  032A  3473               	retlw	115	;'s'
   328  032B  3465               	retlw	101	;'e'
   329  032C  3461               	retlw	97	;'a'
   330  032D  3420               	retlw	32	;' '
   331  032E  3472               	retlw	114	;'r'
   332  032F  3465               	retlw	101	;'e'
   333  0330  3461               	retlw	97	;'a'
   334  0331  346C               	retlw	108	;'l'
   335  0332  3469               	retlw	105	;'i'
   336  0333  347A               	retlw	122	;'z'
   337  0334  3461               	retlw	97	;'a'
   338  0335  3472               	retlw	114	;'r'
   339  0336  3420               	retlw	32	;' '
   340  0337  3470               	retlw	112	;'p'
   341  0338  3461               	retlw	97	;'a'
   342  0339  3472               	retlw	114	;'r'
   343  033A  3461               	retlw	97	;'a'
   344  033B  3420               	retlw	32	;' '
   345  033C  346D               	retlw	109	;'m'
   346  033D  346F               	retlw	111	;'o'
   347  033E  3476               	retlw	118	;'v'
   348  033F  3465               	retlw	101	;'e'
   349  0340  3472               	retlw	114	;'r'
   350  0341  3420               	retlw	32	;' '
   351  0342  3465               	retlw	101	;'e'
   352  0343  346C               	retlw	108	;'l'
   353  0344  3420               	retlw	32	;' '
   354  0345  3463               	retlw	99	;'c'
   355  0346  3461               	retlw	97	;'a'
   356  0347  3472               	retlw	114	;'r'
   357  0348  3472               	retlw	114	;'r'
   358  0349  346F               	retlw	111	;'o'
   359  034A  3400               	retlw	0
   360  034B                     STR_1:
   361  034B  3449               	retlw	73	;'I'
   362  034C  346E               	retlw	110	;'n'
   363  034D  3467               	retlw	103	;'g'
   364  034E  3472               	retlw	114	;'r'
   365  034F  3465               	retlw	101	;'e'
   366  0350  3473               	retlw	115	;'s'
   367  0351  3465               	retlw	101	;'e'
   368  0352  3420               	retlw	32	;' '
   369  0353  3431               	retlw	49	;'1'
   370  0354  3420               	retlw	32	;' '
   371  0355  3473               	retlw	115	;'s'
   372  0356  3469               	retlw	105	;'i'
   373  0357  3420               	retlw	32	;' '
   374  0358  3464               	retlw	100	;'d'
   375  0359  3465               	retlw	101	;'e'
   376  035A  3473               	retlw	115	;'s'
   377  035B  3465               	retlw	101	;'e'
   378  035C  3461               	retlw	97	;'a'
   379  035D  3420               	retlw	32	;' '
   380  035E  3469               	retlw	105	;'i'
   381  035F  346E               	retlw	110	;'n'
   382  0360  3467               	retlw	103	;'g'
   383  0361  3472               	retlw	114	;'r'
   384  0362  3465               	retlw	101	;'e'
   385  0363  3473               	retlw	115	;'s'
   386  0364  3461               	retlw	97	;'a'
   387  0365  3472               	retlw	114	;'r'
   388  0366  3420               	retlw	32	;' '
   389  0367  3461               	retlw	97	;'a'
   390  0368  3420               	retlw	32	;' '
   391  0369  346D               	retlw	109	;'m'
   392  036A  346F               	retlw	111	;'o'
   393  036B  3464               	retlw	100	;'d'
   394  036C  346F               	retlw	111	;'o'
   395  036D  3420               	retlw	32	;' '
   396  036E  3463               	retlw	99	;'c'
   397  036F  346F               	retlw	111	;'o'
   398  0370  346E               	retlw	110	;'n'
   399  0371  3474               	retlw	116	;'t'
   400  0372  3472               	retlw	114	;'r'
   401  0373  346F               	retlw	111	;'o'
   402  0374  346C               	retlw	108	;'l'
   403  0375  3420               	retlw	32	;' '
   404  0376  3455               	retlw	85	;'U'
   405  0377  3453               	retlw	83	;'S'
   406  0378  3441               	retlw	65	;'A'
   407  0379  3452               	retlw	82	;'R'
   408  037A  3454               	retlw	84	;'T'
   409  037B  3400               	retlw	0
   410  037C                     STR_10:
   411  037C  3449               	retlw	73	;'I'
   412  037D  346E               	retlw	110	;'n'
   413  037E  3467               	retlw	103	;'g'
   414  037F  3472               	retlw	114	;'r'
   415  0380  3465               	retlw	101	;'e'
   416  0381  3473               	retlw	115	;'s'
   417  0382  3465               	retlw	101	;'e'
   418  0383  343A               	retlw	58	;':'
   419  0384  3420               	retlw	32	;' '
   420  0385  3431               	retlw	49	;'1'
   421  0386  342D               	retlw	45	;'-'
   422  0387  342E               	retlw	46	;'.'
   423  0388  3430               	retlw	48	;'0'
   424  0389  3467               	retlw	103	;'g'
   425  038A  3472               	retlw	114	;'r'
   426  038B  3461               	retlw	97	;'a'
   427  038C  3464               	retlw	100	;'d'
   428  038D  346F               	retlw	111	;'o'
   429  038E  3473               	retlw	115	;'s'
   430  038F  3420               	retlw	32	;' '
   431  0390  3432               	retlw	50	;'2'
   432  0391  342D               	retlw	45	;'-'
   433  0392  342E               	retlw	46	;'.'
   434  0393  3439               	retlw	57	;'9'
   435  0394  3430               	retlw	48	;'0'
   436  0395  3467               	retlw	103	;'g'
   437  0396  3472               	retlw	114	;'r'
   438  0397  3461               	retlw	97	;'a'
   439  0398  3464               	retlw	100	;'d'
   440  0399  346F               	retlw	111	;'o'
   441  039A  3473               	retlw	115	;'s'
   442  039B  3420               	retlw	32	;' '
   443  039C  3433               	retlw	51	;'3'
   444  039D  342D               	retlw	45	;'-'
   445  039E  342E               	retlw	46	;'.'
   446  039F  3431               	retlw	49	;'1'
   447  03A0  3438               	retlw	56	;'8'
   448  03A1  3430               	retlw	48	;'0'
   449  03A2  3467               	retlw	103	;'g'
   450  03A3  3472               	retlw	114	;'r'
   451  03A4  3461               	retlw	97	;'a'
   452  03A5  3464               	retlw	100	;'d'
   453  03A6  346F               	retlw	111	;'o'
   454  03A7  3473               	retlw	115	;'s'
   455  03A8  3400               	retlw	0
   456  03A9                     STR_11:
   457  03A9  3445               	retlw	69	;'E'
   458  03AA  346C               	retlw	108	;'l'
   459  03AB  3469               	retlw	105	;'i'
   460  03AC  346A               	retlw	106	;'j'
   461  03AD  3461               	retlw	97	;'a'
   462  03AE  3420               	retlw	32	;' '
   463  03AF  346C               	retlw	108	;'l'
   464  03B0  3461               	retlw	97	;'a'
   465  03B1  3420               	retlw	32	;' '
   466  03B2  3470               	retlw	112	;'p'
   467  03B3  346F               	retlw	111	;'o'
   468  03B4  3473               	retlw	115	;'s'
   469  03B5  3469               	retlw	105	;'i'
   470  03B6  3463               	retlw	99	;'c'
   471  03B7  3469               	retlw	105	;'i'
   472  03B8  346F               	retlw	111	;'o'
   473  03B9  346E               	retlw	110	;'n'
   474  03BA  3420               	retlw	32	;' '
   475  03BB  3464               	retlw	100	;'d'
   476  03BC  3465               	retlw	101	;'e'
   477  03BD  346C               	retlw	108	;'l'
   478  03BE  3420               	retlw	32	;' '
   479  03BF  3473               	retlw	115	;'s'
   480  03C0  3465               	retlw	101	;'e'
   481  03C1  3472               	retlw	114	;'r'
   482  03C2  3476               	retlw	118	;'v'
   483  03C3  346F               	retlw	111	;'o'
   484  03C4  3420               	retlw	32	;' '
   485  03C5  3432               	retlw	50	;'2'
   486  03C6  3420               	retlw	32	;' '
   487  03C7  3428               	retlw	40	;'('
   488  03C8  3461               	retlw	97	;'a'
   489  03C9  3472               	retlw	114	;'r'
   490  03CA  3472               	retlw	114	;'r'
   491  03CB  3469               	retlw	105	;'i'
   492  03CC  3462               	retlw	98	;'b'
   493  03CD  3461               	retlw	97	;'a'
   494  03CE  3429               	retlw	41	;')'
   495  03CF  3400               	retlw	0
   496  03D0                     STR_14:
   497  03D0  3449               	retlw	73	;'I'
   498  03D1  346E               	retlw	110	;'n'
   499  03D2  3467               	retlw	103	;'g'
   500  03D3  3472               	retlw	114	;'r'
   501  03D4  3465               	retlw	101	;'e'
   502  03D5  3473               	retlw	115	;'s'
   503  03D6  3465               	retlw	101	;'e'
   504  03D7  3420               	retlw	32	;' '
   505  03D8  3465               	retlw	101	;'e'
   506  03D9  346C               	retlw	108	;'l'
   507  03DA  3420               	retlw	32	;' '
   508  03DB  3463               	retlw	99	;'c'
   509  03DC  3461               	retlw	97	;'a'
   510  03DD  3472               	retlw	114	;'r'
   511  03DE  3461               	retlw	97	;'a'
   512  03DF  3463               	retlw	99	;'c'
   513  03E0  3474               	retlw	116	;'t'
   514  03E1  3465               	retlw	101	;'e'
   515  03E2  3472               	retlw	114	;'r'
   516  03E3  3420               	retlw	32	;' '
   517  03E4  3461               	retlw	97	;'a'
   518  03E5  3420               	retlw	32	;' '
   519  03E6  346D               	retlw	109	;'m'
   520  03E7  346F               	retlw	111	;'o'
   521  03E8  3473               	retlw	115	;'s'
   522  03E9  3474               	retlw	116	;'t'
   523  03EA  3472               	retlw	114	;'r'
   524  03EB  3461               	retlw	97	;'a'
   525  03EC  3472               	retlw	114	;'r'
   526  03ED  3420               	retlw	32	;' '
   527  03EE  3465               	retlw	101	;'e'
   528  03EF  346E               	retlw	110	;'n'
   529  03F0  3420               	retlw	32	;' '
   530  03F1  3450               	retlw	80	;'P'
   531  03F2  344F               	retlw	79	;'O'
   532  03F3  3452               	retlw	82	;'R'
   533  03F4  3454               	retlw	84	;'T'
   534  03F5  3442               	retlw	66	;'B'
   535  03F6  3400               	retlw	0
   536  03F7                     STR_9:
   537  03F7  3445               	retlw	69	;'E'
   538  03F8  346C               	retlw	108	;'l'
   539  03F9  3469               	retlw	105	;'i'
   540  03FA  346A               	retlw	106	;'j'
   541  03FB  3461               	retlw	97	;'a'
   542  03FC  3420               	retlw	32	;' '
   543  03FD  346C               	retlw	108	;'l'
   544  03FE  3461               	retlw	97	;'a'
   545  03FF  3420               	retlw	32	;' '
   546  0400  3470               	retlw	112	;'p'
   547  0401  346F               	retlw	111	;'o'
   548  0402  3473               	retlw	115	;'s'
   549  0403  3469               	retlw	105	;'i'
   550  0404  3463               	retlw	99	;'c'
   551  0405  3469               	retlw	105	;'i'
   552  0406  346F               	retlw	111	;'o'
   553  0407  346E               	retlw	110	;'n'
   554  0408  3420               	retlw	32	;' '
   555  0409  3464               	retlw	100	;'d'
   556  040A  3465               	retlw	101	;'e'
   557  040B  346C               	retlw	108	;'l'
   558  040C  3420               	retlw	32	;' '
   559  040D  3473               	retlw	115	;'s'
   560  040E  3465               	retlw	101	;'e'
   561  040F  3472               	retlw	114	;'r'
   562  0410  3476               	retlw	118	;'v'
   563  0411  346F               	retlw	111	;'o'
   564  0412  3420               	retlw	32	;' '
   565  0413  3431               	retlw	49	;'1'
   566  0414  3420               	retlw	32	;' '
   567  0415  3428               	retlw	40	;'('
   568  0416  3461               	retlw	97	;'a'
   569  0417  3462               	retlw	98	;'b'
   570  0418  3461               	retlw	97	;'a'
   571  0419  346A               	retlw	106	;'j'
   572  041A  346F               	retlw	111	;'o'
   573  041B  3429               	retlw	41	;')'
   574  041C  3400               	retlw	0
   575  041D                     STR_8:
   576  041D  3428               	retlw	40	;'('
   577  041E  3435               	retlw	53	;'5'
   578  041F  3429               	retlw	41	;')'
   579  0420  3453               	retlw	83	;'S'
   580  0421  3461               	retlw	97	;'a'
   581  0422  346C               	retlw	108	;'l'
   582  0423  3469               	retlw	105	;'i'
   583  0424  3472               	retlw	114	;'r'
   584  0425  3420               	retlw	32	;' '
   585  0426  3464               	retlw	100	;'d'
   586  0427  3465               	retlw	101	;'e'
   587  0428  3420               	retlw	32	;' '
   588  0429  3463               	retlw	99	;'c'
   589  042A  346F               	retlw	111	;'o'
   590  042B  346E               	retlw	110	;'n'
   591  042C  3474               	retlw	116	;'t'
   592  042D  3472               	retlw	114	;'r'
   593  042E  346F               	retlw	111	;'o'
   594  042F  346C               	retlw	108	;'l'
   595  0430  3420               	retlw	32	;' '
   596  0431  3470               	retlw	112	;'p'
   597  0432  346F               	retlw	111	;'o'
   598  0433  3472               	retlw	114	;'r'
   599  0434  3420               	retlw	32	;' '
   600  0435  3455               	retlw	85	;'U'
   601  0436  3453               	retlw	83	;'S'
   602  0437  3441               	retlw	65	;'A'
   603  0438  3452               	retlw	82	;'R'
   604  0439  3454               	retlw	84	;'T'
   605  043A  3400               	retlw	0
   606  043B                     STR_2:
   607  043B  3442               	retlw	66	;'B'
   608  043C  3469               	retlw	105	;'i'
   609  043D  3465               	retlw	101	;'e'
   610  043E  346E               	retlw	110	;'n'
   611  043F  3476               	retlw	118	;'v'
   612  0440  3465               	retlw	101	;'e'
   613  0441  346E               	retlw	110	;'n'
   614  0442  3469               	retlw	105	;'i'
   615  0443  3464               	retlw	100	;'d'
   616  0444  346F               	retlw	111	;'o'
   617  0445  3420               	retlw	32	;' '
   618  0446  3461               	retlw	97	;'a'
   619  0447  3420               	retlw	32	;' '
   620  0448  346E               	retlw	110	;'n'
   621  0449  3475               	retlw	117	;'u'
   622  044A  3465               	retlw	101	;'e'
   623  044B  3473               	retlw	115	;'s'
   624  044C  3474               	retlw	116	;'t'
   625  044D  3472               	retlw	114	;'r'
   626  044E  346F               	retlw	111	;'o'
   627  044F  3420               	retlw	32	;' '
   628  0450  3470               	retlw	112	;'p'
   629  0451  3472               	retlw	114	;'r'
   630  0452  346F               	retlw	111	;'o'
   631  0453  3467               	retlw	103	;'g'
   632  0454  3472               	retlw	114	;'r'
   633  0455  3461               	retlw	97	;'a'
   634  0456  346D               	retlw	109	;'m'
   635  0457  3461               	retlw	97	;'a'
   636  0458  3400               	retlw	0
   637  0459                     STR_3:
   638  0459  3451               	retlw	81	;'Q'
   639  045A  3475               	retlw	117	;'u'
   640  045B  3465               	retlw	101	;'e'
   641  045C  3420               	retlw	32	;' '
   642  045D  3461               	retlw	97	;'a'
   643  045E  3463               	retlw	99	;'c'
   644  045F  3463               	retlw	99	;'c'
   645  0460  3469               	retlw	105	;'i'
   646  0461  346F               	retlw	111	;'o'
   647  0462  346E               	retlw	110	;'n'
   648  0463  3420               	retlw	32	;' '
   649  0464  3464               	retlw	100	;'d'
   650  0465  3465               	retlw	101	;'e'
   651  0466  3473               	retlw	115	;'s'
   652  0467  3465               	retlw	101	;'e'
   653  0468  3461               	retlw	97	;'a'
   654  0469  3420               	retlw	32	;' '
   655  046A  3465               	retlw	101	;'e'
   656  046B  346A               	retlw	106	;'j'
   657  046C  3465               	retlw	101	;'e'
   658  046D  3463               	retlw	99	;'c'
   659  046E  3475               	retlw	117	;'u'
   660  046F  3474               	retlw	116	;'t'
   661  0470  3461               	retlw	97	;'a'
   662  0471  3472               	retlw	114	;'r'
   663  0472  343F               	retlw	63	;'?'
   664  0473  3400               	retlw	0
   665  0474                     STR_7:
   666  0474  3428               	retlw	40	;'('
   667  0475  3434               	retlw	52	;'4'
   668  0476  3429               	retlw	41	;')'
   669  0477  344D               	retlw	77	;'M'
   670  0478  346F               	retlw	111	;'o'
   671  0479  3473               	retlw	115	;'s'
   672  047A  3474               	retlw	116	;'t'
   673  047B  3472               	retlw	114	;'r'
   674  047C  3461               	retlw	97	;'a'
   675  047D  3472               	retlw	114	;'r'
   676  047E  3420               	retlw	32	;' '
   677  047F  3470               	retlw	112	;'p'
   678  0480  346F               	retlw	111	;'o'
   679  0481  3474               	retlw	116	;'t'
   680  0482  3465               	retlw	101	;'e'
   681  0483  346E               	retlw	110	;'n'
   682  0484  3463               	retlw	99	;'c'
   683  0485  3469               	retlw	105	;'i'
   684  0486  346F               	retlw	111	;'o'
   685  0487  346D               	retlw	109	;'m'
   686  0488  3465               	retlw	101	;'e'
   687  0489  3474               	retlw	116	;'t'
   688  048A  3472               	retlw	114	;'r'
   689  048B  346F               	retlw	111	;'o'
   690  048C  3400               	retlw	0
   691  048D                     STR_5:
   692  048D  3428               	retlw	40	;'('
   693  048E  3432               	retlw	50	;'2'
   694  048F  3429               	retlw	41	;')'
   695  0490  3443               	retlw	67	;'C'
   696  0491  346F               	retlw	111	;'o'
   697  0492  346E               	retlw	110	;'n'
   698  0493  3474               	retlw	116	;'t'
   699  0494  3472               	retlw	114	;'r'
   700  0495  346F               	retlw	111	;'o'
   701  0496  346C               	retlw	108	;'l'
   702  0497  3461               	retlw	97	;'a'
   703  0498  3472               	retlw	114	;'r'
   704  0499  3420               	retlw	32	;' '
   705  049A  3443               	retlw	67	;'C'
   706  049B  3461               	retlw	97	;'a'
   707  049C  3472               	retlw	114	;'r'
   708  049D  3472               	retlw	114	;'r'
   709  049E  346F               	retlw	111	;'o'
   710  049F  3400               	retlw	0
   711  04A0                     STR_4:
   712  04A0  3428               	retlw	40	;'('
   713  04A1  3431               	retlw	49	;'1'
   714  04A2  3429               	retlw	41	;')'
   715  04A3  3443               	retlw	67	;'C'
   716  04A4  346F               	retlw	111	;'o'
   717  04A5  346E               	retlw	110	;'n'
   718  04A6  3474               	retlw	116	;'t'
   719  04A7  3472               	retlw	114	;'r'
   720  04A8  346F               	retlw	111	;'o'
   721  04A9  346C               	retlw	108	;'l'
   722  04AA  3461               	retlw	97	;'a'
   723  04AB  3472               	retlw	114	;'r'
   724  04AC  3420               	retlw	32	;' '
   725  04AD  3442               	retlw	66	;'B'
   726  04AE  3472               	retlw	114	;'r'
   727  04AF  3461               	retlw	97	;'a'
   728  04B0  347A               	retlw	122	;'z'
   729  04B1  346F               	retlw	111	;'o'
   730  04B2  3400               	retlw	0
   731  04B3                     STR_6:
   732  04B3  3428               	retlw	40	;'('
   733  04B4  3433               	retlw	51	;'3'
   734  04B5  3429               	retlw	41	;')'
   735  04B6  3443               	retlw	67	;'C'
   736  04B7  346F               	retlw	111	;'o'
   737  04B8  346E               	retlw	110	;'n'
   738  04B9  3474               	retlw	116	;'t'
   739  04BA  3472               	retlw	114	;'r'
   740  04BB  346F               	retlw	111	;'o'
   741  04BC  346C               	retlw	108	;'l'
   742  04BD  3461               	retlw	97	;'a'
   743  04BE  3472               	retlw	114	;'r'
   744  04BF  3420               	retlw	32	;' '
   745  04C0  344C               	retlw	76	;'L'
   746  04C1  3445               	retlw	69	;'E'
   747  04C2  3444               	retlw	68	;'D'
   748  04C3  3473               	retlw	115	;'s'
   749  04C4  3400               	retlw	0
   750  034B                     
   751                           	psect	cinit
   752  000F                     start_initialization:	
   753                           ; #config settings
   754                           
   755  000F                     __initialization:
   756                           
   757                           ; Initialize objects allocated to BANK0
   758  000F  120A  118A  2704  120A  118A  	fcall	__pidataBANK0	;fetch initializer
   759  0014  00BD               	movwf	__pdataBANK0& (0+127)
   760  0015  120A  118A  2705  120A  118A  	fcall	__pidataBANK0+1	;fetch initializer
   761  001A  00BE               	movwf	(__pdataBANK0+1)& (0+127)
   762  001B  120A  118A  2706  120A  118A  	fcall	__pidataBANK0+2	;fetch initializer
   763  0020  00BF               	movwf	(__pdataBANK0+2)& (0+127)
   764  0021  120A  118A  2707  120A  118A  	fcall	__pidataBANK0+3	;fetch initializer
   765  0026  00C0               	movwf	(__pdataBANK0+3)& (0+127)
   766                           
   767                           ; Clear objects allocated to BANK0
   768  0027  1383               	bcf	3,7	;select IRP bank0
   769  0028  3020               	movlw	low __pbssBANK0
   770  0029  0084               	movwf	4
   771  002A  3030               	movlw	low (__pbssBANK0+16)
   772  002B  120A  118A  26EF  120A  118A  	fcall	clear_ram0
   773                           
   774                           ; Clear objects allocated to COMMON
   775  0030  01F7               	clrf	__pbssCOMMON& (0+127)
   776  0031  01F8               	clrf	(__pbssCOMMON+1)& (0+127)
   777  0032  01F9               	clrf	(__pbssCOMMON+2)& (0+127)
   778  0033  01FA               	clrf	(__pbssCOMMON+3)& (0+127)
   779  0034  01FB               	clrf	(__pbssCOMMON+4)& (0+127)
   780  0035                     end_of_initialization:	
   781                           ;End of C runtime variable initialization code
   782                           
   783  0035                     __end_of__initialization:
   784  0035  0183               	clrf	3
   785  0036  120A  118A  2839   	ljmp	_main	;jump to C main() function
   786                           
   787                           	psect	bssCOMMON
   788  0077                     __pbssCOMMON:
   789  0077                     _parpadear:
   790  0077                     	ds	2
   791  0079                     _flag2:
   792  0079                     	ds	2
   793  007B                     _valor_pot:
   794  007B                     	ds	1
   795                           
   796                           	psect	bssBANK0
   797  0020                     __pbssBANK0:
   798  0020                     _texto:
   799  0020                     	ds	11
   800  002B                     _eepromVal:
   801  002B                     	ds	2
   802  002D                     _RB3_old:
   803  002D                     	ds	2
   804  002F                     _opcion:
   805  002F                     	ds	1
   806                           
   807                           	psect	dataBANK0
   808  003D                     __pdataBANK0:
   809  003D                     _addressEEPROM:
   810  003D                     	ds	2
   811  003F                     _flag:
   812  003F                     	ds	2
   813                           
   814                           	psect	clrtext
   815  06EF                     clear_ram0:	
   816                           ;	Called with FSR containing the base address, and
   817                           ;	W with the last address+1
   818                           
   819  06EF  0064               	clrwdt	;clear the watchdog before getting into this loop
   820  06F0                     clrloop0:
   821  06F0  0180               	clrf	0	;clear RAM location pointed to by FSR
   822  06F1  0A84               	incf	4,f	;increment pointer
   823  06F2  0604               	xorwf	4,w	;XOR with final address
   824  06F3  1903               	btfsc	3,2	;have we reached the end yet?
   825  06F4  3400               	retlw	0	;all done for this memory range, return
   826  06F5  0604               	xorwf	4,w	;XOR again to restore value
   827  06F6  2EF0               	goto	clrloop0	;do the next byte
   828                           
   829                           	psect	cstackCOMMON
   830  0070                     __pcstackCOMMON:
   831  0070                     ?_setup:
   832  0070                     ?_config_reloj:	
   833                           ; 1 bytes @ 0x0
   834                           
   835  0070                     ?_config_io:	
   836                           ; 1 bytes @ 0x0
   837                           
   838  0070                     ?_config_int_enable:	
   839                           ; 1 bytes @ 0x0
   840                           
   841  0070                     ?_config_iocb:	
   842                           ; 1 bytes @ 0x0
   843                           
   844  0070                     ?_IOCB_interrupt:	
   845                           ; 1 bytes @ 0x0
   846                           
   847  0070                     ??_IOCB_interrupt:	
   848                           ; 1 bytes @ 0x0
   849                           
   850  0070                     ?_main:	
   851                           ; 1 bytes @ 0x0
   852                           
   853  0070                     ?_isr:	
   854                           ; 1 bytes @ 0x0
   855                           
   856                           
   857                           ; 1 bytes @ 0x0
   858  0070                     	ds	3
   859  0073                     ??_isr:
   860                           
   861                           ; 1 bytes @ 0x3
   862  0073                     	ds	4
   863                           
   864                           	psect	cstackBANK0
   865  0030                     __pcstackBANK0:
   866  0030                     ?_writeToEEPROM:
   867  0030                     ??_config_reloj:	
   868                           ; 1 bytes @ 0x0
   869                           
   870  0030                     ??_config_io:	
   871                           ; 1 bytes @ 0x0
   872                           
   873  0030                     ??_config_int_enable:	
   874                           ; 1 bytes @ 0x0
   875                           
   876  0030                     ??_config_iocb:	
   877                           ; 1 bytes @ 0x0
   878                           
   879  0030                     ?_strlen:	
   880                           ; 1 bytes @ 0x0
   881                           
   882  0030                     writeToEEPROM@data:	
   883                           ; 2 bytes @ 0x0
   884                           
   885  0030                     strlen@s:	
   886                           ; 2 bytes @ 0x0
   887                           
   888                           
   889                           ; 2 bytes @ 0x0
   890  0030                     	ds	1
   891  0031                     ??_setup:
   892                           
   893                           ; 1 bytes @ 0x1
   894  0031                     	ds	1
   895  0032                     ??_strlen:
   896  0032                     writeToEEPROM@address:	
   897                           ; 1 bytes @ 0x2
   898                           
   899  0032                     strlen@cp:	
   900                           ; 2 bytes @ 0x2
   901                           
   902                           
   903                           ; 2 bytes @ 0x2
   904  0032                     	ds	2
   905  0034                     ?_showString:
   906  0034                     ??_writeToEEPROM:	
   907                           ; 1 bytes @ 0x4
   908                           
   909  0034                     showString@var:	
   910                           ; 1 bytes @ 0x4
   911                           
   912                           
   913                           ; 2 bytes @ 0x4
   914  0034                     	ds	2
   915  0036                     ??_showString:
   916                           
   917                           ; 1 bytes @ 0x6
   918  0036                     	ds	3
   919  0039                     showString@i:
   920                           
   921                           ; 2 bytes @ 0x9
   922  0039                     	ds	2
   923  003B                     ??_main:
   924                           
   925                           ; 1 bytes @ 0xB
   926  003B                     	ds	2
   927                           
   928                           	psect	maintext
   929  0039                     __pmaintext:	
   930 ;;
   931 ;;Main: autosize = 0, tempsize = 2, incstack = 0, save=0
   932 ;;
   933 ;; *************** function _main *****************
   934 ;; Defined at:
   935 ;;		line 91 in file "proyecto_final.c"
   936 ;; Parameters:    Size  Location     Type
   937 ;;		None
   938 ;; Auto vars:     Size  Location     Type
   939 ;;		None
   940 ;; Return value:  Size  Location     Type
   941 ;;                  1    wreg      void 
   942 ;; Registers used:
   943 ;;		wreg, fsr0l, fsr0h, status,2, status,0, btemp+1, pclath, cstack
   944 ;; Tracked objects:
   945 ;;		On entry : B00/0
   946 ;;		On exit  : 0/0
   947 ;;		Unchanged: 0/0
   948 ;; Data sizes:     COMMON   BANK0   BANK1   BANK3   BANK2
   949 ;;      Params:         0       0       0       0       0
   950 ;;      Locals:         0       0       0       0       0
   951 ;;      Temps:          0       2       0       0       0
   952 ;;      Totals:         0       2       0       0       0
   953 ;;Total ram usage:        2 bytes
   954 ;; Hardware stack levels required when called:    4
   955 ;; This function calls:
   956 ;;		_setup
   957 ;;		_showString
   958 ;;		_writeToEEPROM
   959 ;; This function is called by:
   960 ;;		Startup code after reset
   961 ;; This function uses a non-reentrant model
   962 ;;
   963                           
   964                           
   965                           ;psect for function _main
   966  0039                     _main:
   967  0039                     l1635:	
   968                           ;incstack = 0
   969                           ; Regs used in _main: [wreg-fsr0h+status,2+status,0+btemp+1+pclath+cstack]
   970                           
   971                           
   972                           ;proyecto_final.c: 93: 
   973  0039  120A  118A  26C9  120A  118A  	fcall	_setup
   974  003E                     l1637:
   975                           
   976                           ;proyecto_final.c: 99:                                 CCP1CONbits.DC1B1 = PORTDbits.RD0
      +                          ;
   977  003E  1283               	bcf	3,5	;RP0=0, select bank0
   978  003F  1303               	bcf	3,6	;RP1=0, select bank0
   979  0040  149F               	bsf	31,1	;volatile
   980  0041                     l1639:
   981                           
   982                           ;proyecto_final.c: 101:                             };proyecto_final.c: 105:            
      +                                               CCP1CONbits.DC1B1 = PORTDbits.RD0;
   983  0041  189F               	btfsc	31,1	;volatile
   984  0042  2844               	goto	u1381
   985  0043  2845               	goto	u1380
   986  0044                     u1381:
   987  0044  2861               	goto	l1651
   988  0045                     u1380:
   989  0045                     l1641:
   990                           
   991                           ;proyecto_final.c: 106:                                 CCP1CONbits.DC1B0 = ADRESL>>7;
   992  0045  0C1F               	rrf	31,w	;volatile
   993  0046  00BB               	movwf	??_main
   994  0047  0C3B               	rrf	??_main,w
   995  0048  390F               	andlw	15
   996  0049  3A05               	xorlw	5
   997  004A  1D03               	skipz
   998  004B  284D               	goto	u1391
   999  004C  284E               	goto	u1390
  1000  004D                     u1391:
  1001  004D  2853               	goto	l1645
  1002  004E                     u1390:
  1003  004E                     l1643:
  1004                           
  1005                           ;proyecto_final.c: 107:                             }
  1006  004E  081F               	movf	31,w	;volatile
  1007  004F  39C3               	andlw	-61
  1008  0050  3818               	iorlw	24
  1009  0051  009F               	movwf	31	;volatile
  1010  0052  2857               	goto	l1647
  1011  0053                     l1645:
  1012                           
  1013                           ;proyecto_final.c: 109:                                 PORTD = (255);
  1014  0053  081F               	movf	31,w	;volatile
  1015  0054  39C3               	andlw	-61
  1016  0055  3814               	iorlw	20
  1017  0056  009F               	movwf	31	;volatile
  1018  0057                     l1647:
  1019                           
  1020                           ;proyecto_final.c: 111:                                 CCP1CONbits.DC1B1 = PORTDbits.RD
      +                          0;
  1021  0057  3020               	movlw	32
  1022  0058  1283               	bcf	3,5	;RP0=0, select bank0
  1023  0059  1303               	bcf	3,6	;RP1=0, select bank0
  1024  005A  00BB               	movwf	??_main
  1025  005B                     u1827:
  1026  005B  0BBB               	decfsz	??_main,f
  1027  005C  285B               	goto	u1827
  1028  005D  0000               	nop
  1029  005E                     l1649:
  1030                           
  1031                           ;proyecto_final.c: 112:                                 CCP1CONbits.DC1B0 = ADRESL>>7;
  1032  005E  1283               	bcf	3,5	;RP0=0, select bank0
  1033  005F  1303               	bcf	3,6	;RP1=0, select bank0
  1034  0060  149F               	bsf	31,1	;volatile
  1035  0061                     l1651:
  1036                           
  1037                           ;proyecto_final.c: 120: 
  1038  0061  1E0C               	btfss	12,4	;volatile
  1039  0062  2864               	goto	u1401
  1040  0063  2865               	goto	u1400
  1041  0064                     u1401:
  1042  0064  2A7E               	goto	l1789
  1043  0065                     u1400:
  1044  0065                     l1653:
  1045                           
  1046                           ;proyecto_final.c: 122: 
  1047  0065  083F               	movf	_flag,w
  1048  0066  0440               	iorwf	_flag+1,w
  1049  0067  1903               	btfsc	3,2
  1050  0068  286A               	goto	u1411
  1051  0069  286B               	goto	u1410
  1052  006A                     u1411:
  1053  006A  2878               	goto	l1659
  1054  006B                     u1410:
  1055  006B                     l1655:
  1056                           
  1057                           ;proyecto_final.c: 123:                             }
  1058  006B  304B               	movlw	low (STR_1| (0+32768))
  1059  006C  00B4               	movwf	showString@var
  1060  006D  3083               	movlw	high (STR_1| (0+32768))
  1061  006E  00B5               	movwf	showString@var+1
  1062  006F  120A  118A  2637  120A  118A  	fcall	_showString
  1063  0074                     l1657:
  1064                           
  1065                           ;proyecto_final.c: 124: 
  1066  0074  1283               	bcf	3,5	;RP0=0, select bank0
  1067  0075  1303               	bcf	3,6	;RP1=0, select bank0
  1068  0076  01BF               	clrf	_flag
  1069  0077  01C0               	clrf	_flag+1
  1070  0078                     l1659:
  1071                           
  1072                           ;proyecto_final.c: 127:                                 CCPR2L = (PORTD>>1) + 128;
  1073  0078  3031               	movlw	49
  1074  0079  062F               	xorwf	_opcion,w
  1075  007A  1D03               	btfss	3,2
  1076  007B  287D               	goto	u1421
  1077  007C  287E               	goto	u1420
  1078  007D                     u1421:
  1079  007D  2A7E               	goto	l1789
  1080  007E                     u1420:
  1081  007E                     l1661:
  1082                           
  1083                           ;proyecto_final.c: 128:                                 CCP2CONbits.DC2B1 = PORTDbits.RD
      +                          0;
  1084  007E  3001               	movlw	1
  1085  007F  00BF               	movwf	_flag
  1086  0080  3000               	movlw	0
  1087  0081  00C0               	movwf	_flag+1
  1088  0082                     l1663:
  1089                           
  1090                           ;proyecto_final.c: 129:                                 CCP2CONbits.DC2B0 = ADRESL>>7;
  1091  0082  01AF               	clrf	_opcion
  1092                           
  1093                           ;proyecto_final.c: 130:                             }
  1094  0083  2A65               	goto	l1781
  1095  0084                     l1665:
  1096                           
  1097                           ;proyecto_final.c: 132:                                 PORTD = (128);
  1098  0084  083F               	movf	_flag,w
  1099  0085  0440               	iorwf	_flag+1,w
  1100  0086  1903               	btfsc	3,2
  1101  0087  2889               	goto	u1431
  1102  0088  288A               	goto	u1430
  1103  0089                     u1431:
  1104  0089  28D9               	goto	l1671
  1105  008A                     u1430:
  1106  008A                     l1667:
  1107                           
  1108                           ;proyecto_final.c: 133:                                 CCPR2L = (PORTD>>1) + 128;
  1109  008A  303B               	movlw	low (STR_2| (0+32768))
  1110  008B  00B4               	movwf	showString@var
  1111  008C  3084               	movlw	high (STR_2| (0+32768))
  1112  008D  00B5               	movwf	showString@var+1
  1113  008E  120A  118A  2637  120A  118A  	fcall	_showString
  1114                           
  1115                           ;proyecto_final.c: 134:                                 CCP2CONbits.DC2B1 = PORTDbits.RD
      +                          0;
  1116  0093  3059               	movlw	low (STR_3| (0+32768))
  1117  0094  1283               	bcf	3,5	;RP0=0, select bank0
  1118  0095  1303               	bcf	3,6	;RP1=0, select bank0
  1119  0096  00B4               	movwf	showString@var
  1120  0097  3084               	movlw	high (STR_3| (0+32768))
  1121  0098  00B5               	movwf	showString@var+1
  1122  0099  120A  118A  2637  120A  118A  	fcall	_showString
  1123                           
  1124                           ;proyecto_final.c: 135:                                 CCP2CONbits.DC2B0 = ADRESL>>7;
  1125  009E  30A0               	movlw	low (STR_4| (0+32768))
  1126  009F  1283               	bcf	3,5	;RP0=0, select bank0
  1127  00A0  1303               	bcf	3,6	;RP1=0, select bank0
  1128  00A1  00B4               	movwf	showString@var
  1129  00A2  3084               	movlw	high (STR_4| (0+32768))
  1130  00A3  00B5               	movwf	showString@var+1
  1131  00A4  120A  118A  2637  120A  118A  	fcall	_showString
  1132                           
  1133                           ;proyecto_final.c: 136:                             }
  1134  00A9  308D               	movlw	low (STR_5| (0+32768))
  1135  00AA  1283               	bcf	3,5	;RP0=0, select bank0
  1136  00AB  1303               	bcf	3,6	;RP1=0, select bank0
  1137  00AC  00B4               	movwf	showString@var
  1138  00AD  3084               	movlw	high (STR_5| (0+32768))
  1139  00AE  00B5               	movwf	showString@var+1
  1140  00AF  120A  118A  2637  120A  118A  	fcall	_showString
  1141                           
  1142                           ;proyecto_final.c: 137:                             if(opcion==51){
  1143  00B4  30B3               	movlw	low (STR_6| (0+32768))
  1144  00B5  1283               	bcf	3,5	;RP0=0, select bank0
  1145  00B6  1303               	bcf	3,6	;RP1=0, select bank0
  1146  00B7  00B4               	movwf	showString@var
  1147  00B8  3084               	movlw	high (STR_6| (0+32768))
  1148  00B9  00B5               	movwf	showString@var+1
  1149  00BA  120A  118A  2637  120A  118A  	fcall	_showString
  1150                           
  1151                           ;proyecto_final.c: 138:                                 PORTD = (255);
  1152  00BF  3074               	movlw	low (STR_7| (0+32768))
  1153  00C0  1283               	bcf	3,5	;RP0=0, select bank0
  1154  00C1  1303               	bcf	3,6	;RP1=0, select bank0
  1155  00C2  00B4               	movwf	showString@var
  1156  00C3  3084               	movlw	high (STR_7| (0+32768))
  1157  00C4  00B5               	movwf	showString@var+1
  1158  00C5  120A  118A  2637  120A  118A  	fcall	_showString
  1159                           
  1160                           ;proyecto_final.c: 139:                                 CCPR2L = (PORTD>>1) + 128;
  1161  00CA  301D               	movlw	low (STR_8| (0+32768))
  1162  00CB  1283               	bcf	3,5	;RP0=0, select bank0
  1163  00CC  1303               	bcf	3,6	;RP1=0, select bank0
  1164  00CD  00B4               	movwf	showString@var
  1165  00CE  3084               	movlw	high (STR_8| (0+32768))
  1166  00CF  00B5               	movwf	showString@var+1
  1167  00D0  120A  118A  2637  120A  118A  	fcall	_showString
  1168  00D5                     l1669:
  1169                           
  1170                           ;proyecto_final.c: 140:                                 CCP2CONbits.DC2B1 = PORTDbits.RD
      +                          0;
  1171  00D5  1283               	bcf	3,5	;RP0=0, select bank0
  1172  00D6  1303               	bcf	3,6	;RP1=0, select bank0
  1173  00D7  01BF               	clrf	_flag
  1174  00D8  01C0               	clrf	_flag+1
  1175  00D9                     l1671:
  1176                           
  1177                           ;proyecto_final.c: 142:                             }
  1178  00D9  3031               	movlw	49
  1179  00DA  062F               	xorwf	_opcion,w
  1180  00DB  1D03               	btfss	3,2
  1181  00DC  28DE               	goto	u1441
  1182  00DD  28DF               	goto	u1440
  1183  00DE                     u1441:
  1184  00DE  2A26               	goto	l1751
  1185  00DF                     u1440:
  1186  00DF                     l1673:
  1187                           
  1188                           ;proyecto_final.c: 143: 
  1189  00DF  30F7               	movlw	low (STR_9| (0+32768))
  1190  00E0  00B4               	movwf	showString@var
  1191  00E1  3083               	movlw	high (STR_9| (0+32768))
  1192  00E2  00B5               	movwf	showString@var+1
  1193  00E3  120A  118A  2637  120A  118A  	fcall	_showString
  1194                           
  1195                           ;proyecto_final.c: 144: 
  1196  00E8  307C               	movlw	low (STR_10| (0+32768))
  1197  00E9  1283               	bcf	3,5	;RP0=0, select bank0
  1198  00EA  1303               	bcf	3,6	;RP1=0, select bank0
  1199  00EB  00B4               	movwf	showString@var
  1200  00EC  3083               	movlw	high (STR_10| (0+32768))
  1201  00ED  00B5               	movwf	showString@var+1
  1202  00EE  120A  118A  2637  120A  118A  	fcall	_showString
  1203  00F3                     l1675:
  1204                           
  1205                           ;proyecto_final.c: 146:                         }
  1206  00F3  3001               	movlw	1
  1207  00F4  1283               	bcf	3,5	;RP0=0, select bank0
  1208  00F5  1303               	bcf	3,6	;RP1=0, select bank0
  1209  00F6  00BF               	movwf	_flag
  1210  00F7  3000               	movlw	0
  1211  00F8  00C0               	movwf	_flag+1
  1212  00F9                     l1677:
  1213                           
  1214                           ;proyecto_final.c: 147:                         if(opcion==50){
  1215  00F9  01AF               	clrf	_opcion
  1216  00FA                     l1679:	
  1217                           ;proyecto_final.c: 149: 
  1218                           
  1219                           
  1220                           ;proyecto_final.c: 149: 
  1221  00FA  082F               	movf	_opcion,w
  1222  00FB  1903               	btfsc	3,2
  1223  00FC  28FE               	goto	u1451
  1224  00FD  28FF               	goto	u1450
  1225  00FE                     u1451:
  1226  00FE  28FA               	goto	l1679
  1227  00FF                     u1450:
  1228  00FF                     l1681:
  1229                           
  1230                           ;proyecto_final.c: 153: 
  1231  00FF  3031               	movlw	49
  1232  0100  062F               	xorwf	_opcion,w
  1233  0101  1D03               	btfss	3,2
  1234  0102  2904               	goto	u1461
  1235  0103  2905               	goto	u1460
  1236  0104                     u1461:
  1237  0104  292A               	goto	l1691
  1238  0105                     u1460:
  1239  0105                     l1683:
  1240                           
  1241                           ;proyecto_final.c: 154:                             while(!opcion){
  1242  0105  0188               	clrf	8	;volatile
  1243  0106                     l1685:
  1244                           
  1245                           ;proyecto_final.c: 155: 
  1246  0106  0808               	movf	8,w	;volatile
  1247  0107  00BB               	movwf	??_main
  1248  0108  1003               	clrc
  1249  0109  0C3B               	rrf	??_main,w
  1250  010A  3E80               	addlw	128
  1251  010B  0095               	movwf	21	;volatile
  1252  010C                     l1687:
  1253                           
  1254                           ;proyecto_final.c: 156:                             }
  1255  010C  1808               	btfsc	8,0	;volatile
  1256  010D  290F               	goto	u1471
  1257  010E  2913               	goto	u1470
  1258  010F                     u1471:
  1259  010F  1283               	bcf	3,5	;RP0=0, select bank0
  1260  0110  1303               	bcf	3,6	;RP1=0, select bank0
  1261  0111  1697               	bsf	23,5	;volatile
  1262  0112  2916               	goto	u1484
  1263  0113                     u1470:
  1264  0113  1283               	bcf	3,5	;RP0=0, select bank0
  1265  0114  1303               	bcf	3,6	;RP1=0, select bank0
  1266  0115  1297               	bcf	23,5	;volatile
  1267  0116                     u1484:
  1268  0116                     l1689:
  1269                           
  1270                           ;proyecto_final.c: 157: 
  1271  0116  1683               	bsf	3,5	;RP0=1, select bank1
  1272  0117  1303               	bcf	3,6	;RP1=0, select bank1
  1273  0118  081E               	movf	30,w	;volatile
  1274  0119  1283               	bcf	3,5	;RP0=0, select bank0
  1275  011A  1303               	bcf	3,6	;RP1=0, select bank0
  1276  011B  00BB               	movwf	??_main
  1277  011C  3007               	movlw	7
  1278  011D                     u1495:
  1279  011D  1003               	clrc
  1280  011E  0CBB               	rrf	??_main,f
  1281  011F  3EFF               	addlw	-1
  1282  0120  1D03               	skipz
  1283  0121  291D               	goto	u1495
  1284  0122  083B               	movf	??_main,w
  1285  0123  00BC               	movwf	??_main+1
  1286  0124  0EBC               	swapf	??_main+1,f
  1287  0125  0817               	movf	23,w	;volatile
  1288  0126  063C               	xorwf	??_main+1,w
  1289  0127  39EF               	andlw	-17
  1290  0128  063C               	xorwf	??_main+1,w
  1291  0129  0097               	movwf	23	;volatile
  1292  012A                     l1691:
  1293                           
  1294                           ;proyecto_final.c: 159: 
  1295  012A  3032               	movlw	50
  1296  012B  062F               	xorwf	_opcion,w
  1297  012C  1D03               	btfss	3,2
  1298  012D  292F               	goto	u1501
  1299  012E  2930               	goto	u1500
  1300  012F                     u1501:
  1301  012F  2956               	goto	l1701
  1302  0130                     u1500:
  1303  0130                     l1693:
  1304                           
  1305                           ;proyecto_final.c: 160: 
  1306  0130  3080               	movlw	128
  1307  0131  0088               	movwf	8	;volatile
  1308  0132                     l1695:
  1309                           
  1310                           ;proyecto_final.c: 161:                             opcion = 0;
  1311  0132  0808               	movf	8,w	;volatile
  1312  0133  00BB               	movwf	??_main
  1313  0134  1003               	clrc
  1314  0135  0C3B               	rrf	??_main,w
  1315  0136  3E80               	addlw	128
  1316  0137  0095               	movwf	21	;volatile
  1317  0138                     l1697:
  1318                           
  1319                           ;proyecto_final.c: 162: 
  1320  0138  1808               	btfsc	8,0	;volatile
  1321  0139  293B               	goto	u1511
  1322  013A  293F               	goto	u1510
  1323  013B                     u1511:
  1324  013B  1283               	bcf	3,5	;RP0=0, select bank0
  1325  013C  1303               	bcf	3,6	;RP1=0, select bank0
  1326  013D  1697               	bsf	23,5	;volatile
  1327  013E  2942               	goto	u1524
  1328  013F                     u1510:
  1329  013F  1283               	bcf	3,5	;RP0=0, select bank0
  1330  0140  1303               	bcf	3,6	;RP1=0, select bank0
  1331  0141  1297               	bcf	23,5	;volatile
  1332  0142                     u1524:
  1333  0142                     l1699:
  1334                           
  1335                           ;proyecto_final.c: 163: 
  1336  0142  1683               	bsf	3,5	;RP0=1, select bank1
  1337  0143  1303               	bcf	3,6	;RP1=0, select bank1
  1338  0144  081E               	movf	30,w	;volatile
  1339  0145  1283               	bcf	3,5	;RP0=0, select bank0
  1340  0146  1303               	bcf	3,6	;RP1=0, select bank0
  1341  0147  00BB               	movwf	??_main
  1342  0148  3007               	movlw	7
  1343  0149                     u1535:
  1344  0149  1003               	clrc
  1345  014A  0CBB               	rrf	??_main,f
  1346  014B  3EFF               	addlw	-1
  1347  014C  1D03               	skipz
  1348  014D  2949               	goto	u1535
  1349  014E  083B               	movf	??_main,w
  1350  014F  00BC               	movwf	??_main+1
  1351  0150  0EBC               	swapf	??_main+1,f
  1352  0151  0817               	movf	23,w	;volatile
  1353  0152  063C               	xorwf	??_main+1,w
  1354  0153  39EF               	andlw	-17
  1355  0154  063C               	xorwf	??_main+1,w
  1356  0155  0097               	movwf	23	;volatile
  1357  0156                     l1701:
  1358                           
  1359                           ;proyecto_final.c: 165:                         if (opcion==51){
  1360  0156  3033               	movlw	51
  1361  0157  062F               	xorwf	_opcion,w
  1362  0158  1D03               	btfss	3,2
  1363  0159  295B               	goto	u1541
  1364  015A  295C               	goto	u1540
  1365  015B                     u1541:
  1366  015B  2982               	goto	l1711
  1367  015C                     u1540:
  1368  015C                     l1703:
  1369                           
  1370                           ;proyecto_final.c: 166:                             showString("Ingrese el caracter a mo
      +                          strar en PORTB");
  1371  015C  30FF               	movlw	255
  1372  015D  0088               	movwf	8	;volatile
  1373  015E                     l1705:
  1374                           
  1375                           ;proyecto_final.c: 167: 
  1376  015E  0808               	movf	8,w	;volatile
  1377  015F  00BB               	movwf	??_main
  1378  0160  1003               	clrc
  1379  0161  0C3B               	rrf	??_main,w
  1380  0162  3E80               	addlw	128
  1381  0163  0095               	movwf	21	;volatile
  1382  0164                     l1707:
  1383                           
  1384                           ;proyecto_final.c: 168:                             flag = 1;
  1385  0164  1808               	btfsc	8,0	;volatile
  1386  0165  2967               	goto	u1551
  1387  0166  296B               	goto	u1550
  1388  0167                     u1551:
  1389  0167  1283               	bcf	3,5	;RP0=0, select bank0
  1390  0168  1303               	bcf	3,6	;RP1=0, select bank0
  1391  0169  1697               	bsf	23,5	;volatile
  1392  016A  296E               	goto	u1564
  1393  016B                     u1550:
  1394  016B  1283               	bcf	3,5	;RP0=0, select bank0
  1395  016C  1303               	bcf	3,6	;RP1=0, select bank0
  1396  016D  1297               	bcf	23,5	;volatile
  1397  016E                     u1564:
  1398  016E                     l1709:
  1399                           
  1400                           ;proyecto_final.c: 169:                             opcion = 0;
  1401  016E  1683               	bsf	3,5	;RP0=1, select bank1
  1402  016F  1303               	bcf	3,6	;RP1=0, select bank1
  1403  0170  081E               	movf	30,w	;volatile
  1404  0171  1283               	bcf	3,5	;RP0=0, select bank0
  1405  0172  1303               	bcf	3,6	;RP1=0, select bank0
  1406  0173  00BB               	movwf	??_main
  1407  0174  3007               	movlw	7
  1408  0175                     u1575:
  1409  0175  1003               	clrc
  1410  0176  0CBB               	rrf	??_main,f
  1411  0177  3EFF               	addlw	-1
  1412  0178  1D03               	skipz
  1413  0179  2975               	goto	u1575
  1414  017A  083B               	movf	??_main,w
  1415  017B  00BC               	movwf	??_main+1
  1416  017C  0EBC               	swapf	??_main+1,f
  1417  017D  0817               	movf	23,w	;volatile
  1418  017E  063C               	xorwf	??_main+1,w
  1419  017F  39EF               	andlw	-17
  1420  0180  063C               	xorwf	??_main+1,w
  1421  0181  0097               	movwf	23	;volatile
  1422  0182                     l1711:
  1423                           
  1424                           ;proyecto_final.c: 172: 
  1425  0182  30A9               	movlw	low (STR_11| (0+32768))
  1426  0183  00B4               	movwf	showString@var
  1427  0184  3083               	movlw	high (STR_11| (0+32768))
  1428  0185  00B5               	movwf	showString@var+1
  1429  0186  120A  118A  2637  120A  118A  	fcall	_showString
  1430  018B                     l1713:
  1431                           
  1432                           ;proyecto_final.c: 173:                             }
  1433  018B  307C               	movlw	low (STR_10| (0+32768))
  1434  018C  1283               	bcf	3,5	;RP0=0, select bank0
  1435  018D  1303               	bcf	3,6	;RP1=0, select bank0
  1436  018E  00B4               	movwf	showString@var
  1437  018F  3083               	movlw	high (STR_10| (0+32768))
  1438  0190  00B5               	movwf	showString@var+1
  1439  0191  120A  118A  2637  120A  118A  	fcall	_showString
  1440                           
  1441                           ;proyecto_final.c: 175: 
  1442  0196  3001               	movlw	1
  1443  0197  1283               	bcf	3,5	;RP0=0, select bank0
  1444  0198  1303               	bcf	3,6	;RP1=0, select bank0
  1445  0199  00BF               	movwf	_flag
  1446  019A  3000               	movlw	0
  1447  019B  00C0               	movwf	_flag+1
  1448  019C                     l1715:
  1449                           
  1450                           ;proyecto_final.c: 176:                             opcion = 0;
  1451  019C  01AF               	clrf	_opcion
  1452  019D                     l1717:	
  1453                           ;proyecto_final.c: 178: 
  1454                           
  1455                           
  1456                           ;proyecto_final.c: 178: 
  1457  019D  082F               	movf	_opcion,w
  1458  019E  1903               	btfsc	3,2
  1459  019F  29A1               	goto	u1581
  1460  01A0  29A2               	goto	u1580
  1461  01A1                     u1581:
  1462  01A1  299D               	goto	l1717
  1463  01A2                     u1580:
  1464  01A2                     l1719:
  1465  01A2  3031               	movlw	49
  1466  01A3  062F               	xorwf	_opcion,w
  1467  01A4  1D03               	btfss	3,2
  1468  01A5  29A7               	goto	u1591
  1469  01A6  29A8               	goto	u1590
  1470  01A7                     u1591:
  1471  01A7  29CD               	goto	l1729
  1472  01A8                     u1590:
  1473  01A8                     l1721:
  1474  01A8  0188               	clrf	8	;volatile
  1475  01A9                     l1723:
  1476  01A9  0808               	movf	8,w	;volatile
  1477  01AA  00BB               	movwf	??_main
  1478  01AB  1003               	clrc
  1479  01AC  0C3B               	rrf	??_main,w
  1480  01AD  3E80               	addlw	128
  1481  01AE  009B               	movwf	27	;volatile
  1482  01AF                     l1725:
  1483  01AF  1808               	btfsc	8,0	;volatile
  1484  01B0  29B2               	goto	u1601
  1485  01B1  29B6               	goto	u1600
  1486  01B2                     u1601:
  1487  01B2  1283               	bcf	3,5	;RP0=0, select bank0
  1488  01B3  1303               	bcf	3,6	;RP1=0, select bank0
  1489  01B4  169D               	bsf	29,5	;volatile
  1490  01B5  29B9               	goto	u1614
  1491  01B6                     u1600:
  1492  01B6  1283               	bcf	3,5	;RP0=0, select bank0
  1493  01B7  1303               	bcf	3,6	;RP1=0, select bank0
  1494  01B8  129D               	bcf	29,5	;volatile
  1495  01B9                     u1614:
  1496  01B9                     l1727:
  1497  01B9  1683               	bsf	3,5	;RP0=1, select bank1
  1498  01BA  1303               	bcf	3,6	;RP1=0, select bank1
  1499  01BB  081E               	movf	30,w	;volatile
  1500  01BC  1283               	bcf	3,5	;RP0=0, select bank0
  1501  01BD  1303               	bcf	3,6	;RP1=0, select bank0
  1502  01BE  00BB               	movwf	??_main
  1503  01BF  3007               	movlw	7
  1504  01C0                     u1625:
  1505  01C0  1003               	clrc
  1506  01C1  0CBB               	rrf	??_main,f
  1507  01C2  3EFF               	addlw	-1
  1508  01C3  1D03               	skipz
  1509  01C4  29C0               	goto	u1625
  1510  01C5  083B               	movf	??_main,w
  1511  01C6  00BC               	movwf	??_main+1
  1512  01C7  0EBC               	swapf	??_main+1,f
  1513  01C8  081D               	movf	29,w	;volatile
  1514  01C9  063C               	xorwf	??_main+1,w
  1515  01CA  39EF               	andlw	-17
  1516  01CB  063C               	xorwf	??_main+1,w
  1517  01CC  009D               	movwf	29	;volatile
  1518  01CD                     l1729:
  1519  01CD  3032               	movlw	50
  1520  01CE  062F               	xorwf	_opcion,w
  1521  01CF  1D03               	btfss	3,2
  1522  01D0  29D2               	goto	u1631
  1523  01D1  29D3               	goto	u1630
  1524  01D2                     u1631:
  1525  01D2  29F9               	goto	l1739
  1526  01D3                     u1630:
  1527  01D3                     l1731:
  1528  01D3  3080               	movlw	128
  1529  01D4  0088               	movwf	8	;volatile
  1530  01D5                     l1733:
  1531  01D5  0808               	movf	8,w	;volatile
  1532  01D6  00BB               	movwf	??_main
  1533  01D7  1003               	clrc
  1534  01D8  0C3B               	rrf	??_main,w
  1535  01D9  3E80               	addlw	128
  1536  01DA  009B               	movwf	27	;volatile
  1537  01DB                     l1735:
  1538  01DB  1808               	btfsc	8,0	;volatile
  1539  01DC  29DE               	goto	u1641
  1540  01DD  29E2               	goto	u1640
  1541  01DE                     u1641:
  1542  01DE  1283               	bcf	3,5	;RP0=0, select bank0
  1543  01DF  1303               	bcf	3,6	;RP1=0, select bank0
  1544  01E0  169D               	bsf	29,5	;volatile
  1545  01E1  29E5               	goto	u1654
  1546  01E2                     u1640:
  1547  01E2  1283               	bcf	3,5	;RP0=0, select bank0
  1548  01E3  1303               	bcf	3,6	;RP1=0, select bank0
  1549  01E4  129D               	bcf	29,5	;volatile
  1550  01E5                     u1654:
  1551  01E5                     l1737:
  1552  01E5  1683               	bsf	3,5	;RP0=1, select bank1
  1553  01E6  1303               	bcf	3,6	;RP1=0, select bank1
  1554  01E7  081E               	movf	30,w	;volatile
  1555  01E8  1283               	bcf	3,5	;RP0=0, select bank0
  1556  01E9  1303               	bcf	3,6	;RP1=0, select bank0
  1557  01EA  00BB               	movwf	??_main
  1558  01EB  3007               	movlw	7
  1559  01EC                     u1665:
  1560  01EC  1003               	clrc
  1561  01ED  0CBB               	rrf	??_main,f
  1562  01EE  3EFF               	addlw	-1
  1563  01EF  1D03               	skipz
  1564  01F0  29EC               	goto	u1665
  1565  01F1  083B               	movf	??_main,w
  1566  01F2  00BC               	movwf	??_main+1
  1567  01F3  0EBC               	swapf	??_main+1,f
  1568  01F4  081D               	movf	29,w	;volatile
  1569  01F5  063C               	xorwf	??_main+1,w
  1570  01F6  39EF               	andlw	-17
  1571  01F7  063C               	xorwf	??_main+1,w
  1572  01F8  009D               	movwf	29	;volatile
  1573  01F9                     l1739:
  1574  01F9  3033               	movlw	51
  1575  01FA  062F               	xorwf	_opcion,w
  1576  01FB  1D03               	btfss	3,2
  1577  01FC  29FE               	goto	u1671
  1578  01FD  29FF               	goto	u1670
  1579  01FE                     u1671:
  1580  01FE  2A25               	goto	l1749
  1581  01FF                     u1670:
  1582  01FF                     l1741:
  1583  01FF  30FF               	movlw	255
  1584  0200  0088               	movwf	8	;volatile
  1585  0201                     l1743:
  1586  0201  0808               	movf	8,w	;volatile
  1587  0202  00BB               	movwf	??_main
  1588  0203  1003               	clrc
  1589  0204  0C3B               	rrf	??_main,w
  1590  0205  3E80               	addlw	128
  1591  0206  009B               	movwf	27	;volatile
  1592  0207                     l1745:
  1593  0207  1808               	btfsc	8,0	;volatile
  1594  0208  2A0A               	goto	u1681
  1595  0209  2A0E               	goto	u1680
  1596  020A                     u1681:
  1597  020A  1283               	bcf	3,5	;RP0=0, select bank0
  1598  020B  1303               	bcf	3,6	;RP1=0, select bank0
  1599  020C  169D               	bsf	29,5	;volatile
  1600  020D  2A11               	goto	u1694
  1601  020E                     u1680:
  1602  020E  1283               	bcf	3,5	;RP0=0, select bank0
  1603  020F  1303               	bcf	3,6	;RP1=0, select bank0
  1604  0210  129D               	bcf	29,5	;volatile
  1605  0211                     u1694:
  1606  0211                     l1747:
  1607  0211  1683               	bsf	3,5	;RP0=1, select bank1
  1608  0212  1303               	bcf	3,6	;RP1=0, select bank1
  1609  0213  081E               	movf	30,w	;volatile
  1610  0214  1283               	bcf	3,5	;RP0=0, select bank0
  1611  0215  1303               	bcf	3,6	;RP1=0, select bank0
  1612  0216  00BB               	movwf	??_main
  1613  0217  3007               	movlw	7
  1614  0218                     u1705:
  1615  0218  1003               	clrc
  1616  0219  0CBB               	rrf	??_main,f
  1617  021A  3EFF               	addlw	-1
  1618  021B  1D03               	skipz
  1619  021C  2A18               	goto	u1705
  1620  021D  083B               	movf	??_main,w
  1621  021E  00BC               	movwf	??_main+1
  1622  021F  0EBC               	swapf	??_main+1,f
  1623  0220  081D               	movf	29,w	;volatile
  1624  0221  063C               	xorwf	??_main+1,w
  1625  0222  39EF               	andlw	-17
  1626  0223  063C               	xorwf	??_main+1,w
  1627  0224  009D               	movwf	29	;volatile
  1628  0225                     l1749:
  1629  0225  01AF               	clrf	_opcion
  1630  0226                     l1751:
  1631  0226  3032               	movlw	50
  1632  0227  062F               	xorwf	_opcion,w
  1633  0228  1D03               	btfss	3,2
  1634  0229  2A2B               	goto	u1711
  1635  022A  2A2C               	goto	u1710
  1636  022B                     u1711:
  1637  022B  2A42               	goto	l1763
  1638  022C                     u1710:
  1639  022C                     l1753:
  1640  022C  3013               	movlw	low (STR_13| (0+32768))
  1641  022D  00B4               	movwf	showString@var
  1642  022E  3083               	movlw	high (STR_13| (0+32768))
  1643  022F  00B5               	movwf	showString@var+1
  1644  0230  120A  118A  2637  120A  118A  	fcall	_showString
  1645  0235                     l1755:
  1646  0235  3001               	movlw	1
  1647  0236  1283               	bcf	3,5	;RP0=0, select bank0
  1648  0237  1303               	bcf	3,6	;RP1=0, select bank0
  1649  0238  00BF               	movwf	_flag
  1650  0239  3000               	movlw	0
  1651  023A  00C0               	movwf	_flag+1
  1652  023B                     l1757:
  1653  023B  01AF               	clrf	_opcion
  1654  023C                     l1759:
  1655  023C  082F               	movf	_opcion,w
  1656  023D  1903               	btfsc	3,2
  1657  023E  2A40               	goto	u1721
  1658  023F  2A41               	goto	u1720
  1659  0240                     u1721:
  1660  0240  2A3C               	goto	l1759
  1661  0241                     u1720:
  1662  0241                     l1761:
  1663  0241  01AF               	clrf	_opcion
  1664  0242                     l1763:
  1665  0242  3033               	movlw	51
  1666  0243  062F               	xorwf	_opcion,w
  1667  0244  1D03               	btfss	3,2
  1668  0245  2A47               	goto	u1731
  1669  0246  2A48               	goto	u1730
  1670  0247                     u1731:
  1671  0247  2A5E               	goto	l1775
  1672  0248                     u1730:
  1673  0248                     l1765:
  1674  0248  30D0               	movlw	low (STR_14| (0+32768))
  1675  0249  00B4               	movwf	showString@var
  1676  024A  3083               	movlw	high (STR_14| (0+32768))
  1677  024B  00B5               	movwf	showString@var+1
  1678  024C  120A  118A  2637  120A  118A  	fcall	_showString
  1679  0251                     l1767:
  1680  0251  3001               	movlw	1
  1681  0252  1283               	bcf	3,5	;RP0=0, select bank0
  1682  0253  1303               	bcf	3,6	;RP1=0, select bank0
  1683  0254  00BF               	movwf	_flag
  1684  0255  3000               	movlw	0
  1685  0256  00C0               	movwf	_flag+1
  1686  0257                     l1769:
  1687  0257  01AF               	clrf	_opcion
  1688  0258                     l1771:
  1689  0258  082F               	movf	_opcion,w
  1690  0259  1903               	btfsc	3,2
  1691  025A  2A5C               	goto	u1741
  1692  025B  2A5D               	goto	u1740
  1693  025C                     u1741:
  1694  025C  2A58               	goto	l1771
  1695  025D                     u1740:
  1696  025D                     l1773:
  1697  025D  01AF               	clrf	_opcion
  1698  025E                     l1775:
  1699  025E  3034               	movlw	52
  1700  025F  062F               	xorwf	_opcion,w
  1701  0260  1D03               	btfss	3,2
  1702  0261  2A63               	goto	u1751
  1703  0262  2A64               	goto	u1750
  1704  0263                     u1751:
  1705  0263  2A65               	goto	l1781
  1706  0264                     u1750:
  1707  0264  287E               	goto	l1661
  1708  0265                     l1781:
  1709                           
  1710                           ;proyecto_final.c: 130:                             }
  1711  0265  3035               	movlw	53
  1712  0266  062F               	xorwf	_opcion,w
  1713  0267  1D03               	btfss	3,2
  1714  0268  2A6A               	goto	u1761
  1715  0269  2A6B               	goto	u1760
  1716  026A                     u1761:
  1717  026A  2884               	goto	l1665
  1718  026B                     u1760:
  1719  026B                     l1783:
  1720                           
  1721                           ;proyecto_final.c: 254:                     if(opcion==53){
  1722  026B  3035               	movlw	53
  1723  026C  062F               	xorwf	_opcion,w
  1724  026D  1D03               	btfss	3,2
  1725  026E  2A70               	goto	u1771
  1726  026F  2A71               	goto	u1770
  1727  0270                     u1771:
  1728  0270  2A7E               	goto	l1789
  1729  0271                     u1770:
  1730  0271                     l1785:
  1731                           
  1732                           ;proyecto_final.c: 255:                        showString("Ingrese 1 si desea ingresar a
      +                           modo control USART");
  1733  0271  304B               	movlw	low (STR_1| (0+32768))
  1734  0272  00B4               	movwf	showString@var
  1735  0273  3083               	movlw	high (STR_1| (0+32768))
  1736  0274  00B5               	movwf	showString@var+1
  1737  0275  120A  118A  2637  120A  118A  	fcall	_showString
  1738  027A                     l1787:
  1739                           
  1740                           ;proyecto_final.c: 256:                        flag = 0;
  1741  027A  1283               	bcf	3,5	;RP0=0, select bank0
  1742  027B  1303               	bcf	3,6	;RP1=0, select bank0
  1743  027C  01BF               	clrf	_flag
  1744  027D  01C0               	clrf	_flag+1
  1745  027E                     l1789:
  1746                           
  1747                           ;proyecto_final.c: 269:         if (PORTBbits.RB4 == 0){
  1748  027E  1A06               	btfsc	6,4	;volatile
  1749  027F  2A81               	goto	u1781
  1750  0280  2A82               	goto	u1780
  1751  0281                     u1781:
  1752  0281  2A86               	goto	l1793
  1753  0282                     u1780:
  1754  0282                     l1791:
  1755                           
  1756                           ;proyecto_final.c: 270:             RB3_old = 1;
  1757  0282  3001               	movlw	1
  1758  0283  00AD               	movwf	_RB3_old
  1759  0284  3000               	movlw	0
  1760  0285  00AE               	movwf	_RB3_old+1
  1761  0286                     l1793:
  1762                           
  1763                           ;proyecto_final.c: 272:         if(PORTBbits.RB4 == 1 && RB3_old==1){
  1764  0286  1E06               	btfss	6,4	;volatile
  1765  0287  2A89               	goto	u1791
  1766  0288  2A8A               	goto	u1790
  1767  0289                     u1791:
  1768  0289  2841               	goto	l1639
  1769  028A                     u1790:
  1770  028A                     l1795:
  1771  028A  032D               	decf	_RB3_old,w
  1772  028B  042E               	iorwf	_RB3_old+1,w
  1773  028C  1D03               	btfss	3,2
  1774  028D  2A8F               	goto	u1801
  1775  028E  2A90               	goto	u1800
  1776  028F                     u1801:
  1777  028F  2841               	goto	l1639
  1778  0290                     u1800:
  1779  0290                     l1797:
  1780                           
  1781                           ;proyecto_final.c: 273:             eepromVal = eepromVal + 1;
  1782  0290  082B               	movf	_eepromVal,w
  1783  0291  3E01               	addlw	1
  1784  0292  00AB               	movwf	_eepromVal
  1785  0293  082C               	movf	_eepromVal+1,w
  1786  0294  1803               	skipnc
  1787  0295  3E01               	addlw	1
  1788  0296  3E00               	addlw	0
  1789  0297  00AC               	movwf	_eepromVal+1
  1790  0298                     l1799:
  1791                           
  1792                           ;proyecto_final.c: 275:             writeToEEPROM(eepromVal,addressEEPROM);
  1793  0298  082C               	movf	_eepromVal+1,w
  1794  0299  00B1               	movwf	writeToEEPROM@data+1
  1795  029A  082B               	movf	_eepromVal,w
  1796  029B  00B0               	movwf	writeToEEPROM@data
  1797  029C  083E               	movf	_addressEEPROM+1,w
  1798  029D  00B3               	movwf	writeToEEPROM@address+1
  1799  029E  083D               	movf	_addressEEPROM,w
  1800  029F  00B2               	movwf	writeToEEPROM@address
  1801  02A0  120A  118A  26B0  120A  118A  	fcall	_writeToEEPROM
  1802  02A5                     l1801:
  1803                           
  1804                           ;proyecto_final.c: 277:             if(addressEEPROM == 0x15){
  1805  02A5  3015               	movlw	21
  1806  02A6  1283               	bcf	3,5	;RP0=0, select bank0
  1807  02A7  1303               	bcf	3,6	;RP1=0, select bank0
  1808  02A8  063D               	xorwf	_addressEEPROM,w
  1809  02A9  043E               	iorwf	_addressEEPROM+1,w
  1810  02AA  1D03               	btfss	3,2
  1811  02AB  2AAD               	goto	u1811
  1812  02AC  2AAE               	goto	u1810
  1813  02AD                     u1811:
  1814  02AD  2AB3               	goto	l1805
  1815  02AE                     u1810:
  1816  02AE                     l1803:
  1817                           
  1818                           ;proyecto_final.c: 278:                 addressEEPROM = 0x10;
  1819  02AE  3010               	movlw	16
  1820  02AF  00BD               	movwf	_addressEEPROM
  1821  02B0  3000               	movlw	0
  1822  02B1  00BE               	movwf	_addressEEPROM+1
  1823                           
  1824                           ;proyecto_final.c: 279:             }else{
  1825  02B2  2ABB               	goto	l1807
  1826  02B3                     l1805:
  1827                           
  1828                           ;proyecto_final.c: 280:                 addressEEPROM = addressEEPROM + 1;
  1829  02B3  083D               	movf	_addressEEPROM,w
  1830  02B4  3E01               	addlw	1
  1831  02B5  00BD               	movwf	_addressEEPROM
  1832  02B6  083E               	movf	_addressEEPROM+1,w
  1833  02B7  1803               	skipnc
  1834  02B8  3E01               	addlw	1
  1835  02B9  3E00               	addlw	0
  1836  02BA  00BE               	movwf	_addressEEPROM+1
  1837  02BB                     l1807:
  1838                           
  1839                           ;proyecto_final.c: 283:             RB3_old = 0;
  1840  02BB  01AD               	clrf	_RB3_old
  1841  02BC  01AE               	clrf	_RB3_old+1
  1842  02BD  2841               	goto	l1639
  1843  02BE  120A  118A  280C   	ljmp	start
  1844  02C1                     __end_of_main:
  1845                           
  1846                           	psect	text1
  1847  06B0                     __ptext1:	
  1848 ;; *************** function _writeToEEPROM *****************
  1849 ;; Defined at:
  1850 ;;		line 304 in file "proyecto_final.c"
  1851 ;; Parameters:    Size  Location     Type
  1852 ;;  data            2    0[BANK0 ] int 
  1853 ;;  address         2    2[BANK0 ] int 
  1854 ;; Auto vars:     Size  Location     Type
  1855 ;;		None
  1856 ;; Return value:  Size  Location     Type
  1857 ;;                  1    wreg      void 
  1858 ;; Registers used:
  1859 ;;		wreg
  1860 ;; Tracked objects:
  1861 ;;		On entry : 0/0
  1862 ;;		On exit  : 0/0
  1863 ;;		Unchanged: 0/0
  1864 ;; Data sizes:     COMMON   BANK0   BANK1   BANK3   BANK2
  1865 ;;      Params:         0       4       0       0       0
  1866 ;;      Locals:         0       0       0       0       0
  1867 ;;      Temps:          0       0       0       0       0
  1868 ;;      Totals:         0       4       0       0       0
  1869 ;;Total ram usage:        4 bytes
  1870 ;; Hardware stack levels used:    1
  1871 ;; Hardware stack levels required when called:    2
  1872 ;; This function calls:
  1873 ;;		Nothing
  1874 ;; This function is called by:
  1875 ;;		_main
  1876 ;; This function uses a non-reentrant model
  1877 ;;
  1878                           
  1879                           
  1880                           ;psect for function _writeToEEPROM
  1881  06B0                     _writeToEEPROM:
  1882  06B0                     l1619:	
  1883                           ;incstack = 0
  1884                           ; Regs used in _writeToEEPROM: [wreg]
  1885                           
  1886                           
  1887                           ;proyecto_final.c: 305:     EEADR = address;
  1888  06B0  1283               	bcf	3,5	;RP0=0, select bank0
  1889  06B1  1303               	bcf	3,6	;RP1=0, select bank0
  1890  06B2  0832               	movf	writeToEEPROM@address,w
  1891  06B3  1283               	bcf	3,5	;RP0=0, select bank2
  1892  06B4  1703               	bsf	3,6	;RP1=1, select bank2
  1893  06B5  008D               	movwf	13	;volatile
  1894                           
  1895                           ;proyecto_final.c: 306:     EEDAT = data;
  1896  06B6  1283               	bcf	3,5	;RP0=0, select bank0
  1897  06B7  1303               	bcf	3,6	;RP1=0, select bank0
  1898  06B8  0830               	movf	writeToEEPROM@data,w
  1899  06B9  1283               	bcf	3,5	;RP0=0, select bank2
  1900  06BA  1703               	bsf	3,6	;RP1=1, select bank2
  1901  06BB  008C               	movwf	12	;volatile
  1902  06BC                     l1621:
  1903                           
  1904                           ;proyecto_final.c: 307:     EECON1bits.EEPGD = 0;
  1905  06BC  1683               	bsf	3,5	;RP0=1, select bank3
  1906  06BD  1703               	bsf	3,6	;RP1=1, select bank3
  1907  06BE  138C               	bcf	12,7	;volsfr
  1908  06BF                     l1623:
  1909                           
  1910                           ;proyecto_final.c: 308:     EECON1bits.WREN = 1;
  1911  06BF  150C               	bsf	12,2	;volsfr
  1912  06C0                     l1625:
  1913                           
  1914                           ;proyecto_final.c: 311:     INTCONbits.GIE = 0;
  1915  06C0  138B               	bcf	11,7	;volatile
  1916                           
  1917                           ;proyecto_final.c: 312:     EECON2 = 0x55;
  1918  06C1  3055               	movlw	85
  1919  06C2  008D               	movwf	13	;volsfr
  1920                           
  1921                           ;proyecto_final.c: 313:     EECON2 = 0xAA;
  1922  06C3  30AA               	movlw	170
  1923  06C4  008D               	movwf	13	;volsfr
  1924  06C5                     l1627:
  1925                           
  1926                           ;proyecto_final.c: 315:     EECON1bits.WR = 1;
  1927  06C5  148C               	bsf	12,1	;volsfr
  1928  06C6                     l1629:
  1929                           
  1930                           ;proyecto_final.c: 318:     EECON1bits.WREN = 0;
  1931  06C6  110C               	bcf	12,2	;volsfr
  1932  06C7                     l1631:
  1933                           
  1934                           ;proyecto_final.c: 319:     INTCONbits.GIE = 1;
  1935  06C7  178B               	bsf	11,7	;volatile
  1936  06C8                     l177:
  1937  06C8  0008               	return
  1938  06C9                     __end_of_writeToEEPROM:
  1939                           
  1940                           	psect	text2
  1941  0637                     __ptext2:	
  1942 ;; *************** function _showString *****************
  1943 ;; Defined at:
  1944 ;;		line 548 in file "proyecto_final.c"
  1945 ;; Parameters:    Size  Location     Type
  1946 ;;  var             2    4[BANK0 ] PTR unsigned char 
  1947 ;;		 -> STR_15(49), STR_14(39), STR_13(56), STR_12(45), 
  1948 ;;		 -> STR_11(39), STR_10(45), STR_9(38), STR_8(30), 
  1949 ;;		 -> STR_7(25), STR_6(18), STR_5(19), STR_4(19), 
  1950 ;;		 -> STR_3(27), STR_2(30), STR_1(49), 
  1951 ;; Auto vars:     Size  Location     Type
  1952 ;;  i               2    9[BANK0 ] int 
  1953 ;; Return value:  Size  Location     Type
  1954 ;;                  1    wreg      void 
  1955 ;; Registers used:
  1956 ;;		wreg, fsr0l, fsr0h, status,2, status,0, btemp+1, pclath, cstack
  1957 ;; Tracked objects:
  1958 ;;		On entry : 0/0
  1959 ;;		On exit  : 0/0
  1960 ;;		Unchanged: 0/0
  1961 ;; Data sizes:     COMMON   BANK0   BANK1   BANK3   BANK2
  1962 ;;      Params:         0       2       0       0       0
  1963 ;;      Locals:         0       2       0       0       0
  1964 ;;      Temps:          0       3       0       0       0
  1965 ;;      Totals:         0       7       0       0       0
  1966 ;;Total ram usage:        7 bytes
  1967 ;; Hardware stack levels used:    1
  1968 ;; Hardware stack levels required when called:    3
  1969 ;; This function calls:
  1970 ;;		_strlen
  1971 ;; This function is called by:
  1972 ;;		_main
  1973 ;; This function uses a non-reentrant model
  1974 ;;
  1975                           
  1976                           
  1977                           ;psect for function _showString
  1978  0637                     _showString:
  1979  0637                     l1607:	
  1980                           ;incstack = 0
  1981                           ; Regs used in _showString: [wreg-fsr0h+status,2+status,0+btemp+1+pclath+cstack]
  1982                           
  1983                           
  1984                           ;proyecto_final.c: 549:     int i;;proyecto_final.c: 551:     for (i = 0; i < strlen(var
      +                          ); i++) {
  1985  0637  1283               	bcf	3,5	;RP0=0, select bank0
  1986  0638  1303               	bcf	3,6	;RP1=0, select bank0
  1987  0639  01B9               	clrf	showString@i
  1988  063A  01BA               	clrf	showString@i+1
  1989  063B  2E66               	goto	l1615
  1990  063C                     l1609:
  1991                           
  1992                           ;proyecto_final.c: 552:         TXREG = var[i];
  1993  063C  0839               	movf	showString@i,w
  1994  063D  0734               	addwf	showString@var,w
  1995  063E  00B7               	movwf	??_showString+1
  1996  063F  0835               	movf	showString@var+1,w
  1997  0640  00B6               	movwf	??_showString
  1998  0641  1803               	skipnc
  1999  0642  0AB6               	incf	??_showString,f
  2000  0643  1FB9               	btfss	showString@i,7
  2001  0644  2E46               	goto	u1360
  2002  0645  03B6               	decf	??_showString,f
  2003  0646                     u1360:
  2004  0646  1283               	bcf	3,5	;RP0=0, select bank0
  2005  0647  1303               	bcf	3,6	;RP1=0, select bank0
  2006  0648  0836               	movf	??_showString,w
  2007  0649  00B8               	movwf	??_showString+2
  2008  064A  0838               	movf	??_showString+2,w
  2009  064B  00FF               	movwf	btemp+1
  2010  064C  0837               	movf	??_showString+1,w
  2011  064D  0084               	movwf	4
  2012  064E  120A  118A  2300  120A  118A  	fcall	stringtab
  2013  0653  0099               	movwf	25	;volatile
  2014  0654                     l1611:
  2015                           
  2016                           ;proyecto_final.c: 553:         _delay((unsigned long)((5)*(8000000/4000.0)));
  2017  0654  300D               	movlw	13
  2018  0655  1283               	bcf	3,5	;RP0=0, select bank0
  2019  0656  1303               	bcf	3,6	;RP1=0, select bank0
  2020  0657  00B7               	movwf	??_showString+1
  2021  0658  30FB               	movlw	251
  2022  0659  00B6               	movwf	??_showString
  2023  065A                     u1837:
  2024  065A  0BB6               	decfsz	??_showString,f
  2025  065B  2E5A               	goto	u1837
  2026  065C  0BB7               	decfsz	??_showString+1,f
  2027  065D  2E5A               	goto	u1837
  2028  065E                     l1613:
  2029                           
  2030                           ;proyecto_final.c: 554:     }
  2031  065E  3001               	movlw	1
  2032  065F  1283               	bcf	3,5	;RP0=0, select bank0
  2033  0660  1303               	bcf	3,6	;RP1=0, select bank0
  2034  0661  07B9               	addwf	showString@i,f
  2035  0662  1803               	skipnc
  2036  0663  0ABA               	incf	showString@i+1,f
  2037  0664  3000               	movlw	0
  2038  0665  07BA               	addwf	showString@i+1,f
  2039  0666                     l1615:
  2040  0666  0834               	movf	showString@var,w
  2041  0667  00B0               	movwf	strlen@s
  2042  0668  0835               	movf	showString@var+1,w
  2043  0669  00B1               	movwf	strlen@s+1
  2044  066A  120A  118A  268C  120A  118A  	fcall	_strlen
  2045  066F  1283               	bcf	3,5	;RP0=0, select bank0
  2046  0670  1303               	bcf	3,6	;RP1=0, select bank0
  2047  0671  0831               	movf	?_strlen+1,w
  2048  0672  023A               	subwf	showString@i+1,w
  2049  0673  1D03               	skipz
  2050  0674  2E77               	goto	u1375
  2051  0675  0830               	movf	?_strlen,w
  2052  0676  0239               	subwf	showString@i,w
  2053  0677                     u1375:
  2054  0677  1C03               	skipc
  2055  0678  2E7A               	goto	u1371
  2056  0679  2E7B               	goto	u1370
  2057  067A                     u1371:
  2058  067A  2E3C               	goto	l1609
  2059  067B                     u1370:
  2060  067B                     l1617:
  2061                           
  2062                           ;proyecto_final.c: 556:     TXREG = 13;
  2063  067B  300D               	movlw	13
  2064  067C  0099               	movwf	25	;volatile
  2065                           
  2066                           ;proyecto_final.c: 557:     _delay((unsigned long)((5)*(8000000/4000.0)));
  2067  067D  300D               	movlw	13
  2068  067E  1283               	bcf	3,5	;RP0=0, select bank0
  2069  067F  1303               	bcf	3,6	;RP1=0, select bank0
  2070  0680  00B7               	movwf	??_showString+1
  2071  0681  30FB               	movlw	251
  2072  0682  00B6               	movwf	??_showString
  2073  0683                     u1847:
  2074  0683  0BB6               	decfsz	??_showString,f
  2075  0684  2E83               	goto	u1847
  2076  0685  0BB7               	decfsz	??_showString+1,f
  2077  0686  2E83               	goto	u1847
  2078                           
  2079                           ;proyecto_final.c: 558:     TXREG = 11;
  2080  0687  300B               	movlw	11
  2081  0688  1283               	bcf	3,5	;RP0=0, select bank0
  2082  0689  1303               	bcf	3,6	;RP1=0, select bank0
  2083  068A  0099               	movwf	25	;volatile
  2084  068B                     l221:
  2085  068B  0008               	return
  2086  068C                     __end_of_showString:
  2087                           
  2088                           	psect	text3
  2089  068C                     __ptext3:	
  2090 ;; *************** function _strlen *****************
  2091 ;; Defined at:
  2092 ;;		line 4 in file "C:\Program Files\Microchip\xc8\v2.31\pic\sources\c90\common\strlen.c"
  2093 ;; Parameters:    Size  Location     Type
  2094 ;;  s               2    0[BANK0 ] PTR const unsigned char 
  2095 ;;		 -> STR_15(49), STR_14(39), STR_13(56), STR_12(45), 
  2096 ;;		 -> STR_11(39), STR_10(45), STR_9(38), STR_8(30), 
  2097 ;;		 -> STR_7(25), STR_6(18), STR_5(19), STR_4(19), 
  2098 ;;		 -> STR_3(27), STR_2(30), STR_1(49), 
  2099 ;; Auto vars:     Size  Location     Type
  2100 ;;  cp              2    2[BANK0 ] PTR const unsigned char 
  2101 ;;		 -> STR_15(49), STR_14(39), STR_13(56), STR_12(45), 
  2102 ;;		 -> STR_11(39), STR_10(45), STR_9(38), STR_8(30), 
  2103 ;;		 -> STR_7(25), STR_6(18), STR_5(19), STR_4(19), 
  2104 ;;		 -> STR_3(27), STR_2(30), STR_1(49), 
  2105 ;; Return value:  Size  Location     Type
  2106 ;;                  2    0[BANK0 ] unsigned int 
  2107 ;; Registers used:
  2108 ;;		wreg, fsr0l, fsr0h, status,2, status,0, btemp+1, pclath
  2109 ;; Tracked objects:
  2110 ;;		On entry : 0/0
  2111 ;;		On exit  : 0/0
  2112 ;;		Unchanged: 0/0
  2113 ;; Data sizes:     COMMON   BANK0   BANK1   BANK3   BANK2
  2114 ;;      Params:         0       2       0       0       0
  2115 ;;      Locals:         0       2       0       0       0
  2116 ;;      Temps:          0       0       0       0       0
  2117 ;;      Totals:         0       4       0       0       0
  2118 ;;Total ram usage:        4 bytes
  2119 ;; Hardware stack levels used:    1
  2120 ;; Hardware stack levels required when called:    2
  2121 ;; This function calls:
  2122 ;;		Nothing
  2123 ;; This function is called by:
  2124 ;;		_showString
  2125 ;; This function uses a non-reentrant model
  2126 ;;
  2127                           
  2128                           
  2129                           ;psect for function _strlen
  2130  068C                     _strlen:
  2131  068C                     l1589:	
  2132                           ;incstack = 0
  2133                           ; Regs used in _strlen: [wreg-fsr0h+status,2+status,0+btemp+1+pclath]
  2134                           
  2135  068C  1283               	bcf	3,5	;RP0=0, select bank0
  2136  068D  1303               	bcf	3,6	;RP1=0, select bank0
  2137  068E  0830               	movf	strlen@s,w
  2138  068F  00B2               	movwf	strlen@cp
  2139  0690  0831               	movf	strlen@s+1,w
  2140  0691  00B3               	movwf	strlen@cp+1
  2141  0692  2E99               	goto	l1593
  2142  0693                     l1591:
  2143  0693  3001               	movlw	1
  2144  0694  07B2               	addwf	strlen@cp,f
  2145  0695  1803               	skipnc
  2146  0696  0AB3               	incf	strlen@cp+1,f
  2147  0697  3000               	movlw	0
  2148  0698  07B3               	addwf	strlen@cp+1,f
  2149  0699                     l1593:
  2150  0699  0833               	movf	strlen@cp+1,w
  2151  069A  00FF               	movwf	btemp+1
  2152  069B  0832               	movf	strlen@cp,w
  2153  069C  0084               	movwf	4
  2154  069D  120A  118A  2300  120A  118A  	fcall	stringtab
  2155  06A2  3A00               	xorlw	0
  2156  06A3  1D03               	skipz
  2157  06A4  2EA6               	goto	u1351
  2158  06A5  2EA7               	goto	u1350
  2159  06A6                     u1351:
  2160  06A6  2E93               	goto	l1591
  2161  06A7                     u1350:
  2162  06A7                     l1595:
  2163  06A7  0830               	movf	strlen@s,w
  2164  06A8  0232               	subwf	strlen@cp,w
  2165  06A9  00B0               	movwf	?_strlen
  2166  06AA  0831               	movf	strlen@s+1,w
  2167  06AB  1C03               	skipc
  2168  06AC  0A31               	incf	strlen@s+1,w
  2169  06AD  0233               	subwf	strlen@cp+1,w
  2170  06AE  00B1               	movwf	?_strlen+1
  2171  06AF                     l761:
  2172  06AF  0008               	return
  2173  06B0                     __end_of_strlen:
  2174                           
  2175                           	psect	text4
  2176  06C9                     __ptext4:	
  2177 ;; *************** function _setup *****************
  2178 ;; Defined at:
  2179 ;;		line 293 in file "proyecto_final.c"
  2180 ;; Parameters:    Size  Location     Type
  2181 ;;		None
  2182 ;; Auto vars:     Size  Location     Type
  2183 ;;		None
  2184 ;; Return value:  Size  Location     Type
  2185 ;;                  1    wreg      void 
  2186 ;; Registers used:
  2187 ;;		wreg, status,2, status,0, pclath, cstack
  2188 ;; Tracked objects:
  2189 ;;		On entry : 0/0
  2190 ;;		On exit  : 0/0
  2191 ;;		Unchanged: 0/0
  2192 ;; Data sizes:     COMMON   BANK0   BANK1   BANK3   BANK2
  2193 ;;      Params:         0       0       0       0       0
  2194 ;;      Locals:         0       0       0       0       0
  2195 ;;      Temps:          0       0       0       0       0
  2196 ;;      Totals:         0       0       0       0       0
  2197 ;;Total ram usage:        0 bytes
  2198 ;; Hardware stack levels used:    1
  2199 ;; Hardware stack levels required when called:    3
  2200 ;; This function calls:
  2201 ;;		_config_int_enable
  2202 ;;		_config_io
  2203 ;;		_config_iocb
  2204 ;;		_config_reloj
  2205 ;; This function is called by:
  2206 ;;		_main
  2207 ;; This function uses a non-reentrant model
  2208 ;;
  2209                           
  2210                           
  2211                           ;psect for function _setup
  2212  06C9                     _setup:
  2213  06C9                     l1599:	
  2214                           ;incstack = 0
  2215                           ; Regs used in _setup: [wreg+status,2+status,0+pclath+cstack]
  2216                           
  2217                           
  2218                           ;proyecto_final.c: 295:     config_reloj();
  2219  06C9  120A  118A  26F7  120A  118A  	fcall	_config_reloj
  2220  06CE                     l1601:
  2221                           
  2222                           ;proyecto_final.c: 296:     config_io();
  2223  06CE  120A  118A  25CE  120A  118A  	fcall	_config_io
  2224  06D3                     l1603:
  2225                           
  2226                           ;proyecto_final.c: 297:     config_int_enable();
  2227  06D3  120A  118A  26DE  120A  118A  	fcall	_config_int_enable
  2228                           
  2229                           ;proyecto_final.c: 298:     config_iocb();
  2230  06D8  120A  118A  26FE  120A  118A  	fcall	_config_iocb
  2231  06DD                     l174:
  2232  06DD  0008               	return
  2233  06DE                     __end_of_setup:
  2234                           
  2235                           	psect	text5
  2236  06F7                     __ptext5:	
  2237 ;; *************** function _config_reloj *****************
  2238 ;; Defined at:
  2239 ;;		line 431 in file "proyecto_final.c"
  2240 ;; Parameters:    Size  Location     Type
  2241 ;;		None
  2242 ;; Auto vars:     Size  Location     Type
  2243 ;;		None
  2244 ;; Return value:  Size  Location     Type
  2245 ;;                  1    wreg      void 
  2246 ;; Registers used:
  2247 ;;		None
  2248 ;; Tracked objects:
  2249 ;;		On entry : 0/0
  2250 ;;		On exit  : 0/0
  2251 ;;		Unchanged: 0/0
  2252 ;; Data sizes:     COMMON   BANK0   BANK1   BANK3   BANK2
  2253 ;;      Params:         0       0       0       0       0
  2254 ;;      Locals:         0       0       0       0       0
  2255 ;;      Temps:          0       0       0       0       0
  2256 ;;      Totals:         0       0       0       0       0
  2257 ;;Total ram usage:        0 bytes
  2258 ;; Hardware stack levels used:    1
  2259 ;; Hardware stack levels required when called:    2
  2260 ;; This function calls:
  2261 ;;		Nothing
  2262 ;; This function is called by:
  2263 ;;		_setup
  2264 ;; This function uses a non-reentrant model
  2265 ;;
  2266                           
  2267                           
  2268                           ;psect for function _config_reloj
  2269  06F7                     _config_reloj:
  2270  06F7                     l1579:	
  2271                           ;incstack = 0
  2272                           ; Regs used in _config_reloj: []
  2273                           
  2274                           
  2275                           ;proyecto_final.c: 433:     OSCCONbits.IRCF2 =1 ;
  2276  06F7  1683               	bsf	3,5	;RP0=1, select bank1
  2277  06F8  1303               	bcf	3,6	;RP1=0, select bank1
  2278  06F9  170F               	bsf	15,6	;volatile
  2279                           
  2280                           ;proyecto_final.c: 434:     OSCCONbits.IRCF1 =1 ;
  2281  06FA  168F               	bsf	15,5	;volatile
  2282                           
  2283                           ;proyecto_final.c: 435:     OSCCONbits.IRCF0 =1 ;
  2284  06FB  160F               	bsf	15,4	;volatile
  2285                           
  2286                           ;proyecto_final.c: 436:     OSCCONbits.SCS = 1;
  2287  06FC  140F               	bsf	15,0	;volatile
  2288  06FD                     l203:	
  2289                           ;proyecto_final.c: 438:     return;
  2290                           
  2291  06FD  0008               	return
  2292  06FE                     __end_of_config_reloj:
  2293                           
  2294                           	psect	text6
  2295  06FE                     __ptext6:	
  2296 ;; *************** function _config_iocb *****************
  2297 ;; Defined at:
  2298 ;;		line 538 in file "proyecto_final.c"
  2299 ;; Parameters:    Size  Location     Type
  2300 ;;		None
  2301 ;; Auto vars:     Size  Location     Type
  2302 ;;		None
  2303 ;; Return value:  Size  Location     Type
  2304 ;;                  1    wreg      void 
  2305 ;; Registers used:
  2306 ;;		wreg
  2307 ;; Tracked objects:
  2308 ;;		On entry : 0/0
  2309 ;;		On exit  : 0/0
  2310 ;;		Unchanged: 0/0
  2311 ;; Data sizes:     COMMON   BANK0   BANK1   BANK3   BANK2
  2312 ;;      Params:         0       0       0       0       0
  2313 ;;      Locals:         0       0       0       0       0
  2314 ;;      Temps:          0       0       0       0       0
  2315 ;;      Totals:         0       0       0       0       0
  2316 ;;Total ram usage:        0 bytes
  2317 ;; Hardware stack levels used:    1
  2318 ;; Hardware stack levels required when called:    2
  2319 ;; This function calls:
  2320 ;;		Nothing
  2321 ;; This function is called by:
  2322 ;;		_setup
  2323 ;; This function uses a non-reentrant model
  2324 ;;
  2325                           
  2326                           
  2327                           ;psect for function _config_iocb
  2328  06FE                     _config_iocb:
  2329  06FE                     l1583:	
  2330                           ;incstack = 0
  2331                           ; Regs used in _config_iocb: [wreg]
  2332                           
  2333                           
  2334                           ;proyecto_final.c: 540:     IOCB = 0x0F;
  2335  06FE  300F               	movlw	15
  2336  06FF  1683               	bsf	3,5	;RP0=1, select bank1
  2337  0700  1303               	bcf	3,6	;RP1=0, select bank1
  2338  0701  0096               	movwf	22	;volatile
  2339  0702                     l1585:
  2340                           
  2341                           ;proyecto_final.c: 542:     INTCONbits.RBIF = 0;
  2342  0702  100B               	bcf	11,0	;volatile
  2343  0703                     l215:
  2344  0703  0008               	return
  2345  0704                     __end_of_config_iocb:
  2346                           
  2347                           	psect	text7
  2348  05CE                     __ptext7:	
  2349 ;; *************** function _config_io *****************
  2350 ;; Defined at:
  2351 ;;		line 441 in file "proyecto_final.c"
  2352 ;; Parameters:    Size  Location     Type
  2353 ;;		None
  2354 ;; Auto vars:     Size  Location     Type
  2355 ;;		None
  2356 ;; Return value:  Size  Location     Type
  2357 ;;                  1    wreg      void 
  2358 ;; Registers used:
  2359 ;;		wreg, status,2, status,0
  2360 ;; Tracked objects:
  2361 ;;		On entry : 0/0
  2362 ;;		On exit  : 0/0
  2363 ;;		Unchanged: 0/0
  2364 ;; Data sizes:     COMMON   BANK0   BANK1   BANK3   BANK2
  2365 ;;      Params:         0       0       0       0       0
  2366 ;;      Locals:         0       0       0       0       0
  2367 ;;      Temps:          0       1       0       0       0
  2368 ;;      Totals:         0       1       0       0       0
  2369 ;;Total ram usage:        1 bytes
  2370 ;; Hardware stack levels used:    1
  2371 ;; Hardware stack levels required when called:    2
  2372 ;; This function calls:
  2373 ;;		Nothing
  2374 ;; This function is called by:
  2375 ;;		_setup
  2376 ;; This function uses a non-reentrant model
  2377 ;;
  2378                           
  2379                           
  2380                           ;psect for function _config_io
  2381  05CE                     _config_io:
  2382  05CE                     l1201:	
  2383                           ;incstack = 0
  2384                           ; Regs used in _config_io: [wreg+status,2+status,0]
  2385                           
  2386                           
  2387                           ;proyecto_final.c: 444:     ANSELH = 0x00;
  2388  05CE  1683               	bsf	3,5	;RP0=1, select bank3
  2389  05CF  1703               	bsf	3,6	;RP1=1, select bank3
  2390  05D0  0189               	clrf	9	;volatile
  2391  05D1                     l1203:
  2392                           
  2393                           ;proyecto_final.c: 445:     ANSEL = 0X70;
  2394  05D1  3070               	movlw	112
  2395  05D2  0088               	movwf	8	;volatile
  2396  05D3                     l1205:
  2397                           
  2398                           ;proyecto_final.c: 447:     TRISB = 0xFF;
  2399  05D3  30FF               	movlw	255
  2400  05D4  1683               	bsf	3,5	;RP0=1, select bank1
  2401  05D5  1303               	bcf	3,6	;RP1=0, select bank1
  2402  05D6  0086               	movwf	6	;volatile
  2403                           
  2404                           ;proyecto_final.c: 448:     TRISA = 0x00;
  2405  05D7  0185               	clrf	5	;volatile
  2406  05D8                     l1207:
  2407                           
  2408                           ;proyecto_final.c: 450:     TRISE = 0x07;
  2409  05D8  3007               	movlw	7
  2410  05D9  0089               	movwf	9	;volatile
  2411  05DA                     l1209:
  2412                           
  2413                           ;proyecto_final.c: 451:     TRISD = 0x00;
  2414  05DA  0188               	clrf	8	;volatile
  2415                           
  2416                           ;proyecto_final.c: 452:     TRISC = 0xB9;
  2417  05DB  30B9               	movlw	185
  2418  05DC  0087               	movwf	7	;volatile
  2419  05DD                     l1211:
  2420                           
  2421                           ;proyecto_final.c: 454:     OPTION_REGbits.nRBPU = 0 ;
  2422  05DD  1381               	bcf	1,7	;volatile
  2423                           
  2424                           ;proyecto_final.c: 455:     WPUB = 0xFF;
  2425  05DE  30FF               	movlw	255
  2426  05DF  0095               	movwf	21	;volatile
  2427  05E0                     l1213:
  2428                           
  2429                           ;proyecto_final.c: 457:     PORTA = 0x00;
  2430  05E0  1283               	bcf	3,5	;RP0=0, select bank0
  2431  05E1  1303               	bcf	3,6	;RP1=0, select bank0
  2432  05E2  0185               	clrf	5	;volatile
  2433  05E3                     l1215:
  2434                           
  2435                           ;proyecto_final.c: 458:     PORTB = 0x0F;
  2436  05E3  300F               	movlw	15
  2437  05E4  0086               	movwf	6	;volatile
  2438                           
  2439                           ;proyecto_final.c: 460:     PORTE = 0x00;
  2440  05E5  0189               	clrf	9	;volatile
  2441                           
  2442                           ;proyecto_final.c: 461:     PORTD = 0x00;
  2443  05E6  0188               	clrf	8	;volatile
  2444                           
  2445                           ;proyecto_final.c: 462:     PORTC = 0x00;
  2446  05E7  0187               	clrf	7	;volatile
  2447  05E8                     l1217:
  2448                           
  2449                           ;proyecto_final.c: 467:     ADCON1bits.ADFM = 0;
  2450  05E8  1683               	bsf	3,5	;RP0=1, select bank1
  2451  05E9  1303               	bcf	3,6	;RP1=0, select bank1
  2452  05EA  139F               	bcf	31,7	;volatile
  2453  05EB                     l1219:
  2454                           
  2455                           ;proyecto_final.c: 468:     ADCON1bits.VCFG0 = 0;
  2456  05EB  121F               	bcf	31,4	;volatile
  2457  05EC                     l1221:
  2458                           
  2459                           ;proyecto_final.c: 469:     ADCON1bits.VCFG1 = 0;
  2460  05EC  129F               	bcf	31,5	;volatile
  2461  05ED                     l1223:
  2462                           
  2463                           ;proyecto_final.c: 471:     ADCON0bits.ADCS = 0b10;
  2464  05ED  1283               	bcf	3,5	;RP0=0, select bank0
  2465  05EE  1303               	bcf	3,6	;RP1=0, select bank0
  2466  05EF  081F               	movf	31,w	;volatile
  2467  05F0  393F               	andlw	-193
  2468  05F1  3880               	iorlw	128
  2469  05F2  009F               	movwf	31	;volatile
  2470  05F3                     l1225:
  2471                           
  2472                           ;proyecto_final.c: 472:     ADCON0bits.CHS = 5;
  2473  05F3  081F               	movf	31,w	;volatile
  2474  05F4  39C3               	andlw	-61
  2475  05F5  3814               	iorlw	20
  2476  05F6  009F               	movwf	31	;volatile
  2477  05F7                     l1227:
  2478                           
  2479                           ;proyecto_final.c: 473:     _delay((unsigned long)((50)*(8000000/4000000.0)));
  2480  05F7  3020               	movlw	32
  2481  05F8  1283               	bcf	3,5	;RP0=0, select bank0
  2482  05F9  1303               	bcf	3,6	;RP1=0, select bank0
  2483  05FA  00B0               	movwf	??_config_io
  2484  05FB                     u1857:
  2485  05FB  0BB0               	decfsz	??_config_io,f
  2486  05FC  2DFB               	goto	u1857
  2487  05FD  0000               	nop
  2488  05FE                     l1229:
  2489                           
  2490                           ;proyecto_final.c: 474:     ADCON0bits.ADON = 1;
  2491  05FE  1283               	bcf	3,5	;RP0=0, select bank0
  2492  05FF  1303               	bcf	3,6	;RP1=0, select bank0
  2493  0600  141F               	bsf	31,0	;volatile
  2494  0601                     l1231:
  2495                           
  2496                           ;proyecto_final.c: 477:     PR2 = 250;
  2497  0601  30FA               	movlw	250
  2498  0602  1683               	bsf	3,5	;RP0=1, select bank1
  2499  0603  1303               	bcf	3,6	;RP1=0, select bank1
  2500  0604  0092               	movwf	18	;volatile
  2501  0605                     l1233:
  2502                           
  2503                           ;proyecto_final.c: 478:     CCP1CONbits.P1M = 0;
  2504  0605  303F               	movlw	-193
  2505  0606  1283               	bcf	3,5	;RP0=0, select bank0
  2506  0607  1303               	bcf	3,6	;RP1=0, select bank0
  2507  0608  0597               	andwf	23,f	;volatile
  2508  0609                     l1235:
  2509                           
  2510                           ;proyecto_final.c: 479:     CCP1CONbits.CCP1M = 0b00001100;
  2511  0609  0817               	movf	23,w	;volatile
  2512  060A  39F0               	andlw	-16
  2513  060B  380C               	iorlw	12
  2514  060C  0097               	movwf	23	;volatile
  2515  060D                     l1237:
  2516                           
  2517                           ;proyecto_final.c: 480:     CCP2CONbits.CCP2M = 0b00001100;
  2518  060D  081D               	movf	29,w	;volatile
  2519  060E  39F0               	andlw	-16
  2520  060F  380C               	iorlw	12
  2521  0610  009D               	movwf	29	;volatile
  2522  0611                     l1239:
  2523                           
  2524                           ;proyecto_final.c: 482:     CCPR1L = 0x0F;
  2525  0611  300F               	movlw	15
  2526  0612  0095               	movwf	21	;volatile
  2527  0613                     l1241:
  2528                           
  2529                           ;proyecto_final.c: 483:     CCPR2L = 0x0F;
  2530  0613  300F               	movlw	15
  2531  0614  009B               	movwf	27	;volatile
  2532  0615                     l1243:
  2533                           
  2534                           ;proyecto_final.c: 484:     CCP1CONbits.DC1B = 0;
  2535  0615  30CF               	movlw	-49
  2536  0616  0597               	andwf	23,f	;volatile
  2537  0617                     l1245:
  2538                           
  2539                           ;proyecto_final.c: 485:     CCP2CONbits.DC2B1 = 0;
  2540  0617  129D               	bcf	29,5	;volatile
  2541  0618                     l1247:
  2542                           
  2543                           ;proyecto_final.c: 486:     CCP2CONbits.DC2B0 = 0;
  2544  0618  121D               	bcf	29,4	;volatile
  2545  0619                     l1249:
  2546                           
  2547                           ;proyecto_final.c: 488:     PIR1bits.TMR2IF = 0;
  2548  0619  108C               	bcf	12,1	;volatile
  2549  061A                     l1251:
  2550                           
  2551                           ;proyecto_final.c: 489:     T2CONbits.T2CKPS1 = 1;
  2552  061A  1492               	bsf	18,1	;volatile
  2553  061B                     l1253:
  2554                           
  2555                           ;proyecto_final.c: 490:     T2CONbits.T2CKPS0 = 1;
  2556  061B  1412               	bsf	18,0	;volatile
  2557  061C                     l1255:
  2558                           
  2559                           ;proyecto_final.c: 491:     T2CONbits.TMR2ON = 1;
  2560  061C  1512               	bsf	18,2	;volatile
  2561  061D                     l206:	
  2562                           ;proyecto_final.c: 493:     while (!PIR1bits.TMR2IF);
  2563                           
  2564  061D  1C8C               	btfss	12,1	;volatile
  2565  061E  2E20               	goto	u681
  2566  061F  2E21               	goto	u680
  2567  0620                     u681:
  2568  0620  2E1D               	goto	l206
  2569  0621                     u680:
  2570  0621                     l208:
  2571                           
  2572                           ;proyecto_final.c: 494:     PIR1bits.TMR2IF = 0;
  2573  0621  108C               	bcf	12,1	;volatile
  2574                           
  2575                           ;proyecto_final.c: 500:     TXSTAbits.SYNC = 0;
  2576  0622  1683               	bsf	3,5	;RP0=1, select bank1
  2577  0623  1303               	bcf	3,6	;RP1=0, select bank1
  2578  0624  1218               	bcf	24,4	;volatile
  2579                           
  2580                           ;proyecto_final.c: 501:     TXSTAbits.BRGH = 1;
  2581  0625  1518               	bsf	24,2	;volatile
  2582                           
  2583                           ;proyecto_final.c: 503:     BAUDCTLbits.BRG16 = 1;
  2584  0626  1683               	bsf	3,5	;RP0=1, select bank3
  2585  0627  1703               	bsf	3,6	;RP1=1, select bank3
  2586  0628  1587               	bsf	7,3	;volatile
  2587  0629                     l1257:
  2588                           
  2589                           ;proyecto_final.c: 505:     SPBRG = 207;
  2590  0629  30CF               	movlw	207
  2591  062A  1683               	bsf	3,5	;RP0=1, select bank1
  2592  062B  1303               	bcf	3,6	;RP1=0, select bank1
  2593  062C  0099               	movwf	25	;volatile
  2594  062D                     l1259:
  2595                           
  2596                           ;proyecto_final.c: 506:     SPBRGH = 0;
  2597  062D  019A               	clrf	26	;volatile
  2598  062E                     l1261:
  2599                           
  2600                           ;proyecto_final.c: 508:     RCSTAbits.SPEN = 1;
  2601  062E  1283               	bcf	3,5	;RP0=0, select bank0
  2602  062F  1303               	bcf	3,6	;RP1=0, select bank0
  2603  0630  1798               	bsf	24,7	;volatile
  2604  0631                     l1263:
  2605                           
  2606                           ;proyecto_final.c: 509:     RCSTAbits.RX9 = 0;
  2607  0631  1318               	bcf	24,6	;volatile
  2608  0632                     l1265:
  2609                           
  2610                           ;proyecto_final.c: 510:     RCSTAbits.CREN = 1;
  2611  0632  1618               	bsf	24,4	;volatile
  2612  0633                     l1267:
  2613                           
  2614                           ;proyecto_final.c: 512:     TXSTAbits.TXEN = 1;
  2615  0633  1683               	bsf	3,5	;RP0=1, select bank1
  2616  0634  1303               	bcf	3,6	;RP1=0, select bank1
  2617  0635  1698               	bsf	24,5	;volatile
  2618  0636                     l209:
  2619  0636  0008               	return
  2620  0637                     __end_of_config_io:
  2621                           
  2622                           	psect	text8
  2623  06DE                     __ptext8:	
  2624 ;; *************** function _config_int_enable *****************
  2625 ;; Defined at:
  2626 ;;		line 519 in file "proyecto_final.c"
  2627 ;; Parameters:    Size  Location     Type
  2628 ;;		None
  2629 ;; Auto vars:     Size  Location     Type
  2630 ;;		None
  2631 ;; Return value:  Size  Location     Type
  2632 ;;                  1    wreg      void 
  2633 ;; Registers used:
  2634 ;;		None
  2635 ;; Tracked objects:
  2636 ;;		On entry : 0/0
  2637 ;;		On exit  : 0/0
  2638 ;;		Unchanged: 0/0
  2639 ;; Data sizes:     COMMON   BANK0   BANK1   BANK3   BANK2
  2640 ;;      Params:         0       0       0       0       0
  2641 ;;      Locals:         0       0       0       0       0
  2642 ;;      Temps:          0       0       0       0       0
  2643 ;;      Totals:         0       0       0       0       0
  2644 ;;Total ram usage:        0 bytes
  2645 ;; Hardware stack levels used:    1
  2646 ;; Hardware stack levels required when called:    2
  2647 ;; This function calls:
  2648 ;;		Nothing
  2649 ;; This function is called by:
  2650 ;;		_setup
  2651 ;; This function uses a non-reentrant model
  2652 ;;
  2653                           
  2654                           
  2655                           ;psect for function _config_int_enable
  2656  06DE                     _config_int_enable:
  2657  06DE                     l1581:	
  2658                           ;incstack = 0
  2659                           ; Regs used in _config_int_enable: []
  2660                           
  2661                           
  2662                           ;proyecto_final.c: 521:     INTCONbits.GIE = 1;
  2663  06DE  178B               	bsf	11,7	;volatile
  2664                           
  2665                           ;proyecto_final.c: 523:     INTCONbits.RBIE = 1;
  2666  06DF  158B               	bsf	11,3	;volatile
  2667                           
  2668                           ;proyecto_final.c: 524:     INTCONbits.RBIF = 0;
  2669  06E0  100B               	bcf	11,0	;volatile
  2670                           
  2671                           ;proyecto_final.c: 526:     INTCONbits.PEIE = 1;
  2672  06E1  170B               	bsf	11,6	;volatile
  2673                           
  2674                           ;proyecto_final.c: 527:     PIE1bits.ADIE = 1;
  2675  06E2  1683               	bsf	3,5	;RP0=1, select bank1
  2676  06E3  1303               	bcf	3,6	;RP1=0, select bank1
  2677  06E4  170C               	bsf	12,6	;volatile
  2678                           
  2679                           ;proyecto_final.c: 528:     PIR1bits.ADIF = 0;
  2680  06E5  1283               	bcf	3,5	;RP0=0, select bank0
  2681  06E6  1303               	bcf	3,6	;RP1=0, select bank0
  2682  06E7  130C               	bcf	12,6	;volatile
  2683                           
  2684                           ;proyecto_final.c: 531:     PIE1bits.RCIE = 1;
  2685  06E8  1683               	bsf	3,5	;RP0=1, select bank1
  2686  06E9  1303               	bcf	3,6	;RP1=0, select bank1
  2687  06EA  168C               	bsf	12,5	;volatile
  2688                           
  2689                           ;proyecto_final.c: 532:     PIR1bits.RCIF = 0;
  2690  06EB  1283               	bcf	3,5	;RP0=0, select bank0
  2691  06EC  1303               	bcf	3,6	;RP1=0, select bank0
  2692  06ED  128C               	bcf	12,5	;volatile
  2693  06EE                     l212:	
  2694                           ;proyecto_final.c: 534:     return;
  2695                           
  2696  06EE  0008               	return
  2697  06EF                     __end_of_config_int_enable:
  2698                           
  2699                           	psect	text9
  2700  054C                     __ptext9:	
  2701 ;; *************** function _isr *****************
  2702 ;; Defined at:
  2703 ;;		line 340 in file "proyecto_final.c"
  2704 ;; Parameters:    Size  Location     Type
  2705 ;;		None
  2706 ;; Auto vars:     Size  Location     Type
  2707 ;;		None
  2708 ;; Return value:  Size  Location     Type
  2709 ;;                  1    wreg      void 
  2710 ;; Registers used:
  2711 ;;		wreg, status,2, status,0, pclath, cstack
  2712 ;; Tracked objects:
  2713 ;;		On entry : 0/0
  2714 ;;		On exit  : 0/0
  2715 ;;		Unchanged: 0/0
  2716 ;; Data sizes:     COMMON   BANK0   BANK1   BANK3   BANK2
  2717 ;;      Params:         0       0       0       0       0
  2718 ;;      Locals:         0       0       0       0       0
  2719 ;;      Temps:          4       0       0       0       0
  2720 ;;      Totals:         4       0       0       0       0
  2721 ;;Total ram usage:        4 bytes
  2722 ;; Hardware stack levels used:    1
  2723 ;; Hardware stack levels required when called:    1
  2724 ;; This function calls:
  2725 ;;		_IOCB_interrupt
  2726 ;; This function is called by:
  2727 ;;		Interrupt level 1
  2728 ;; This function uses a non-reentrant model
  2729 ;;
  2730                           
  2731                           
  2732                           ;psect for function _isr
  2733  054C                     _isr:
  2734  054C                     i1l1545:
  2735                           
  2736                           ;proyecto_final.c: 342:     if(INTCONbits.RBIF){
  2737  054C  1C0B               	btfss	11,0	;volatile
  2738  054D  2D4F               	goto	u124_21
  2739  054E  2D50               	goto	u124_20
  2740  054F                     u124_21:
  2741  054F  2D55               	goto	i1l1549
  2742  0550                     u124_20:
  2743  0550                     i1l1547:
  2744                           
  2745                           ;proyecto_final.c: 343:         IOCB_interrupt();
  2746  0550  120A  118A  24C5  120A  118A  	fcall	_IOCB_interrupt
  2747  0555                     i1l1549:
  2748                           
  2749                           ;proyecto_final.c: 346:     if (PIR1bits.RCIF){
  2750  0555  1283               	bcf	3,5	;RP0=0, select bank0
  2751  0556  1303               	bcf	3,6	;RP1=0, select bank0
  2752  0557  1E8C               	btfss	12,5	;volatile
  2753  0558  2D5A               	goto	u125_21
  2754  0559  2D5B               	goto	u125_20
  2755  055A                     u125_21:
  2756  055A  2D5F               	goto	i1l1553
  2757  055B                     u125_20:
  2758  055B                     i1l1551:
  2759                           
  2760                           ;proyecto_final.c: 347:         opcion = RCREG;
  2761  055B  081A               	movf	26,w	;volatile
  2762  055C  00F3               	movwf	??_isr
  2763  055D  0873               	movf	??_isr,w
  2764  055E  00AF               	movwf	_opcion
  2765  055F                     i1l1553:
  2766                           
  2767                           ;proyecto_final.c: 351:     if (PIR1bits.ADIF){
  2768  055F  1F0C               	btfss	12,6	;volatile
  2769  0560  2D62               	goto	u126_21
  2770  0561  2D63               	goto	u126_20
  2771  0562                     u126_21:
  2772  0562  2DC7               	goto	i1l188
  2773  0563                     u126_20:
  2774  0563                     i1l1555:
  2775                           
  2776                           ;proyecto_final.c: 353:         if(ADCON0bits.CHS == 5) {
  2777  0563  0C1F               	rrf	31,w	;volatile
  2778  0564  00F3               	movwf	??_isr
  2779  0565  0C73               	rrf	??_isr,w
  2780  0566  390F               	andlw	15
  2781  0567  3A05               	xorlw	5
  2782  0568  1D03               	skipz
  2783  0569  2D6B               	goto	u127_21
  2784  056A  2D6C               	goto	u127_20
  2785  056B                     u127_21:
  2786  056B  2D92               	goto	i1l1565
  2787  056C                     u127_20:
  2788  056C                     i1l1557:
  2789                           
  2790                           ;proyecto_final.c: 354:             PORTD = ADRESH;
  2791  056C  081E               	movf	30,w	;volatile
  2792  056D  0088               	movwf	8	;volatile
  2793  056E                     i1l1559:
  2794                           
  2795                           ;proyecto_final.c: 355:             CCPR1L = (PORTD>>1) + 128;
  2796  056E  0808               	movf	8,w	;volatile
  2797  056F  00F3               	movwf	??_isr
  2798  0570  1003               	clrc
  2799  0571  0C73               	rrf	??_isr,w
  2800  0572  3E80               	addlw	128
  2801  0573  0095               	movwf	21	;volatile
  2802  0574                     i1l1561:
  2803                           
  2804                           ;proyecto_final.c: 356:             CCP1CONbits.DC1B1 = PORTDbits.RD0;
  2805  0574  1808               	btfsc	8,0	;volatile
  2806  0575  2D77               	goto	u128_21
  2807  0576  2D7B               	goto	u128_20
  2808  0577                     u128_21:
  2809  0577  1283               	bcf	3,5	;RP0=0, select bank0
  2810  0578  1303               	bcf	3,6	;RP1=0, select bank0
  2811  0579  1697               	bsf	23,5	;volatile
  2812  057A  2D7E               	goto	u129_24
  2813  057B                     u128_20:
  2814  057B  1283               	bcf	3,5	;RP0=0, select bank0
  2815  057C  1303               	bcf	3,6	;RP1=0, select bank0
  2816  057D  1297               	bcf	23,5	;volatile
  2817  057E                     u129_24:
  2818  057E                     i1l1563:
  2819                           
  2820                           ;proyecto_final.c: 357:             CCP1CONbits.DC1B0 = ADRESL>>7;}
  2821  057E  1683               	bsf	3,5	;RP0=1, select bank1
  2822  057F  1303               	bcf	3,6	;RP1=0, select bank1
  2823  0580  081E               	movf	30,w	;volatile
  2824  0581  00F3               	movwf	??_isr
  2825  0582  3007               	movlw	7
  2826  0583                     u130_25:
  2827  0583  1003               	clrc
  2828  0584  0CF3               	rrf	??_isr,f
  2829  0585  3EFF               	addlw	-1
  2830  0586  1D03               	skipz
  2831  0587  2D83               	goto	u130_25
  2832  0588  0873               	movf	??_isr,w
  2833  0589  00F4               	movwf	??_isr+1
  2834  058A  0EF4               	swapf	??_isr+1,f
  2835  058B  1283               	bcf	3,5	;RP0=0, select bank0
  2836  058C  1303               	bcf	3,6	;RP1=0, select bank0
  2837  058D  0817               	movf	23,w	;volatile
  2838  058E  0674               	xorwf	??_isr+1,w
  2839  058F  39EF               	andlw	-17
  2840  0590  0674               	xorwf	??_isr+1,w
  2841  0591  0097               	movwf	23	;volatile
  2842  0592                     i1l1565:
  2843                           
  2844                           ;proyecto_final.c: 358:         if(ADCON0bits.CHS == 7){
  2845  0592  0C1F               	rrf	31,w	;volatile
  2846  0593  00F3               	movwf	??_isr
  2847  0594  0C73               	rrf	??_isr,w
  2848  0595  390F               	andlw	15
  2849  0596  3A07               	xorlw	7
  2850  0597  1D03               	skipz
  2851  0598  2D9A               	goto	u131_21
  2852  0599  2D9B               	goto	u131_20
  2853  059A                     u131_21:
  2854  059A  2DA0               	goto	i1l1569
  2855  059B                     u131_20:
  2856  059B                     i1l1567:
  2857                           
  2858                           ;proyecto_final.c: 359:             valor_pot = ADRESH;
  2859  059B  081E               	movf	30,w	;volatile
  2860  059C  00F3               	movwf	??_isr
  2861  059D  0873               	movf	??_isr,w
  2862  059E  00FB               	movwf	_valor_pot
  2863                           
  2864                           ;proyecto_final.c: 360:         }
  2865  059F  2DC6               	goto	i1l1577
  2866  05A0                     i1l1569:
  2867                           
  2868                           ;proyecto_final.c: 363:             PORTD = ADRESH;
  2869  05A0  081E               	movf	30,w	;volatile
  2870  05A1  0088               	movwf	8	;volatile
  2871  05A2                     i1l1571:
  2872                           
  2873                           ;proyecto_final.c: 364:             CCPR2L = (PORTD>>1) + 128;
  2874  05A2  0808               	movf	8,w	;volatile
  2875  05A3  00F3               	movwf	??_isr
  2876  05A4  1003               	clrc
  2877  05A5  0C73               	rrf	??_isr,w
  2878  05A6  3E80               	addlw	128
  2879  05A7  009B               	movwf	27	;volatile
  2880  05A8                     i1l1573:
  2881                           
  2882                           ;proyecto_final.c: 365:             CCP2CONbits.DC2B1 = PORTDbits.RD0;
  2883  05A8  1808               	btfsc	8,0	;volatile
  2884  05A9  2DAB               	goto	u132_21
  2885  05AA  2DAF               	goto	u132_20
  2886  05AB                     u132_21:
  2887  05AB  1283               	bcf	3,5	;RP0=0, select bank0
  2888  05AC  1303               	bcf	3,6	;RP1=0, select bank0
  2889  05AD  169D               	bsf	29,5	;volatile
  2890  05AE  2DB2               	goto	u133_24
  2891  05AF                     u132_20:
  2892  05AF  1283               	bcf	3,5	;RP0=0, select bank0
  2893  05B0  1303               	bcf	3,6	;RP1=0, select bank0
  2894  05B1  129D               	bcf	29,5	;volatile
  2895  05B2                     u133_24:
  2896  05B2                     i1l1575:
  2897                           
  2898                           ;proyecto_final.c: 366:             CCP2CONbits.DC2B0 = ADRESL>>7;}
  2899  05B2  1683               	bsf	3,5	;RP0=1, select bank1
  2900  05B3  1303               	bcf	3,6	;RP1=0, select bank1
  2901  05B4  081E               	movf	30,w	;volatile
  2902  05B5  00F3               	movwf	??_isr
  2903  05B6  3007               	movlw	7
  2904  05B7                     u134_25:
  2905  05B7  1003               	clrc
  2906  05B8  0CF3               	rrf	??_isr,f
  2907  05B9  3EFF               	addlw	-1
  2908  05BA  1D03               	skipz
  2909  05BB  2DB7               	goto	u134_25
  2910  05BC  0873               	movf	??_isr,w
  2911  05BD  00F4               	movwf	??_isr+1
  2912  05BE  0EF4               	swapf	??_isr+1,f
  2913  05BF  1283               	bcf	3,5	;RP0=0, select bank0
  2914  05C0  1303               	bcf	3,6	;RP1=0, select bank0
  2915  05C1  081D               	movf	29,w	;volatile
  2916  05C2  0674               	xorwf	??_isr+1,w
  2917  05C3  39EF               	andlw	-17
  2918  05C4  0674               	xorwf	??_isr+1,w
  2919  05C5  009D               	movwf	29	;volatile
  2920  05C6                     i1l1577:
  2921                           
  2922                           ;proyecto_final.c: 368:         PIR1bits.ADIF = 0;
  2923  05C6  130C               	bcf	12,6	;volatile
  2924  05C7                     i1l188:
  2925  05C7  0876               	movf	??_isr+3,w
  2926  05C8  008A               	movwf	10
  2927  05C9  0E75               	swapf	??_isr+2,w
  2928  05CA  0083               	movwf	3
  2929  05CB  0EFE               	swapf	btemp,f
  2930  05CC  0E7E               	swapf	btemp,w
  2931  05CD  0009               	retfie
  2932  05CE                     __end_of_isr:
  2933                           
  2934                           	psect	intentry
  2935  0004                     __pintentry:	
  2936                           ;incstack = 0
  2937                           ; Regs used in _isr: [wreg+status,2+status,0+pclath+cstack]
  2938                           
  2939  0004                     interrupt_function:
  2940  007E                     saved_w	set	btemp
  2941  0004  00FE               	movwf	btemp
  2942  0005  0E03               	swapf	3,w
  2943  0006  00F5               	movwf	??_isr+2
  2944  0007  080A               	movf	10,w
  2945  0008  00F6               	movwf	??_isr+3
  2946  0009  120A  118A  2D4C   	ljmp	_isr
  2947                           
  2948                           	psect	text10
  2949  04C5                     __ptext10:	
  2950 ;; *************** function _IOCB_interrupt *****************
  2951 ;; Defined at:
  2952 ;;		line 375 in file "proyecto_final.c"
  2953 ;; Parameters:    Size  Location     Type
  2954 ;;		None
  2955 ;; Auto vars:     Size  Location     Type
  2956 ;;		None
  2957 ;; Return value:  Size  Location     Type
  2958 ;;                  1    wreg      void 
  2959 ;; Registers used:
  2960 ;;		wreg, status,2, status,0
  2961 ;; Tracked objects:
  2962 ;;		On entry : 0/0
  2963 ;;		On exit  : 0/0
  2964 ;;		Unchanged: 0/0
  2965 ;; Data sizes:     COMMON   BANK0   BANK1   BANK3   BANK2
  2966 ;;      Params:         0       0       0       0       0
  2967 ;;      Locals:         0       0       0       0       0
  2968 ;;      Temps:          3       0       0       0       0
  2969 ;;      Totals:         3       0       0       0       0
  2970 ;;Total ram usage:        3 bytes
  2971 ;; Hardware stack levels used:    1
  2972 ;; This function calls:
  2973 ;;		Nothing
  2974 ;; This function is called by:
  2975 ;;		_isr
  2976 ;; This function uses a non-reentrant model
  2977 ;;
  2978                           
  2979                           
  2980                           ;psect for function _IOCB_interrupt
  2981  04C5                     _IOCB_interrupt:
  2982  04C5                     i1l1325:	
  2983                           ;incstack = 0
  2984                           ; Regs used in _IOCB_interrupt: [wreg+status,2+status,0]
  2985                           
  2986                           
  2987                           ;proyecto_final.c: 377:     if (PORTBbits.RB0 == 0){
  2988  04C5  1283               	bcf	3,5	;RP0=0, select bank0
  2989  04C6  1303               	bcf	3,6	;RP1=0, select bank0
  2990  04C7  1806               	btfsc	6,0	;volatile
  2991  04C8  2CCA               	goto	u72_21
  2992  04C9  2CCB               	goto	u72_20
  2993  04CA                     u72_21:
  2994  04CA  2CF7               	goto	i1l1335
  2995  04CB                     u72_20:
  2996  04CB                     i1l1327:
  2997                           
  2998                           ;proyecto_final.c: 378:         if (flag2){
  2999  04CB  0879               	movf	_flag2,w
  3000  04CC  047A               	iorwf	_flag2+1,w
  3001  04CD  1903               	btfsc	3,2
  3002  04CE  2CD0               	goto	u73_21
  3003  04CF  2CD1               	goto	u73_20
  3004  04D0                     u73_21:
  3005  04D0  2CE5               	goto	i1l1331
  3006  04D1                     u73_20:
  3007  04D1                     i1l1329:
  3008                           
  3009                           ;proyecto_final.c: 379:             PORTA = 10;
  3010  04D1  300A               	movlw	10
  3011  04D2  0085               	movwf	5	;volatile
  3012                           
  3013                           ;proyecto_final.c: 380:             _delay((unsigned long)((250)*(8000000/4000.0)));
  3014  04D3  3003               	movlw	3
  3015  04D4  00F2               	movwf	??_IOCB_interrupt+2
  3016  04D5  308A               	movlw	138
  3017  04D6  00F1               	movwf	??_IOCB_interrupt+1
  3018  04D7  3055               	movlw	85
  3019  04D8  00F0               	movwf	??_IOCB_interrupt
  3020  04D9                     u186_27:
  3021  04D9  0BF0               	decfsz	??_IOCB_interrupt,f
  3022  04DA  2CD9               	goto	u186_27
  3023  04DB  0BF1               	decfsz	??_IOCB_interrupt+1,f
  3024  04DC  2CD9               	goto	u186_27
  3025  04DD  0BF2               	decfsz	??_IOCB_interrupt+2,f
  3026  04DE  2CD9               	goto	u186_27
  3027  04DF  2CE0               	nop2
  3028                           
  3029                           ;proyecto_final.c: 381:             PORTA = 8;
  3030  04E0  3008               	movlw	8
  3031  04E1  1283               	bcf	3,5	;RP0=0, select bank0
  3032  04E2  1303               	bcf	3,6	;RP1=0, select bank0
  3033  04E3  0085               	movwf	5	;volatile
  3034                           
  3035                           ;proyecto_final.c: 383:         }
  3036  04E4  2CF7               	goto	i1l1335
  3037  04E5                     i1l1331:
  3038                           
  3039                           ;proyecto_final.c: 385:             PORTA = 2;
  3040  04E5  3002               	movlw	2
  3041  04E6  0085               	movwf	5	;volatile
  3042                           
  3043                           ;proyecto_final.c: 386:             _delay((unsigned long)((250)*(8000000/4000.0)));
  3044  04E7  3003               	movlw	3
  3045  04E8  00F2               	movwf	??_IOCB_interrupt+2
  3046  04E9  308A               	movlw	138
  3047  04EA  00F1               	movwf	??_IOCB_interrupt+1
  3048  04EB  3055               	movlw	85
  3049  04EC  00F0               	movwf	??_IOCB_interrupt
  3050  04ED                     u187_27:
  3051  04ED  0BF0               	decfsz	??_IOCB_interrupt,f
  3052  04EE  2CED               	goto	u187_27
  3053  04EF  0BF1               	decfsz	??_IOCB_interrupt+1,f
  3054  04F0  2CED               	goto	u187_27
  3055  04F1  0BF2               	decfsz	??_IOCB_interrupt+2,f
  3056  04F2  2CED               	goto	u187_27
  3057  04F3  2CF4               	nop2
  3058  04F4                     i1l1333:
  3059                           
  3060                           ;proyecto_final.c: 387:             PORTA = 0;
  3061  04F4  1283               	bcf	3,5	;RP0=0, select bank0
  3062  04F5  1303               	bcf	3,6	;RP1=0, select bank0
  3063  04F6  0185               	clrf	5	;volatile
  3064  04F7                     i1l1335:
  3065                           
  3066                           ;proyecto_final.c: 390:     if(PORTBbits.RB1 == 0) {
  3067  04F7  1886               	btfsc	6,1	;volatile
  3068  04F8  2CFA               	goto	u74_21
  3069  04F9  2CFB               	goto	u74_20
  3070  04FA                     u74_21:
  3071  04FA  2D27               	goto	i1l1345
  3072  04FB                     u74_20:
  3073  04FB                     i1l1337:
  3074                           
  3075                           ;proyecto_final.c: 391:         if (flag2){
  3076  04FB  0879               	movf	_flag2,w
  3077  04FC  047A               	iorwf	_flag2+1,w
  3078  04FD  1903               	btfsc	3,2
  3079  04FE  2D00               	goto	u75_21
  3080  04FF  2D01               	goto	u75_20
  3081  0500                     u75_21:
  3082  0500  2D15               	goto	i1l1341
  3083  0501                     u75_20:
  3084  0501                     i1l1339:
  3085                           
  3086                           ;proyecto_final.c: 392:             PORTA = 9;
  3087  0501  3009               	movlw	9
  3088  0502  0085               	movwf	5	;volatile
  3089                           
  3090                           ;proyecto_final.c: 393:             _delay((unsigned long)((250)*(8000000/4000.0)));
  3091  0503  3003               	movlw	3
  3092  0504  00F2               	movwf	??_IOCB_interrupt+2
  3093  0505  308A               	movlw	138
  3094  0506  00F1               	movwf	??_IOCB_interrupt+1
  3095  0507  3055               	movlw	85
  3096  0508  00F0               	movwf	??_IOCB_interrupt
  3097  0509                     u188_27:
  3098  0509  0BF0               	decfsz	??_IOCB_interrupt,f
  3099  050A  2D09               	goto	u188_27
  3100  050B  0BF1               	decfsz	??_IOCB_interrupt+1,f
  3101  050C  2D09               	goto	u188_27
  3102  050D  0BF2               	decfsz	??_IOCB_interrupt+2,f
  3103  050E  2D09               	goto	u188_27
  3104  050F  2D10               	nop2
  3105                           
  3106                           ;proyecto_final.c: 394:             PORTA = 8;
  3107  0510  3008               	movlw	8
  3108  0511  1283               	bcf	3,5	;RP0=0, select bank0
  3109  0512  1303               	bcf	3,6	;RP1=0, select bank0
  3110  0513  0085               	movwf	5	;volatile
  3111                           
  3112                           ;proyecto_final.c: 395:         }
  3113  0514  2D27               	goto	i1l1345
  3114  0515                     i1l1341:
  3115                           
  3116                           ;proyecto_final.c: 397:             PORTA = 1;
  3117  0515  3001               	movlw	1
  3118  0516  0085               	movwf	5	;volatile
  3119                           
  3120                           ;proyecto_final.c: 398:             _delay((unsigned long)((250)*(8000000/4000.0)));
  3121  0517  3003               	movlw	3
  3122  0518  00F2               	movwf	??_IOCB_interrupt+2
  3123  0519  308A               	movlw	138
  3124  051A  00F1               	movwf	??_IOCB_interrupt+1
  3125  051B  3055               	movlw	85
  3126  051C  00F0               	movwf	??_IOCB_interrupt
  3127  051D                     u189_27:
  3128  051D  0BF0               	decfsz	??_IOCB_interrupt,f
  3129  051E  2D1D               	goto	u189_27
  3130  051F  0BF1               	decfsz	??_IOCB_interrupt+1,f
  3131  0520  2D1D               	goto	u189_27
  3132  0521  0BF2               	decfsz	??_IOCB_interrupt+2,f
  3133  0522  2D1D               	goto	u189_27
  3134  0523  2D24               	nop2
  3135  0524                     i1l1343:
  3136                           
  3137                           ;proyecto_final.c: 399:             PORTA = 0;
  3138  0524  1283               	bcf	3,5	;RP0=0, select bank0
  3139  0525  1303               	bcf	3,6	;RP1=0, select bank0
  3140  0526  0185               	clrf	5	;volatile
  3141  0527                     i1l1345:
  3142                           
  3143                           ;proyecto_final.c: 402:     if(PORTBbits.RB2 == 0) {
  3144  0527  1906               	btfsc	6,2	;volatile
  3145  0528  2D2A               	goto	u76_21
  3146  0529  2D2B               	goto	u76_20
  3147  052A                     u76_21:
  3148  052A  2D33               	goto	i1l1353
  3149  052B                     u76_20:
  3150  052B                     i1l1347:
  3151                           
  3152                           ;proyecto_final.c: 403:         PORTA = 8;
  3153  052B  3008               	movlw	8
  3154  052C  0085               	movwf	5	;volatile
  3155                           
  3156                           ;proyecto_final.c: 404:         flag2 = 1;
  3157  052D  3001               	movlw	1
  3158  052E  00F9               	movwf	_flag2
  3159  052F  3000               	movlw	0
  3160  0530  00FA               	movwf	_flag2+1
  3161  0531                     i1l1349:
  3162                           
  3163                           ;proyecto_final.c: 405:         PORTAbits.RA4 = 1;
  3164  0531  1605               	bsf	5,4	;volatile
  3165  0532                     i1l1351:
  3166                           
  3167                           ;proyecto_final.c: 406:         PORTAbits.RA5 = 1;
  3168  0532  1685               	bsf	5,5	;volatile
  3169  0533                     i1l1353:
  3170                           
  3171                           ;proyecto_final.c: 408:     if(PORTBbits.RB3 == 0) {
  3172  0533  1986               	btfsc	6,3	;volatile
  3173  0534  2D36               	goto	u77_21
  3174  0535  2D37               	goto	u77_20
  3175  0536                     u77_21:
  3176  0536  2D3F               	goto	i1l1361
  3177  0537                     u77_20:
  3178  0537                     i1l1355:
  3179                           
  3180                           ;proyecto_final.c: 411:        PORTA = 4;
  3181  0537  3004               	movlw	4
  3182  0538  0085               	movwf	5	;volatile
  3183                           
  3184                           ;proyecto_final.c: 412:        flag2 = 1;
  3185  0539  3001               	movlw	1
  3186  053A  00F9               	movwf	_flag2
  3187  053B  3000               	movlw	0
  3188  053C  00FA               	movwf	_flag2+1
  3189  053D                     i1l1357:
  3190                           
  3191                           ;proyecto_final.c: 413:        PORTAbits.RA6 = 1;
  3192  053D  1705               	bsf	5,6	;volatile
  3193  053E                     i1l1359:
  3194                           
  3195                           ;proyecto_final.c: 414:        PORTAbits.RA7 = 1;
  3196  053E  1785               	bsf	5,7	;volatile
  3197  053F                     i1l1361:
  3198                           
  3199                           ;proyecto_final.c: 418:     if(PORTBbits.RB3 == 1 && PORTBbits.RB2 == 1) {
  3200  053F  1D86               	btfss	6,3	;volatile
  3201  0540  2D42               	goto	u78_21
  3202  0541  2D43               	goto	u78_20
  3203  0542                     u78_21:
  3204  0542  2D4A               	goto	i1l1367
  3205  0543                     u78_20:
  3206  0543                     i1l1363:
  3207  0543  1D06               	btfss	6,2	;volatile
  3208  0544  2D46               	goto	u79_21
  3209  0545  2D47               	goto	u79_20
  3210  0546                     u79_21:
  3211  0546  2D4A               	goto	i1l1367
  3212  0547                     u79_20:
  3213  0547                     i1l1365:
  3214                           
  3215                           ;proyecto_final.c: 419:         PORTA = 0;
  3216  0547  0185               	clrf	5	;volatile
  3217                           
  3218                           ;proyecto_final.c: 420:         flag2 = 0;
  3219  0548  01F9               	clrf	_flag2
  3220  0549  01FA               	clrf	_flag2+1
  3221  054A                     i1l1367:
  3222                           
  3223                           ;proyecto_final.c: 424:     INTCONbits.RBIF = 0;
  3224  054A  100B               	bcf	11,0	;volatile
  3225  054B                     i1l200:
  3226  054B  0008               	return
  3227  054C                     __end_of_IOCB_interrupt:
  3228  007E                     btemp	set	126	;btemp
  3229  007E                     wtemp0	set	126
  3230                           
  3231                           	psect	config
  3232                           
  3233                           ;Config register CONFIG1 @ 0x2007
  3234                           ;	Oscillator Selection bits
  3235                           ;	FOSC = INTRC_NOCLKOUT, INTOSCIO oscillator: I/O function on RA6/OSC2/CLKOUT pin, I/O f
      +                          unction on RA7/OSC1/CLKIN
  3236                           ;	Watchdog Timer Enable bit
  3237                           ;	WDTE = OFF, WDT disabled and can be enabled by SWDTEN bit of the WDTCON register
  3238                           ;	Power-up Timer Enable bit
  3239                           ;	PWRTE = ON, PWRT enabled
  3240                           ;	RE3/MCLR pin function select bit
  3241                           ;	MCLRE = OFF, RE3/MCLR pin function is digital input, MCLR internally tied to VDD
  3242                           ;	Code Protection bit
  3243                           ;	CP = OFF, Program memory code protection is disabled
  3244                           ;	Data Code Protection bit
  3245                           ;	CPD = OFF, Data memory code protection is disabled
  3246                           ;	Brown Out Reset Selection bits
  3247                           ;	BOREN = OFF, BOR disabled
  3248                           ;	Internal External Switchover bit
  3249                           ;	IESO = OFF, Internal/External Switchover mode is disabled
  3250                           ;	Fail-Safe Clock Monitor Enabled bit
  3251                           ;	FCMEN = OFF, Fail-Safe Clock Monitor is disabled
  3252                           ;	Low Voltage Programming Enable bit
  3253                           ;	LVP = OFF, RB3 pin has digital I/O, HV on MCLR must be used for programming
  3254                           ;	In-Circuit Debugger Mode bit
  3255                           ;	DEBUG = 0x1, unprogrammed default
  3256  2007                     	org	8199
  3257  2007  20C4               	dw	8388
  3258                           
  3259                           ;Config register CONFIG2 @ 0x2008
  3260                           ;	Brown-out Reset Selection bit
  3261                           ;	BOR4V = BOR40V, Brown-out Reset set to 4.0V
  3262                           ;	Flash Program Memory Self Write Enable bits
  3263                           ;	WRT = OFF, Write protection off
  3264  2008                     	org	8200
  3265  2008  3FFF               	dw	16383

Data Sizes:
    Strings     434
    Constant    1
    Data        4
    BSS         21
    Persistent  0
    Stack       0

Auto Spaces:
    Space          Size  Autos    Used
    COMMON           14      7      12
    BANK0            80     13      33
    BANK1            80      0       0
    BANK3            96      0       0
    BANK2            96      0       0

Pointer List with Targets:

    strlen@s	PTR const unsigned char  size(2) Largest target is 56
		 -> STR_15(CODE[49]), STR_14(CODE[39]), STR_13(CODE[56]), STR_12(CODE[45]), 
		 -> STR_11(CODE[39]), STR_10(CODE[45]), STR_9(CODE[38]), STR_8(CODE[30]), 
		 -> STR_7(CODE[25]), STR_6(CODE[18]), STR_5(CODE[19]), STR_4(CODE[19]), 
		 -> STR_3(CODE[27]), STR_2(CODE[30]), STR_1(CODE[49]), 

    strlen@cp	PTR const unsigned char  size(2) Largest target is 56
		 -> STR_15(CODE[49]), STR_14(CODE[39]), STR_13(CODE[56]), STR_12(CODE[45]), 
		 -> STR_11(CODE[39]), STR_10(CODE[45]), STR_9(CODE[38]), STR_8(CODE[30]), 
		 -> STR_7(CODE[25]), STR_6(CODE[18]), STR_5(CODE[19]), STR_4(CODE[19]), 
		 -> STR_3(CODE[27]), STR_2(CODE[30]), STR_1(CODE[49]), 

    showString@var	PTR unsigned char  size(2) Largest target is 56
		 -> STR_15(CODE[49]), STR_14(CODE[39]), STR_13(CODE[56]), STR_12(CODE[45]), 
		 -> STR_11(CODE[39]), STR_10(CODE[45]), STR_9(CODE[38]), STR_8(CODE[30]), 
		 -> STR_7(CODE[25]), STR_6(CODE[18]), STR_5(CODE[19]), STR_4(CODE[19]), 
		 -> STR_3(CODE[27]), STR_2(CODE[30]), STR_1(CODE[49]), 


Critical Paths under _main in COMMON

    None.

Critical Paths under _isr in COMMON

    _isr->_IOCB_interrupt

Critical Paths under _main in BANK0

    _main->_showString
    _showString->_strlen
    _setup->_config_io

Critical Paths under _isr in BANK0

    None.

Critical Paths under _main in BANK1

    None.

Critical Paths under _isr in BANK1

    None.

Critical Paths under _main in BANK3

    None.

Critical Paths under _isr in BANK3

    None.

Critical Paths under _main in BANK2

    None.

Critical Paths under _isr in BANK2

    None.

Call Graph Tables:

 ---------------------------------------------------------------------------------
 (Depth) Function   	        Calls       Base Space   Used Autos Params    Refs
 ---------------------------------------------------------------------------------
 (0) _main                                                 2     2      0    1942
                                             11 BANK0      2     2      0
                              _setup
                         _showString
                      _writeToEEPROM
 ---------------------------------------------------------------------------------
 (1) _writeToEEPROM                                        4     0      4     242
                                              0 BANK0      4     0      4
 ---------------------------------------------------------------------------------
 (1) _showString                                           7     5      2    1700
                                              4 BANK0      7     5      2
                             _strlen
 ---------------------------------------------------------------------------------
 (2) _strlen                                               4     2      2     220
                                              0 BANK0      4     2      2
 ---------------------------------------------------------------------------------
 (1) _setup                                                0     0      0       0
                  _config_int_enable
                          _config_io
                        _config_iocb
                       _config_reloj
 ---------------------------------------------------------------------------------
 (2) _config_reloj                                         0     0      0       0
 ---------------------------------------------------------------------------------
 (2) _config_iocb                                          0     0      0       0
 ---------------------------------------------------------------------------------
 (2) _config_io                                            1     1      0       0
                                              0 BANK0      1     1      0
 ---------------------------------------------------------------------------------
 (2) _config_int_enable                                    0     0      0       0
 ---------------------------------------------------------------------------------
 Estimated maximum stack depth 2
 ---------------------------------------------------------------------------------
 (Depth) Function   	        Calls       Base Space   Used Autos Params    Refs
 ---------------------------------------------------------------------------------
 (3) _isr                                                  4     4      0       0
                                              3 COMMON     4     4      0
                     _IOCB_interrupt
 ---------------------------------------------------------------------------------
 (4) _IOCB_interrupt                                       3     3      0       0
                                              0 COMMON     3     3      0
 ---------------------------------------------------------------------------------
 Estimated maximum stack depth 4
 ---------------------------------------------------------------------------------

 Call Graph Graphs:

 _main (ROOT)
   _setup
     _config_int_enable
     _config_io
     _config_iocb
     _config_reloj
   _showString
     _strlen
   _writeToEEPROM

 _isr (ROOT)
   _IOCB_interrupt

 Address spaces:
Name               Size   Autos  Total    Cost      Usage
BANK3               60      0       0       9        0.0%
BITBANK3            60      0       0       8        0.0%
SFR3                 0      0       0       4        0.0%
BITSFR3              0      0       0       4        0.0%
BANK2               60      0       0      11        0.0%
BITBANK2            60      0       0      10        0.0%
SFR2                 0      0       0       5        0.0%
BITSFR2              0      0       0       5        0.0%
BANK1               50      0       0       7        0.0%
BITBANK1            50      0       0       6        0.0%
SFR1                 0      0       0       2        0.0%
BITSFR1              0      0       0       2        0.0%
BANK0               50      D      21       5       41.2%
BITBANK0            50      0       0       4        0.0%
SFR0                 0      0       0       1        0.0%
BITSFR0              0      0       0       1        0.0%
COMMON               E      7       C       1       85.7%
BITCOMMON            E      0       0       0        0.0%
CODE                 0      0       0       0        0.0%
DATA                 0      0      2D      12        0.0%
ABS                  0      0      2D       3        0.0%
NULL                 0      0       0       0        0.0%
STACK                0      0       0       2        0.0%
EEDATA             100      0       0       0        0.0%


Microchip Technology PIC Macro Assembler V2.31 build 20201012212115 
Symbol Table                                                                                   Wed Jun 02 10:29:53 2021

                         pc 0002                          fsr 0004                         l203 06FD  
                       l212 06EE                         l221 068B                         l206 061D  
                       l215 0703                         l208 0621                         l209 0636  
                       l174 06DD                         l177 06C8                         l761 06AF  
                       _PR2 0092                         u680 0621                         u681 0620  
                       _isr 054C                         fsr0 0004                         indf 0000  
__size_of_config_int_enable 0011               showString@var 0034                        l1201 05CE  
                      l1211 05DD                        l1203 05D1                        l1221 05EC  
                      l1213 05E0                        l1205 05D3                        l1231 0601  
                      l1223 05ED                        l1215 05E3                        l1207 05D8  
                      l1241 0613                        l1233 0605                        l1225 05F3  
                      l1217 05E8                        l1209 05DA                        l1251 061A  
                      l1243 0615                        l1235 0609                        l1227 05F7  
                      l1219 05EB                        l1261 062E                        l1253 061B  
                      l1245 0617                        l1237 060D                        l1229 05FE  
                      l1263 0631                        l1255 061C                        l1247 0618  
                      l1239 0611                        l1265 0632                        l1257 0629  
                      l1249 0619                        l1601 06CE                        l1267 0633  
                      l1259 062D                        l1603 06D3                        l1611 0654  
                      l1613 065E                        l1621 06BC                        l1701 0156  
                      l1615 0666                        l1607 0637                        l1631 06C7  
                      l1623 06BF                        l1703 015C                        l1711 0182  
                      l1617 067B                        l1609 063C                        l1625 06C0  
                      l1801 02A5                        l1721 01A8                        l1713 018B  
                      l1705 015E                        l1641 0045                        l1627 06C5  
                      l1619 06B0                        l1803 02AE                        l1731 01D3  
                      l1723 01A9                        l1715 019C                        l1707 0164  
                      l1643 004E                        l1651 0061                        l1635 0039  
                      l1581 06DE                        l1629 06C6                        l1805 02B3  
                      l1741 01FF                        l1733 01D5                        l1725 01AF  
                      l1717 019D                        l1709 016E                        l1661 007E  
                      l1653 0065                        l1645 0053                        l1637 003E  
                      l1583 06FE                        l1591 0693                        l1807 02BB  
                      l1743 0201                        l1735 01DB                        l1727 01B9  
                      l1719 01A2                        l1751 0226                        l1671 00D9  
                      l1663 0082                        l1655 006B                        l1647 0057  
                      l1639 0041                        l1585 0702                        l1593 0699  
                      l1761 0241                        l1753 022C                        l1745 0207  
                      l1737 01E5                        l1729 01CD                        l1681 00FF  
                      l1673 00DF                        l1665 0084                        l1657 0074  
                      l1649 005E                        l1579 06F7                        l1595 06A7  
                      l1771 0258                        l1755 0235                        l1763 0242  
                      l1747 0211                        l1739 01F9                        l1683 0105  
                      l1691 012A                        l1675 00F3                        l1667 008A  
                      l1659 0078                        l1589 068C                        l1773 025D  
                      l1765 0248                        l1757 023B                        l1749 0225  
                      l1693 0130                        l1685 0106                        l1677 00F9  
                      l1669 00D5                        l1781 0265                        l1599 06C9  
                      l1791 0282                        l1783 026B                        l1767 0251  
                      l1775 025E                        l1759 023C                        l1695 0132  
                      l1687 010C                        l1679 00FA                        l1793 0286  
                      l1785 0271                        l1769 0257                        l1697 0138  
                      l1689 0116                        l1795 028A                        l1787 027A  
                      l1699 0142                        l1797 0290                        l1789 027E  
                      l1799 0298                        ?_isr 0070                        STR_1 034B  
                      STR_2 043B                        STR_3 0459                        STR_4 04A0  
                      STR_5 048D                        STR_6 04B3                        STR_7 0474  
                      STR_8 041D                        STR_9 03F7                        u1400 0065  
                      u1401 0064                        u1410 006B                        u1411 006A  
                      u1500 0130                        u1420 007E                        _IOCB 0096  
                      u1501 012F                        u1421 007D                        u1350 06A7  
                      u1510 013F                        u1430 008A                        u1351 06A6  
                      u1511 013B                        u1431 0089                        u1360 0646  
                      u1600 01B6                        u1440 00DF                        u1601 01B2  
                      u1441 00DE                        u1370 067B                        u1450 00FF  
                      u1371 067A                        u1451 00FE                        u1540 015C  
                      u1524 0142                        u1460 0105                        u1380 0045  
                      u1541 015B                        u1461 0104                        u1381 0044  
                      u1710 022C                        u1630 01D3                        u1614 01B9  
                      u1550 016B                        u1470 0113                        u1390 004E  
                      u1375 0677                        u1711 022B                        u1631 01D2  
                      u1551 0167                        u1535 0149                        u1471 010F  
                      u1391 004D                        u1800 0290                        u1720 0241  
                      u1640 01E2                        u1801 028F                        u1721 0240  
                      u1705 0218                        u1641 01DE                        u1625 01C0  
                      u1810 02AE                        u1730 0248                        u1811 02AD  
                      u1731 0247                        u1740 025D                        u1580 01A2  
                      u1564 016E                        u1484 0116                        u1741 025C  
                      u1581 01A1                        u1750 0264                        u1670 01FF  
                      u1654 01E5                        u1590 01A8                        u1751 0263  
                      u1671 01FE                        u1591 01A7                        u1575 0175  
                      u1495 011D                        u1760 026B                        u1680 020E  
                      u1761 026A                        u1681 020A                        u1665 01EC  
                      u1770 0271                        u1771 0270                        u1827 005B  
                      u1780 0282                        u1837 065A                        u1781 0281  
                      u1790 028A                        u1694 0211                        u1847 0683  
                      u1791 0289                        u1857 05FB                        _WPUB 0095  
                      _data 0312                        _flag 003F                        _main 0039  
                      btemp 007E              ??_config_reloj 0030                        start 000C  
            _IOCB_interrupt 04C5                       ??_isr 0073                       ?_main 0070  
                     _EEADR 010D                       STR_10 037C                       _EEDAT 010C  
                     STR_11 03A9                       STR_12 037C                       STR_13 0313  
                     STR_14 03D0                       STR_15 034B                       _ANSEL 0188  
                     i1l200 054B                       i1l188 05C7                       _RCREG 001A  
                     _SPBRG 0099                       _PORTA 0005                       _PORTB 0006  
                     _PORTC 0007                       _PORTD 0008                       _PORTE 0009  
                     u72_20 04CB                       u72_21 04CA                       u73_20 04D1  
                     u73_21 04D0                       _TRISA 0085                       _TRISB 0086  
                     _TRISC 0087                       _TRISD 0088                       _TRISE 0089  
                     u74_20 04FB                       u74_21 04FA                       u75_20 0501  
                     u75_21 0500                       u76_20 052B                       u76_21 052A  
                     u77_20 0537                       u77_21 0536                       u78_20 0543  
                     u78_21 0542                       u79_20 0547                       u79_21 0546  
                     _TXREG 0019                       _flag2 0079                       _setup 06C9  
                     _texto 0020                       pclath 000A                       status 0003  
                     wtemp0 007E      __end_of_IOCB_interrupt 054C             __initialization 000F  
              __end_of_data 0313                __end_of_main 02C1                      ??_main 003B  
                    _ADRESH 001E                      _ADRESL 009E                      _CCPR1L 0015  
                    _CCPR2L 001B                      _EECON2 018D                      ?_setup 0070  
                    _ANSELH 0189                      i1l1331 04E5                      i1l1341 0515  
                    i1l1333 04F4                      i1l1325 04C5                      i1l1351 0532  
                    i1l1343 0524                      i1l1327 04CB                      i1l1335 04F7  
                    i1l1361 053F                      i1l1353 0533                      i1l1337 04FB  
                    i1l1345 0527                      i1l1329 04D1                      i1l1363 0543  
                    i1l1355 0537                      i1l1347 052B                      i1l1339 0501  
                    i1l1365 0547                      i1l1357 053D                      i1l1349 0531  
                    i1l1367 054A                      i1l1359 053E                      i1l1551 055B  
                    i1l1561 0574                      i1l1553 055F                      i1l1545 054C  
                    i1l1571 05A2                      i1l1563 057E                      i1l1555 0563  
                    i1l1547 0550                      i1l1573 05A8                      i1l1557 056C  
                    i1l1565 0592                      i1l1549 0555                      i1l1575 05B2  
                    i1l1567 059B                      i1l1559 056E                      i1l1577 05C6  
                    i1l1569 05A0                      u130_25 0583                      u131_20 059B  
                    u131_21 059A                      u132_20 05AF                      u124_20 0550  
                    u132_21 05AB                      u124_21 054F                      u125_20 055B  
                    u125_21 055A                      u133_24 05B2                      u126_20 0563  
                    u126_21 0562                      u134_25 05B7                      u127_20 056C  
                    u127_21 056B                      u128_20 057B                      u128_21 0577  
                    u129_24 057E                      u186_27 04D9                      u187_27 04ED  
                    u188_27 0509                      u189_27 051D                      _SPBRGH 009A  
           ?_IOCB_interrupt 0070           writeToEEPROM@data 0030        __size_of_config_iocb 0006  
                    _opcion 002F                      _strlen 068C        __end_of_config_reloj 06FE  
                    saved_w 007E      __size_of_writeToEEPROM 0019     __end_of__initialization 0035  
            __pcstackCOMMON 0070                __pidataBANK0 0704               __end_of_setup 06DE  
            _OPTION_REGbits 0081          __size_of_config_io 0069                     ??_setup 0031  
                __pbssBANK0 0020                  __pmaintext 0039               _writeToEEPROM 06B0  
                __pintentry 0004               _addressEEPROM 003D                     ?_strlen 0030  
                   _RB3_old 002D                  __stringtab 0300              ?_writeToEEPROM 0030  
         __end_of_config_io 0637       __size_of_config_reloj 0007                     __ptext1 06B0  
                   __ptext2 0637                     __ptext3 068C                     __ptext4 06C9  
                   __ptext5 06F7                     __ptext6 06FE                     __ptext7 05CE  
                   __ptext8 06DE                     __ptext9 054C             __size_of_strlen 0024  
                 _T2CONbits 0012                __size_of_isr 0082                     clrloop0 06F0  
      end_of_initialization 0035            ??_IOCB_interrupt 0070                _config_reloj 06F7  
                 _RCSTAbits 0018                __pstringtext 0300                     strlen@s 0030  
                 _PORTAbits 0005                   _PORTBbits 0006                  _showString 0637  
                 _PORTDbits 0008                 showString@i 0039                 _CCP1CONbits 0017  
               _CCP2CONbits 001D                   _TXSTAbits 0098               ??_config_iocb 0030  
           ??_writeToEEPROM 0034        writeToEEPROM@address 0032                 _BAUDCTLbits 0187  
            __end_of_strlen 06B0         start_initialization 000F                 __end_of_isr 05CE  
               __pdataBANK0 003D         __end_of_config_iocb 0704                 ?_showString 0034  
                  ??_strlen 0032                 __pbssCOMMON 0077                   ___latbits 0002  
             __pcstackBANK0 0030                   _eepromVal 002B                   _config_io 05CE  
            __size_of_setup 0015                   _parpadear 0077           interrupt_function 0004  
       __size_of_showString 0055                   clear_ram0 06EF                    _PIE1bits 008C  
               _config_iocb 06FE                    _PIR1bits 000C                   _valor_pot 007B  
                ?_config_io 0070                  _ADCON0bits 001F                 __stringbase 0312  
                _ADCON1bits 009F                  _EECON1bits 018C          __end_of__stringtab 0312  
                  __ptext10 04C5           _config_int_enable 06DE          ?_config_int_enable 0070  
             __size_of_main 0288         ??_config_int_enable 0030       __end_of_writeToEEPROM 06C9  
   __size_of_IOCB_interrupt 0087                 ??_config_io 0030                ??_showString 0036  
                _INTCONbits 000B   __end_of_config_int_enable 06EF                    intlevel1 0000  
        __end_of_showString 068C                   stringcode 030A                  _OSCCONbits 008F  
                  strlen@cp 0032                    stringtab 0300               ?_config_reloj 0070  
              ?_config_iocb 0070  
